SF:/Users/coach/Documents/Jito/restaking/account_traits_derive/src/lib.rs
FN:6,_RNvCscU57sy0e44K_26jito_account_traits_derive26derive_account_deserialize
FN:6,_RNvCs33Z37Z8mRVJ_26jito_account_traits_derive26derive_account_deserialize
FNDA:0,_RNvCscU57sy0e44K_26jito_account_traits_derive26derive_account_deserialize
FNDA:30,_RNvCs33Z37Z8mRVJ_26jito_account_traits_derive26derive_account_deserialize
FNF:1
FNH:1
DA:6,30
DA:7,30
DA:8,30
DA:9,30
DA:10,30
DA:11,30
DA:12,30
DA:13,30
DA:14,30
DA:15,30
BRF:0
BRH:0
LF:10
LH:10
end_of_record
SF:/Users/coach/Documents/Jito/restaking/bytemuck/src/lib.rs
FN:23,_RNvYpNtCsRnocW71Q7D_13jito_bytemuck18AccountDeserialize24try_from_slice_uncheckedB5_
FN:32,_RNCNvYpNtCsRnocW71Q7D_13jito_bytemuck18AccountDeserialize24try_from_slice_unchecked0B7_
FN:44,_RNvYpNtCsRnocW71Q7D_13jito_bytemuck18AccountDeserialize28try_from_slice_unchecked_mutB5_
FN:53,_RNCNvYpNtCsRnocW71Q7D_13jito_bytemuck18AccountDeserialize28try_from_slice_unchecked_mut0B7_
FN:23,_RNvYpNtCseDWUOs34kej_13jito_bytemuck18AccountDeserialize24try_from_slice_uncheckedB5_
FN:32,_RNCNvYpNtCseDWUOs34kej_13jito_bytemuck18AccountDeserialize24try_from_slice_unchecked0B7_
FN:44,_RNvYpNtCseDWUOs34kej_13jito_bytemuck18AccountDeserialize28try_from_slice_unchecked_mutB5_
FN:53,_RNCNvYpNtCseDWUOs34kej_13jito_bytemuck18AccountDeserialize28try_from_slice_unchecked_mut0B7_
FN:44,_RNvYNtNtCsajGmeH7ivRj_19jito_restaking_core24ncn_vault_slasher_ticket21NcnVaultSlasherTicketNtCseDWUOs34kej_13jito_bytemuck18AccountDeserialize28try_from_slice_unchecked_mutCsaNEwYbhBb08_22jito_restaking_program
FN:44,_RNvYNtNtCsajGmeH7ivRj_19jito_restaking_core16ncn_vault_ticket14NcnVaultTicketNtCseDWUOs34kej_13jito_bytemuck18AccountDeserialize28try_from_slice_unchecked_mutCsaNEwYbhBb08_22jito_restaking_program
FN:44,_RNvYNtNtCsajGmeH7ivRj_19jito_restaking_core8operator8OperatorNtCseDWUOs34kej_13jito_bytemuck18AccountDeserialize28try_from_slice_unchecked_mutCsaNEwYbhBb08_22jito_restaking_program
FN:23,_RNvYNtNtCsajGmeH7ivRj_19jito_restaking_core6config6ConfigNtCseDWUOs34kej_13jito_bytemuck18AccountDeserialize24try_from_slice_uncheckedCsaNEwYbhBb08_22jito_restaking_program
FN:44,_RNvYNtNtCsajGmeH7ivRj_19jito_restaking_core6config6ConfigNtCseDWUOs34kej_13jito_bytemuck18AccountDeserialize28try_from_slice_unchecked_mutCsaNEwYbhBb08_22jito_restaking_program
FN:44,_RNvYNtNtCsajGmeH7ivRj_19jito_restaking_core3ncn3NcnNtCseDWUOs34kej_13jito_bytemuck18AccountDeserialize28try_from_slice_unchecked_mutCsaNEwYbhBb08_22jito_restaking_program
FN:53,_RNCNvYNtNtCsajGmeH7ivRj_19jito_restaking_core16ncn_vault_ticket14NcnVaultTicketNtCseDWUOs34kej_13jito_bytemuck18AccountDeserialize28try_from_slice_unchecked_mut0CsaNEwYbhBb08_22jito_restaking_program
FN:53,_RNCNvYNtNtCsajGmeH7ivRj_19jito_restaking_core18ncn_operator_state16NcnOperatorStateNtCseDWUOs34kej_13jito_bytemuck18AccountDeserialize28try_from_slice_unchecked_mut0CsaNEwYbhBb08_22jito_restaking_program
FN:53,_RNCNvYNtNtCsajGmeH7ivRj_19jito_restaking_core21operator_vault_ticket19OperatorVaultTicketNtCseDWUOs34kej_13jito_bytemuck18AccountDeserialize28try_from_slice_unchecked_mut0CsaNEwYbhBb08_22jito_restaking_program
FN:53,_RNCNvYNtNtCsajGmeH7ivRj_19jito_restaking_core24ncn_vault_slasher_ticket21NcnVaultSlasherTicketNtCseDWUOs34kej_13jito_bytemuck18AccountDeserialize28try_from_slice_unchecked_mut0CsaNEwYbhBb08_22jito_restaking_program
FN:53,_RNCNvYNtNtCsajGmeH7ivRj_19jito_restaking_core3ncn3NcnNtCseDWUOs34kej_13jito_bytemuck18AccountDeserialize28try_from_slice_unchecked_mut0CsaNEwYbhBb08_22jito_restaking_program
FN:32,_RNCNvYNtNtCsajGmeH7ivRj_19jito_restaking_core6config6ConfigNtCseDWUOs34kej_13jito_bytemuck18AccountDeserialize24try_from_slice_unchecked0CsaNEwYbhBb08_22jito_restaking_program
FN:53,_RNCNvYNtNtCsajGmeH7ivRj_19jito_restaking_core6config6ConfigNtCseDWUOs34kej_13jito_bytemuck18AccountDeserialize28try_from_slice_unchecked_mut0CsaNEwYbhBb08_22jito_restaking_program
FN:53,_RNCNvYNtNtCsajGmeH7ivRj_19jito_restaking_core8operator8OperatorNtCseDWUOs34kej_13jito_bytemuck18AccountDeserialize28try_from_slice_unchecked_mut0CsaNEwYbhBb08_22jito_restaking_program
FN:44,_RNvYNtNtCsajGmeH7ivRj_19jito_restaking_core18ncn_operator_state16NcnOperatorStateNtCseDWUOs34kej_13jito_bytemuck18AccountDeserialize28try_from_slice_unchecked_mutCsaNEwYbhBb08_22jito_restaking_program
FN:44,_RNvYNtNtCsajGmeH7ivRj_19jito_restaking_core21operator_vault_ticket19OperatorVaultTicketNtCseDWUOs34kej_13jito_bytemuck18AccountDeserialize28try_from_slice_unchecked_mutCsaNEwYbhBb08_22jito_restaking_program
FN:23,_RNvYNtNtCsxEYeSIDwsG_15jito_vault_core5vault5VaultNtCseDWUOs34kej_13jito_bytemuck18AccountDeserialize24try_from_slice_uncheckedB6_
FN:23,_RNvYNtNtCsxEYeSIDwsG_15jito_vault_core30vault_staker_withdrawal_ticket27VaultStakerWithdrawalTicketNtCseDWUOs34kej_13jito_bytemuck18AccountDeserialize24try_from_slice_uncheckedB6_
FN:32,_RNCNvYNtNtCsxEYeSIDwsG_15jito_vault_core30vault_staker_withdrawal_ticket27VaultStakerWithdrawalTicketNtCseDWUOs34kej_13jito_bytemuck18AccountDeserialize24try_from_slice_unchecked0B8_
FN:32,_RNCNvYNtNtCsxEYeSIDwsG_15jito_vault_core5vault5VaultNtCseDWUOs34kej_13jito_bytemuck18AccountDeserialize24try_from_slice_unchecked0B8_
FN:32,_RNCNvYNtNtCsajGmeH7ivRj_19jito_restaking_core3ncn3NcnNtCseDWUOs34kej_13jito_bytemuck18AccountDeserialize24try_from_slice_unchecked0B8_
FN:32,_RNCNvYNtNtCsajGmeH7ivRj_19jito_restaking_core8operator8OperatorNtCseDWUOs34kej_13jito_bytemuck18AccountDeserialize24try_from_slice_unchecked0B8_
FN:23,_RNvYNtNtCsajGmeH7ivRj_19jito_restaking_core3ncn3NcnNtCseDWUOs34kej_13jito_bytemuck18AccountDeserialize24try_from_slice_uncheckedB6_
FN:23,_RNvYNtNtCsajGmeH7ivRj_19jito_restaking_core8operator8OperatorNtCseDWUOs34kej_13jito_bytemuck18AccountDeserialize24try_from_slice_uncheckedB6_
FN:23,_RNvYNtNtCsxEYeSIDwsG_15jito_vault_core26vault_update_state_tracker23VaultUpdateStateTrackerNtCseDWUOs34kej_13jito_bytemuck18AccountDeserialize24try_from_slice_uncheckedCsedjIw1RBnMI_18jito_vault_program
FN:44,_RNvYNtNtCsxEYeSIDwsG_15jito_vault_core26vault_update_state_tracker23VaultUpdateStateTrackerNtCseDWUOs34kej_13jito_bytemuck18AccountDeserialize28try_from_slice_unchecked_mutCsedjIw1RBnMI_18jito_vault_program
FN:32,_RNCNvYNtNtCsajGmeH7ivRj_19jito_restaking_core24ncn_vault_slasher_ticket21NcnVaultSlasherTicketNtCseDWUOs34kej_13jito_bytemuck18AccountDeserialize24try_from_slice_unchecked0CsedjIw1RBnMI_18jito_vault_program
FN:53,_RNCNvYNtNtCsxEYeSIDwsG_15jito_vault_core16vault_ncn_ticket14VaultNcnTicketNtCseDWUOs34kej_13jito_bytemuck18AccountDeserialize28try_from_slice_unchecked_mut0CsedjIw1RBnMI_18jito_vault_program
FN:53,_RNCNvYNtNtCsxEYeSIDwsG_15jito_vault_core24vault_ncn_slasher_ticket21VaultNcnSlasherTicketNtCseDWUOs34kej_13jito_bytemuck18AccountDeserialize28try_from_slice_unchecked_mut0CsedjIw1RBnMI_18jito_vault_program
FN:53,_RNCNvYNtNtCsxEYeSIDwsG_15jito_vault_core25vault_operator_delegation23VaultOperatorDelegationNtCseDWUOs34kej_13jito_bytemuck18AccountDeserialize28try_from_slice_unchecked_mut0CsedjIw1RBnMI_18jito_vault_program
FN:32,_RNCNvYNtNtCsxEYeSIDwsG_15jito_vault_core26vault_update_state_tracker23VaultUpdateStateTrackerNtCseDWUOs34kej_13jito_bytemuck18AccountDeserialize24try_from_slice_unchecked0CsedjIw1RBnMI_18jito_vault_program
FN:53,_RNCNvYNtNtCsxEYeSIDwsG_15jito_vault_core26vault_update_state_tracker23VaultUpdateStateTrackerNtCseDWUOs34kej_13jito_bytemuck18AccountDeserialize28try_from_slice_unchecked_mut0CsedjIw1RBnMI_18jito_vault_program
FN:53,_RNCNvYNtNtCsxEYeSIDwsG_15jito_vault_core30vault_staker_withdrawal_ticket27VaultStakerWithdrawalTicketNtCseDWUOs34kej_13jito_bytemuck18AccountDeserialize28try_from_slice_unchecked_mut0CsedjIw1RBnMI_18jito_vault_program
FN:53,_RNCNvYNtNtCsxEYeSIDwsG_15jito_vault_core33vault_ncn_slasher_operator_ticket29VaultNcnSlasherOperatorTicketNtCseDWUOs34kej_13jito_bytemuck18AccountDeserialize28try_from_slice_unchecked_mut0CsedjIw1RBnMI_18jito_vault_program
FN:53,_RNCNvYNtNtCsxEYeSIDwsG_15jito_vault_core5vault5VaultNtCseDWUOs34kej_13jito_bytemuck18AccountDeserialize28try_from_slice_unchecked_mut0CsedjIw1RBnMI_18jito_vault_program
FN:32,_RNCNvYNtNtCsxEYeSIDwsG_15jito_vault_core6config6ConfigNtCseDWUOs34kej_13jito_bytemuck18AccountDeserialize24try_from_slice_unchecked0CsedjIw1RBnMI_18jito_vault_program
FN:53,_RNCNvYNtNtCsxEYeSIDwsG_15jito_vault_core6config6ConfigNtCseDWUOs34kej_13jito_bytemuck18AccountDeserialize28try_from_slice_unchecked_mut0CsedjIw1RBnMI_18jito_vault_program
FN:23,_RNvYNtNtCsxEYeSIDwsG_15jito_vault_core6config6ConfigNtCseDWUOs34kej_13jito_bytemuck18AccountDeserialize24try_from_slice_uncheckedCsedjIw1RBnMI_18jito_vault_program
FN:44,_RNvYNtNtCsxEYeSIDwsG_15jito_vault_core6config6ConfigNtCseDWUOs34kej_13jito_bytemuck18AccountDeserialize28try_from_slice_unchecked_mutCsedjIw1RBnMI_18jito_vault_program
FN:44,_RNvYNtNtCsxEYeSIDwsG_15jito_vault_core16vault_ncn_ticket14VaultNcnTicketNtCseDWUOs34kej_13jito_bytemuck18AccountDeserialize28try_from_slice_unchecked_mutCsedjIw1RBnMI_18jito_vault_program
FN:23,_RNvYNtNtCsajGmeH7ivRj_19jito_restaking_core24ncn_vault_slasher_ticket21NcnVaultSlasherTicketNtCseDWUOs34kej_13jito_bytemuck18AccountDeserialize24try_from_slice_uncheckedCsedjIw1RBnMI_18jito_vault_program
FN:44,_RNvYNtNtCsxEYeSIDwsG_15jito_vault_core25vault_operator_delegation23VaultOperatorDelegationNtCseDWUOs34kej_13jito_bytemuck18AccountDeserialize28try_from_slice_unchecked_mutCsedjIw1RBnMI_18jito_vault_program
FN:44,_RNvYNtNtCsxEYeSIDwsG_15jito_vault_core33vault_ncn_slasher_operator_ticket29VaultNcnSlasherOperatorTicketNtCseDWUOs34kej_13jito_bytemuck18AccountDeserialize28try_from_slice_unchecked_mutCsedjIw1RBnMI_18jito_vault_program
FN:44,_RNvYNtNtCsxEYeSIDwsG_15jito_vault_core24vault_ncn_slasher_ticket21VaultNcnSlasherTicketNtCseDWUOs34kej_13jito_bytemuck18AccountDeserialize28try_from_slice_unchecked_mutCsedjIw1RBnMI_18jito_vault_program
FN:44,_RNvYNtNtCsxEYeSIDwsG_15jito_vault_core30vault_staker_withdrawal_ticket27VaultStakerWithdrawalTicketNtCseDWUOs34kej_13jito_bytemuck18AccountDeserialize28try_from_slice_unchecked_mutCsedjIw1RBnMI_18jito_vault_program
FN:44,_RNvYNtNtCsxEYeSIDwsG_15jito_vault_core5vault5VaultNtCseDWUOs34kej_13jito_bytemuck18AccountDeserialize28try_from_slice_unchecked_mutCsedjIw1RBnMI_18jito_vault_program
FN:32,_RNCNvYNtNtCsajGmeH7ivRj_19jito_restaking_core16ncn_vault_ticket14NcnVaultTicketNtCseDWUOs34kej_13jito_bytemuck18AccountDeserialize24try_from_slice_unchecked0Cs8pyYBcdFHSq_5tests
FN:32,_RNCNvYNtNtCsajGmeH7ivRj_19jito_restaking_core18ncn_operator_state16NcnOperatorStateNtCseDWUOs34kej_13jito_bytemuck18AccountDeserialize24try_from_slice_unchecked0Cs8pyYBcdFHSq_5tests
FN:32,_RNCNvYNtNtCsajGmeH7ivRj_19jito_restaking_core21operator_vault_ticket19OperatorVaultTicketNtCseDWUOs34kej_13jito_bytemuck18AccountDeserialize24try_from_slice_unchecked0Cs8pyYBcdFHSq_5tests
FN:32,_RNCNvYNtNtCsxEYeSIDwsG_15jito_vault_core16vault_ncn_ticket14VaultNcnTicketNtCseDWUOs34kej_13jito_bytemuck18AccountDeserialize24try_from_slice_unchecked0Cs8pyYBcdFHSq_5tests
FN:32,_RNCNvYNtNtCsxEYeSIDwsG_15jito_vault_core24vault_ncn_slasher_ticket21VaultNcnSlasherTicketNtCseDWUOs34kej_13jito_bytemuck18AccountDeserialize24try_from_slice_unchecked0Cs8pyYBcdFHSq_5tests
FN:32,_RNCNvYNtNtCsxEYeSIDwsG_15jito_vault_core25vault_operator_delegation23VaultOperatorDelegationNtCseDWUOs34kej_13jito_bytemuck18AccountDeserialize24try_from_slice_unchecked0Cs8pyYBcdFHSq_5tests
FN:23,_RNvYNtNtCsajGmeH7ivRj_19jito_restaking_core21operator_vault_ticket19OperatorVaultTicketNtCseDWUOs34kej_13jito_bytemuck18AccountDeserialize24try_from_slice_uncheckedCs8pyYBcdFHSq_5tests
FN:23,_RNvYNtNtCsxEYeSIDwsG_15jito_vault_core16vault_ncn_ticket14VaultNcnTicketNtCseDWUOs34kej_13jito_bytemuck18AccountDeserialize24try_from_slice_uncheckedCs8pyYBcdFHSq_5tests
FN:23,_RNvYNtNtCsajGmeH7ivRj_19jito_restaking_core18ncn_operator_state16NcnOperatorStateNtCseDWUOs34kej_13jito_bytemuck18AccountDeserialize24try_from_slice_uncheckedCs8pyYBcdFHSq_5tests
FN:23,_RNvYNtNtCsajGmeH7ivRj_19jito_restaking_core16ncn_vault_ticket14NcnVaultTicketNtCseDWUOs34kej_13jito_bytemuck18AccountDeserialize24try_from_slice_uncheckedCs8pyYBcdFHSq_5tests
FN:23,_RNvYNtNtCsxEYeSIDwsG_15jito_vault_core25vault_operator_delegation23VaultOperatorDelegationNtCseDWUOs34kej_13jito_bytemuck18AccountDeserialize24try_from_slice_uncheckedCs8pyYBcdFHSq_5tests
FN:23,_RNvYNtNtCsxEYeSIDwsG_15jito_vault_core24vault_ncn_slasher_ticket21VaultNcnSlasherTicketNtCseDWUOs34kej_13jito_bytemuck18AccountDeserialize24try_from_slice_uncheckedCs8pyYBcdFHSq_5tests
FNDA:0,_RNvYpNtCsRnocW71Q7D_13jito_bytemuck18AccountDeserialize24try_from_slice_uncheckedB5_
FNDA:0,_RNCNvYpNtCsRnocW71Q7D_13jito_bytemuck18AccountDeserialize24try_from_slice_unchecked0B7_
FNDA:0,_RNvYpNtCsRnocW71Q7D_13jito_bytemuck18AccountDeserialize28try_from_slice_unchecked_mutB5_
FNDA:0,_RNCNvYpNtCsRnocW71Q7D_13jito_bytemuck18AccountDeserialize28try_from_slice_unchecked_mut0B7_
FNDA:0,_RNvYpNtCseDWUOs34kej_13jito_bytemuck18AccountDeserialize24try_from_slice_uncheckedB5_
FNDA:0,_RNCNvYpNtCseDWUOs34kej_13jito_bytemuck18AccountDeserialize24try_from_slice_unchecked0B7_
FNDA:0,_RNvYpNtCseDWUOs34kej_13jito_bytemuck18AccountDeserialize28try_from_slice_unchecked_mutB5_
FNDA:0,_RNCNvYpNtCseDWUOs34kej_13jito_bytemuck18AccountDeserialize28try_from_slice_unchecked_mut0B7_
FNDA:6,_RNvYNtNtCsajGmeH7ivRj_19jito_restaking_core24ncn_vault_slasher_ticket21NcnVaultSlasherTicketNtCseDWUOs34kej_13jito_bytemuck18AccountDeserialize28try_from_slice_unchecked_mutCsaNEwYbhBb08_22jito_restaking_program
FNDA:200,_RNvYNtNtCsajGmeH7ivRj_19jito_restaking_core16ncn_vault_ticket14NcnVaultTicketNtCseDWUOs34kej_13jito_bytemuck18AccountDeserialize28try_from_slice_unchecked_mutCsaNEwYbhBb08_22jito_restaking_program
FNDA:511,_RNvYNtNtCsajGmeH7ivRj_19jito_restaking_core8operator8OperatorNtCseDWUOs34kej_13jito_bytemuck18AccountDeserialize28try_from_slice_unchecked_mutCsaNEwYbhBb08_22jito_restaking_program
FNDA:749,_RNvYNtNtCsajGmeH7ivRj_19jito_restaking_core6config6ConfigNtCseDWUOs34kej_13jito_bytemuck18AccountDeserialize24try_from_slice_uncheckedCsaNEwYbhBb08_22jito_restaking_program
FNDA:637,_RNvYNtNtCsajGmeH7ivRj_19jito_restaking_core6config6ConfigNtCseDWUOs34kej_13jito_bytemuck18AccountDeserialize28try_from_slice_unchecked_mutCsaNEwYbhBb08_22jito_restaking_program
FNDA:483,_RNvYNtNtCsajGmeH7ivRj_19jito_restaking_core3ncn3NcnNtCseDWUOs34kej_13jito_bytemuck18AccountDeserialize28try_from_slice_unchecked_mutCsaNEwYbhBb08_22jito_restaking_program
FNDA:0,_RNCNvYNtNtCsajGmeH7ivRj_19jito_restaking_core16ncn_vault_ticket14NcnVaultTicketNtCseDWUOs34kej_13jito_bytemuck18AccountDeserialize28try_from_slice_unchecked_mut0CsaNEwYbhBb08_22jito_restaking_program
FNDA:0,_RNCNvYNtNtCsajGmeH7ivRj_19jito_restaking_core18ncn_operator_state16NcnOperatorStateNtCseDWUOs34kej_13jito_bytemuck18AccountDeserialize28try_from_slice_unchecked_mut0CsaNEwYbhBb08_22jito_restaking_program
FNDA:0,_RNCNvYNtNtCsajGmeH7ivRj_19jito_restaking_core21operator_vault_ticket19OperatorVaultTicketNtCseDWUOs34kej_13jito_bytemuck18AccountDeserialize28try_from_slice_unchecked_mut0CsaNEwYbhBb08_22jito_restaking_program
FNDA:0,_RNCNvYNtNtCsajGmeH7ivRj_19jito_restaking_core24ncn_vault_slasher_ticket21NcnVaultSlasherTicketNtCseDWUOs34kej_13jito_bytemuck18AccountDeserialize28try_from_slice_unchecked_mut0CsaNEwYbhBb08_22jito_restaking_program
FNDA:0,_RNCNvYNtNtCsajGmeH7ivRj_19jito_restaking_core3ncn3NcnNtCseDWUOs34kej_13jito_bytemuck18AccountDeserialize28try_from_slice_unchecked_mut0CsaNEwYbhBb08_22jito_restaking_program
FNDA:0,_RNCNvYNtNtCsajGmeH7ivRj_19jito_restaking_core6config6ConfigNtCseDWUOs34kej_13jito_bytemuck18AccountDeserialize24try_from_slice_unchecked0CsaNEwYbhBb08_22jito_restaking_program
FNDA:0,_RNCNvYNtNtCsajGmeH7ivRj_19jito_restaking_core6config6ConfigNtCseDWUOs34kej_13jito_bytemuck18AccountDeserialize28try_from_slice_unchecked_mut0CsaNEwYbhBb08_22jito_restaking_program
FNDA:0,_RNCNvYNtNtCsajGmeH7ivRj_19jito_restaking_core8operator8OperatorNtCseDWUOs34kej_13jito_bytemuck18AccountDeserialize28try_from_slice_unchecked_mut0CsaNEwYbhBb08_22jito_restaking_program
FNDA:442,_RNvYNtNtCsajGmeH7ivRj_19jito_restaking_core18ncn_operator_state16NcnOperatorStateNtCseDWUOs34kej_13jito_bytemuck18AccountDeserialize28try_from_slice_unchecked_mutCsaNEwYbhBb08_22jito_restaking_program
FNDA:238,_RNvYNtNtCsajGmeH7ivRj_19jito_restaking_core21operator_vault_ticket19OperatorVaultTicketNtCseDWUOs34kej_13jito_bytemuck18AccountDeserialize28try_from_slice_unchecked_mutCsaNEwYbhBb08_22jito_restaking_program
FNDA:1866,_RNvYNtNtCsxEYeSIDwsG_15jito_vault_core5vault5VaultNtCseDWUOs34kej_13jito_bytemuck18AccountDeserialize24try_from_slice_uncheckedB6_
FNDA:41,_RNvYNtNtCsxEYeSIDwsG_15jito_vault_core30vault_staker_withdrawal_ticket27VaultStakerWithdrawalTicketNtCseDWUOs34kej_13jito_bytemuck18AccountDeserialize24try_from_slice_uncheckedB6_
FNDA:0,_RNCNvYNtNtCsxEYeSIDwsG_15jito_vault_core30vault_staker_withdrawal_ticket27VaultStakerWithdrawalTicketNtCseDWUOs34kej_13jito_bytemuck18AccountDeserialize24try_from_slice_unchecked0B8_
FNDA:0,_RNCNvYNtNtCsxEYeSIDwsG_15jito_vault_core5vault5VaultNtCseDWUOs34kej_13jito_bytemuck18AccountDeserialize24try_from_slice_unchecked0B8_
FNDA:0,_RNCNvYNtNtCsajGmeH7ivRj_19jito_restaking_core3ncn3NcnNtCseDWUOs34kej_13jito_bytemuck18AccountDeserialize24try_from_slice_unchecked0B8_
FNDA:0,_RNCNvYNtNtCsajGmeH7ivRj_19jito_restaking_core8operator8OperatorNtCseDWUOs34kej_13jito_bytemuck18AccountDeserialize24try_from_slice_unchecked0B8_
FNDA:1114,_RNvYNtNtCsajGmeH7ivRj_19jito_restaking_core3ncn3NcnNtCseDWUOs34kej_13jito_bytemuck18AccountDeserialize24try_from_slice_uncheckedB6_
FNDA:1301,_RNvYNtNtCsajGmeH7ivRj_19jito_restaking_core8operator8OperatorNtCseDWUOs34kej_13jito_bytemuck18AccountDeserialize24try_from_slice_uncheckedB6_
FNDA:96,_RNvYNtNtCsxEYeSIDwsG_15jito_vault_core26vault_update_state_tracker23VaultUpdateStateTrackerNtCseDWUOs34kej_13jito_bytemuck18AccountDeserialize24try_from_slice_uncheckedCsedjIw1RBnMI_18jito_vault_program
FNDA:218,_RNvYNtNtCsxEYeSIDwsG_15jito_vault_core26vault_update_state_tracker23VaultUpdateStateTrackerNtCseDWUOs34kej_13jito_bytemuck18AccountDeserialize28try_from_slice_unchecked_mutCsedjIw1RBnMI_18jito_vault_program
FNDA:0,_RNCNvYNtNtCsajGmeH7ivRj_19jito_restaking_core24ncn_vault_slasher_ticket21NcnVaultSlasherTicketNtCseDWUOs34kej_13jito_bytemuck18AccountDeserialize24try_from_slice_unchecked0CsedjIw1RBnMI_18jito_vault_program
FNDA:0,_RNCNvYNtNtCsxEYeSIDwsG_15jito_vault_core16vault_ncn_ticket14VaultNcnTicketNtCseDWUOs34kej_13jito_bytemuck18AccountDeserialize28try_from_slice_unchecked_mut0CsedjIw1RBnMI_18jito_vault_program
FNDA:0,_RNCNvYNtNtCsxEYeSIDwsG_15jito_vault_core24vault_ncn_slasher_ticket21VaultNcnSlasherTicketNtCseDWUOs34kej_13jito_bytemuck18AccountDeserialize28try_from_slice_unchecked_mut0CsedjIw1RBnMI_18jito_vault_program
FNDA:0,_RNCNvYNtNtCsxEYeSIDwsG_15jito_vault_core25vault_operator_delegation23VaultOperatorDelegationNtCseDWUOs34kej_13jito_bytemuck18AccountDeserialize28try_from_slice_unchecked_mut0CsedjIw1RBnMI_18jito_vault_program
FNDA:0,_RNCNvYNtNtCsxEYeSIDwsG_15jito_vault_core26vault_update_state_tracker23VaultUpdateStateTrackerNtCseDWUOs34kej_13jito_bytemuck18AccountDeserialize24try_from_slice_unchecked0CsedjIw1RBnMI_18jito_vault_program
FNDA:0,_RNCNvYNtNtCsxEYeSIDwsG_15jito_vault_core26vault_update_state_tracker23VaultUpdateStateTrackerNtCseDWUOs34kej_13jito_bytemuck18AccountDeserialize28try_from_slice_unchecked_mut0CsedjIw1RBnMI_18jito_vault_program
FNDA:0,_RNCNvYNtNtCsxEYeSIDwsG_15jito_vault_core30vault_staker_withdrawal_ticket27VaultStakerWithdrawalTicketNtCseDWUOs34kej_13jito_bytemuck18AccountDeserialize28try_from_slice_unchecked_mut0CsedjIw1RBnMI_18jito_vault_program
FNDA:0,_RNCNvYNtNtCsxEYeSIDwsG_15jito_vault_core33vault_ncn_slasher_operator_ticket29VaultNcnSlasherOperatorTicketNtCseDWUOs34kej_13jito_bytemuck18AccountDeserialize28try_from_slice_unchecked_mut0CsedjIw1RBnMI_18jito_vault_program
FNDA:0,_RNCNvYNtNtCsxEYeSIDwsG_15jito_vault_core5vault5VaultNtCseDWUOs34kej_13jito_bytemuck18AccountDeserialize28try_from_slice_unchecked_mut0CsedjIw1RBnMI_18jito_vault_program
FNDA:0,_RNCNvYNtNtCsxEYeSIDwsG_15jito_vault_core6config6ConfigNtCseDWUOs34kej_13jito_bytemuck18AccountDeserialize24try_from_slice_unchecked0CsedjIw1RBnMI_18jito_vault_program
FNDA:0,_RNCNvYNtNtCsxEYeSIDwsG_15jito_vault_core6config6ConfigNtCseDWUOs34kej_13jito_bytemuck18AccountDeserialize28try_from_slice_unchecked_mut0CsedjIw1RBnMI_18jito_vault_program
FNDA:1090,_RNvYNtNtCsxEYeSIDwsG_15jito_vault_core6config6ConfigNtCseDWUOs34kej_13jito_bytemuck18AccountDeserialize24try_from_slice_uncheckedCsedjIw1RBnMI_18jito_vault_program
FNDA:440,_RNvYNtNtCsxEYeSIDwsG_15jito_vault_core6config6ConfigNtCseDWUOs34kej_13jito_bytemuck18AccountDeserialize28try_from_slice_unchecked_mutCsedjIw1RBnMI_18jito_vault_program
FNDA:199,_RNvYNtNtCsxEYeSIDwsG_15jito_vault_core16vault_ncn_ticket14VaultNcnTicketNtCseDWUOs34kej_13jito_bytemuck18AccountDeserialize28try_from_slice_unchecked_mutCsedjIw1RBnMI_18jito_vault_program
FNDA:3,_RNvYNtNtCsajGmeH7ivRj_19jito_restaking_core24ncn_vault_slasher_ticket21NcnVaultSlasherTicketNtCseDWUOs34kej_13jito_bytemuck18AccountDeserialize24try_from_slice_uncheckedCsedjIw1RBnMI_18jito_vault_program
FNDA:320,_RNvYNtNtCsxEYeSIDwsG_15jito_vault_core25vault_operator_delegation23VaultOperatorDelegationNtCseDWUOs34kej_13jito_bytemuck18AccountDeserialize28try_from_slice_unchecked_mutCsedjIw1RBnMI_18jito_vault_program
FNDA:0,_RNvYNtNtCsxEYeSIDwsG_15jito_vault_core33vault_ncn_slasher_operator_ticket29VaultNcnSlasherOperatorTicketNtCseDWUOs34kej_13jito_bytemuck18AccountDeserialize28try_from_slice_unchecked_mutCsedjIw1RBnMI_18jito_vault_program
FNDA:2,_RNvYNtNtCsxEYeSIDwsG_15jito_vault_core24vault_ncn_slasher_ticket21VaultNcnSlasherTicketNtCseDWUOs34kej_13jito_bytemuck18AccountDeserialize28try_from_slice_unchecked_mutCsedjIw1RBnMI_18jito_vault_program
FNDA:34,_RNvYNtNtCsxEYeSIDwsG_15jito_vault_core30vault_staker_withdrawal_ticket27VaultStakerWithdrawalTicketNtCseDWUOs34kej_13jito_bytemuck18AccountDeserialize28try_from_slice_unchecked_mutCsedjIw1RBnMI_18jito_vault_program
FNDA:1136,_RNvYNtNtCsxEYeSIDwsG_15jito_vault_core5vault5VaultNtCseDWUOs34kej_13jito_bytemuck18AccountDeserialize28try_from_slice_unchecked_mutCsedjIw1RBnMI_18jito_vault_program
FNDA:0,_RNCNvYNtNtCsajGmeH7ivRj_19jito_restaking_core16ncn_vault_ticket14NcnVaultTicketNtCseDWUOs34kej_13jito_bytemuck18AccountDeserialize24try_from_slice_unchecked0Cs8pyYBcdFHSq_5tests
FNDA:0,_RNCNvYNtNtCsajGmeH7ivRj_19jito_restaking_core18ncn_operator_state16NcnOperatorStateNtCseDWUOs34kej_13jito_bytemuck18AccountDeserialize24try_from_slice_unchecked0Cs8pyYBcdFHSq_5tests
FNDA:0,_RNCNvYNtNtCsajGmeH7ivRj_19jito_restaking_core21operator_vault_ticket19OperatorVaultTicketNtCseDWUOs34kej_13jito_bytemuck18AccountDeserialize24try_from_slice_unchecked0Cs8pyYBcdFHSq_5tests
FNDA:0,_RNCNvYNtNtCsxEYeSIDwsG_15jito_vault_core16vault_ncn_ticket14VaultNcnTicketNtCseDWUOs34kej_13jito_bytemuck18AccountDeserialize24try_from_slice_unchecked0Cs8pyYBcdFHSq_5tests
FNDA:0,_RNCNvYNtNtCsxEYeSIDwsG_15jito_vault_core24vault_ncn_slasher_ticket21VaultNcnSlasherTicketNtCseDWUOs34kej_13jito_bytemuck18AccountDeserialize24try_from_slice_unchecked0Cs8pyYBcdFHSq_5tests
FNDA:0,_RNCNvYNtNtCsxEYeSIDwsG_15jito_vault_core25vault_operator_delegation23VaultOperatorDelegationNtCseDWUOs34kej_13jito_bytemuck18AccountDeserialize24try_from_slice_unchecked0Cs8pyYBcdFHSq_5tests
FNDA:1,_RNvYNtNtCsajGmeH7ivRj_19jito_restaking_core21operator_vault_ticket19OperatorVaultTicketNtCseDWUOs34kej_13jito_bytemuck18AccountDeserialize24try_from_slice_uncheckedCs8pyYBcdFHSq_5tests
FNDA:11,_RNvYNtNtCsxEYeSIDwsG_15jito_vault_core16vault_ncn_ticket14VaultNcnTicketNtCseDWUOs34kej_13jito_bytemuck18AccountDeserialize24try_from_slice_uncheckedCs8pyYBcdFHSq_5tests
FNDA:5,_RNvYNtNtCsajGmeH7ivRj_19jito_restaking_core18ncn_operator_state16NcnOperatorStateNtCseDWUOs34kej_13jito_bytemuck18AccountDeserialize24try_from_slice_uncheckedCs8pyYBcdFHSq_5tests
FNDA:1,_RNvYNtNtCsajGmeH7ivRj_19jito_restaking_core16ncn_vault_ticket14NcnVaultTicketNtCseDWUOs34kej_13jito_bytemuck18AccountDeserialize24try_from_slice_uncheckedCs8pyYBcdFHSq_5tests
FNDA:8,_RNvYNtNtCsxEYeSIDwsG_15jito_vault_core25vault_operator_delegation23VaultOperatorDelegationNtCseDWUOs34kej_13jito_bytemuck18AccountDeserialize24try_from_slice_uncheckedCs8pyYBcdFHSq_5tests
FNDA:1,_RNvYNtNtCsxEYeSIDwsG_15jito_vault_core24vault_ncn_slasher_ticket21VaultNcnSlasherTicketNtCseDWUOs34kej_13jito_bytemuck18AccountDeserialize24try_from_slice_uncheckedCs8pyYBcdFHSq_5tests
FNF:4
FNH:2
DA:23,6287
DA:24,6287
DA:25,0
DA:26,0
DA:27,0
DA:28,0
DA:29,0
DA:30,0
DA:31,6287
DA:32,6287
DA:33,6287
DA:44,4866
DA:45,4866
DA:46,0
DA:47,0
DA:48,0
DA:49,0
DA:50,0
DA:51,0
DA:52,4866
DA:53,4866
DA:54,4866
BRF:0
BRH:0
LF:24
LH:10
end_of_record
SF:/Users/coach/Documents/Jito/restaking/bytemuck/src/types.rs
FN:38,_RNvNCNvNtCsRnocW71Q7D_13jito_bytemuck5types1__05check
FN:38,_RINvNvNCNvNtCsRnocW71Q7D_13jito_bytemuck5types1__05check11assert_implpEBa_
FN:38,_RNvNCNvNtCsRnocW71Q7D_13jito_bytemuck5typess_1__05check
FN:38,_RINvNvNCNvNtCsRnocW71Q7D_13jito_bytemuck5typess_1__05check11assert_implpEBa_
FN:50,_RNvNCNvNtCsRnocW71Q7D_13jito_bytemuck5typess0_1__05check
FN:50,_RINvNvNCNvNtCsRnocW71Q7D_13jito_bytemuck5typess0_1__05check11assert_implpEBa_
FN:50,_RNvNCNvNtCsRnocW71Q7D_13jito_bytemuck5typess1_1__05check
FN:50,_RINvNvNCNvNtCsRnocW71Q7D_13jito_bytemuck5typess1_1__05check11assert_implpEBa_
FN:62,_RNvNCNvNtCsRnocW71Q7D_13jito_bytemuck5typess2_1__05check
FN:62,_RINvNvNCNvNtCsRnocW71Q7D_13jito_bytemuck5typess2_1__05check11assert_implpEBa_
FN:62,_RNvNCNvNtCsRnocW71Q7D_13jito_bytemuck5typess3_1__05check
FN:62,_RINvNvNCNvNtCsRnocW71Q7D_13jito_bytemuck5typess3_1__05check11assert_implpEBa_
FN:74,_RNvNCNvNtCsRnocW71Q7D_13jito_bytemuck5typess4_1__05check
FN:74,_RINvNvNCNvNtCsRnocW71Q7D_13jito_bytemuck5typess4_1__05check11assert_implpEBa_
FN:74,_RNvNCNvNtCsRnocW71Q7D_13jito_bytemuck5typess5_1__05check
FN:74,_RINvNvNCNvNtCsRnocW71Q7D_13jito_bytemuck5typess5_1__05check11assert_implpEBa_
FN:85,_RNvNCNvNtCsRnocW71Q7D_13jito_bytemuck5typess6_1__05check
FN:85,_RINvNvNCNvNtCsRnocW71Q7D_13jito_bytemuck5typess6_1__05check11assert_implpEBa_
FN:85,_RNvNCNvNtCsRnocW71Q7D_13jito_bytemuck5typess7_1__05check
FN:85,_RINvNvNCNvNtCsRnocW71Q7D_13jito_bytemuck5typess7_1__05check11assert_implpEBa_
FN:43,_RNvXNtCsRnocW71Q7D_13jito_bytemuck5typesNtB2_6PodU16NtNtCs2ke5FKHNm4X_4core3fmt5Debug3fmt
FN:55,_RNvXs_NtCsRnocW71Q7D_13jito_bytemuck5typesNtB4_6PodU32NtNtCs2ke5FKHNm4X_4core3fmt5Debug3fmt
FN:67,_RNvXs0_NtCsRnocW71Q7D_13jito_bytemuck5typesNtB5_6PodU64NtNtCs2ke5FKHNm4X_4core3fmt5Debug3fmt
FN:79,_RNvXs1_NtCsRnocW71Q7D_13jito_bytemuck5typesNtB5_7PodU128NtNtCs2ke5FKHNm4X_4core3fmt5Debug3fmt
FN:90,_RNvMs2_NtCsRnocW71Q7D_13jito_bytemuck5typesNtB5_7PodBool9from_bool
FN:96,_RNvXs3_NtCsRnocW71Q7D_13jito_bytemuck5typesNtB5_7PodBoolINtNtCs2ke5FKHNm4X_4core7convert4FrombE4from
FN:102,_RNvXs4_NtCsRnocW71Q7D_13jito_bytemuck5typesNtB5_7PodBoolINtNtCs2ke5FKHNm4X_4core7convert4FromRbE4from
FN:108,_RNvXs5_NtCsRnocW71Q7D_13jito_bytemuck5typesbINtNtCs2ke5FKHNm4X_4core7convert4FromRNtB5_7PodBoolE4from
FN:114,_RNvXs6_NtCsRnocW71Q7D_13jito_bytemuck5typesbINtNtCs2ke5FKHNm4X_4core7convert4FromNtB5_7PodBoolE4from
FN:120,_RNvXs7_NtCsRnocW71Q7D_13jito_bytemuck5typesNtB5_7PodBoolNtNtCs2ke5FKHNm4X_4core3fmt5Debug3fmt
FN:15,_RNvXsg_NtCsRnocW71Q7D_13jito_bytemuck5typesNtB5_6PodU16INtNtCs2ke5FKHNm4X_4core7convert4FromtE4from
FN:20,_RNvXsh_NtCsRnocW71Q7D_13jito_bytemuck5typesNtB5_6PodU16INtNtCs2ke5FKHNm4X_4core7convert4FromRtE4from
FN:25,_RNvXsi_NtCsRnocW71Q7D_13jito_bytemuck5typestINtNtCs2ke5FKHNm4X_4core7convert4FromNtB5_6PodU16E4from
FN:30,_RNvXsj_NtCsRnocW71Q7D_13jito_bytemuck5typestINtNtCs2ke5FKHNm4X_4core7convert4FromRNtB5_6PodU16E4from
FN:15,_RNvXss_NtCsRnocW71Q7D_13jito_bytemuck5typesNtB5_6PodU32INtNtCs2ke5FKHNm4X_4core7convert4FrommE4from
FN:20,_RNvXst_NtCsRnocW71Q7D_13jito_bytemuck5typesNtB5_6PodU32INtNtCs2ke5FKHNm4X_4core7convert4FromRmE4from
FN:25,_RNvXsu_NtCsRnocW71Q7D_13jito_bytemuck5typesmINtNtCs2ke5FKHNm4X_4core7convert4FromNtB5_6PodU32E4from
FN:30,_RNvXsv_NtCsRnocW71Q7D_13jito_bytemuck5typesmINtNtCs2ke5FKHNm4X_4core7convert4FromRNtB5_6PodU32E4from
FN:15,_RNvXsE_NtCsRnocW71Q7D_13jito_bytemuck5typesNtB5_6PodU64INtNtCs2ke5FKHNm4X_4core7convert4FromyE4from
FN:20,_RNvXsF_NtCsRnocW71Q7D_13jito_bytemuck5typesNtB5_6PodU64INtNtCs2ke5FKHNm4X_4core7convert4FromRyE4from
FN:25,_RNvXsG_NtCsRnocW71Q7D_13jito_bytemuck5typesyINtNtCs2ke5FKHNm4X_4core7convert4FromNtB5_6PodU64E4from
FN:30,_RNvXsH_NtCsRnocW71Q7D_13jito_bytemuck5typesyINtNtCs2ke5FKHNm4X_4core7convert4FromRNtB5_6PodU64E4from
FN:15,_RNvXsQ_NtCsRnocW71Q7D_13jito_bytemuck5typesNtB5_7PodU128INtNtCs2ke5FKHNm4X_4core7convert4FromoE4from
FN:20,_RNvXsR_NtCsRnocW71Q7D_13jito_bytemuck5typesNtB5_7PodU128INtNtCs2ke5FKHNm4X_4core7convert4FromRoE4from
FN:25,_RNvXsS_NtCsRnocW71Q7D_13jito_bytemuck5typesoINtNtCs2ke5FKHNm4X_4core7convert4FromNtB5_7PodU128E4from
FN:30,_RNvXsT_NtCsRnocW71Q7D_13jito_bytemuck5typesoINtNtCs2ke5FKHNm4X_4core7convert4FromRNtB5_7PodU128E4from
FN:276,_RINvNvNtNtCsRnocW71Q7D_13jito_bytemuck5types5testss_19test_pod_properties10assert_podNtB6_6PodU16EB8_
FN:276,_RINvNvNtNtCsRnocW71Q7D_13jito_bytemuck5types5testss_19test_pod_properties10assert_podNtB6_6PodU32EB8_
FN:276,_RINvNvNtNtCsRnocW71Q7D_13jito_bytemuck5types5testss_19test_pod_properties10assert_podNtB6_6PodU64EB8_
FN:276,_RINvNvNtNtCsRnocW71Q7D_13jito_bytemuck5types5testss_19test_pod_properties10assert_podNtB6_7PodBoolEB8_
FN:276,_RINvNvNtNtCsRnocW71Q7D_13jito_bytemuck5types5testss_19test_pod_properties10assert_podNtB6_7PodU128EB8_
FN:38,_RNCNvNtCsRnocW71Q7D_13jito_bytemuck5types1__0B5_
FN:38,_RNCNvNtCsRnocW71Q7D_13jito_bytemuck5typess_1__0B5_
FN:50,_RNCNvNtCsRnocW71Q7D_13jito_bytemuck5typess0_1__0B5_
FN:50,_RNCNvNtCsRnocW71Q7D_13jito_bytemuck5typess1_1__0B5_
FN:62,_RNCNvNtCsRnocW71Q7D_13jito_bytemuck5typess2_1__0B5_
FN:62,_RNCNvNtCsRnocW71Q7D_13jito_bytemuck5typess3_1__0B5_
FN:74,_RNCNvNtCsRnocW71Q7D_13jito_bytemuck5typess4_1__0B5_
FN:74,_RNCNvNtCsRnocW71Q7D_13jito_bytemuck5typess5_1__0B5_
FN:85,_RNCNvNtCsRnocW71Q7D_13jito_bytemuck5typess6_1__0B5_
FN:85,_RNCNvNtCsRnocW71Q7D_13jito_bytemuck5typess7_1__0B5_
FN:131,_RNvNtNtCsRnocW71Q7D_13jito_bytemuck5types5testss_12test_pod_u16
FN:151,_RNvNtNtCsRnocW71Q7D_13jito_bytemuck5types5testss_12test_pod_u32
FN:171,_RNvNtNtCsRnocW71Q7D_13jito_bytemuck5types5testss_12test_pod_u64
FN:191,_RNvNtNtCsRnocW71Q7D_13jito_bytemuck5types5testss_13test_pod_u128
FN:211,_RNvNtNtCsRnocW71Q7D_13jito_bytemuck5types5testss_13test_pod_bool
FN:235,_RNvNtNtCsRnocW71Q7D_13jito_bytemuck5types5testss_21test_debug_formatting
FN:258,_RNvNtNtCsRnocW71Q7D_13jito_bytemuck5types5testss_24test_byte_representation
FN:274,_RNvNtNtCsRnocW71Q7D_13jito_bytemuck5types5testss_19test_pod_properties
FN:43,_RNvXNtCseDWUOs34kej_13jito_bytemuck5typesNtB2_6PodU16NtNtCs2ke5FKHNm4X_4core3fmt5Debug3fmt
FN:55,_RNvXs_NtCseDWUOs34kej_13jito_bytemuck5typesNtB4_6PodU32NtNtCs2ke5FKHNm4X_4core3fmt5Debug3fmt
FN:67,_RNvXs0_NtCseDWUOs34kej_13jito_bytemuck5typesNtB5_6PodU64NtNtCs2ke5FKHNm4X_4core3fmt5Debug3fmt
FN:79,_RNvXs1_NtCseDWUOs34kej_13jito_bytemuck5typesNtB5_7PodU128NtNtCs2ke5FKHNm4X_4core3fmt5Debug3fmt
FN:90,_RNvMs2_NtCseDWUOs34kej_13jito_bytemuck5typesNtB5_7PodBool9from_bool
FN:96,_RNvXs3_NtCseDWUOs34kej_13jito_bytemuck5typesNtB5_7PodBoolINtNtCs2ke5FKHNm4X_4core7convert4FrombE4from
FN:102,_RNvXs4_NtCseDWUOs34kej_13jito_bytemuck5typesNtB5_7PodBoolINtNtCs2ke5FKHNm4X_4core7convert4FromRbE4from
FN:108,_RNvXs5_NtCseDWUOs34kej_13jito_bytemuck5typesbINtNtCs2ke5FKHNm4X_4core7convert4FromRNtB5_7PodBoolE4from
FN:114,_RNvXs6_NtCseDWUOs34kej_13jito_bytemuck5typesbINtNtCs2ke5FKHNm4X_4core7convert4FromNtB5_7PodBoolE4from
FN:120,_RNvXs7_NtCseDWUOs34kej_13jito_bytemuck5typesNtB5_7PodBoolNtNtCs2ke5FKHNm4X_4core3fmt5Debug3fmt
FN:15,_RNvXsg_NtCseDWUOs34kej_13jito_bytemuck5typesNtB5_6PodU16INtNtCs2ke5FKHNm4X_4core7convert4FromtE4from
FN:20,_RNvXsh_NtCseDWUOs34kej_13jito_bytemuck5typesNtB5_6PodU16INtNtCs2ke5FKHNm4X_4core7convert4FromRtE4from
FN:25,_RNvXsi_NtCseDWUOs34kej_13jito_bytemuck5typestINtNtCs2ke5FKHNm4X_4core7convert4FromNtB5_6PodU16E4from
FN:30,_RNvXsj_NtCseDWUOs34kej_13jito_bytemuck5typestINtNtCs2ke5FKHNm4X_4core7convert4FromRNtB5_6PodU16E4from
FN:15,_RNvXss_NtCseDWUOs34kej_13jito_bytemuck5typesNtB5_6PodU32INtNtCs2ke5FKHNm4X_4core7convert4FrommE4from
FN:20,_RNvXst_NtCseDWUOs34kej_13jito_bytemuck5typesNtB5_6PodU32INtNtCs2ke5FKHNm4X_4core7convert4FromRmE4from
FN:25,_RNvXsu_NtCseDWUOs34kej_13jito_bytemuck5typesmINtNtCs2ke5FKHNm4X_4core7convert4FromNtB5_6PodU32E4from
FN:30,_RNvXsv_NtCseDWUOs34kej_13jito_bytemuck5typesmINtNtCs2ke5FKHNm4X_4core7convert4FromRNtB5_6PodU32E4from
FN:15,_RNvXsE_NtCseDWUOs34kej_13jito_bytemuck5typesNtB5_6PodU64INtNtCs2ke5FKHNm4X_4core7convert4FromyE4from
FN:20,_RNvXsF_NtCseDWUOs34kej_13jito_bytemuck5typesNtB5_6PodU64INtNtCs2ke5FKHNm4X_4core7convert4FromRyE4from
FN:25,_RNvXsG_NtCseDWUOs34kej_13jito_bytemuck5typesyINtNtCs2ke5FKHNm4X_4core7convert4FromNtB5_6PodU64E4from
FN:30,_RNvXsH_NtCseDWUOs34kej_13jito_bytemuck5typesyINtNtCs2ke5FKHNm4X_4core7convert4FromRNtB5_6PodU64E4from
FN:15,_RNvXsQ_NtCseDWUOs34kej_13jito_bytemuck5typesNtB5_7PodU128INtNtCs2ke5FKHNm4X_4core7convert4FromoE4from
FN:20,_RNvXsR_NtCseDWUOs34kej_13jito_bytemuck5typesNtB5_7PodU128INtNtCs2ke5FKHNm4X_4core7convert4FromRoE4from
FN:25,_RNvXsS_NtCseDWUOs34kej_13jito_bytemuck5typesoINtNtCs2ke5FKHNm4X_4core7convert4FromNtB5_7PodU128E4from
FN:30,_RNvXsT_NtCseDWUOs34kej_13jito_bytemuck5typesoINtNtCs2ke5FKHNm4X_4core7convert4FromRNtB5_7PodU128E4from
FN:38,_RNvNCNvNtCseDWUOs34kej_13jito_bytemuck5types1__05check
FN:38,_RINvNvNCNvNtCseDWUOs34kej_13jito_bytemuck5types1__05check11assert_implpEBa_
FN:38,_RNvNCNvNtCseDWUOs34kej_13jito_bytemuck5typess_1__05check
FN:38,_RINvNvNCNvNtCseDWUOs34kej_13jito_bytemuck5typess_1__05check11assert_implpEBa_
FN:50,_RNvNCNvNtCseDWUOs34kej_13jito_bytemuck5typess0_1__05check
FN:50,_RINvNvNCNvNtCseDWUOs34kej_13jito_bytemuck5typess0_1__05check11assert_implpEBa_
FN:50,_RNvNCNvNtCseDWUOs34kej_13jito_bytemuck5typess1_1__05check
FN:50,_RINvNvNCNvNtCseDWUOs34kej_13jito_bytemuck5typess1_1__05check11assert_implpEBa_
FN:62,_RNvNCNvNtCseDWUOs34kej_13jito_bytemuck5typess2_1__05check
FN:62,_RINvNvNCNvNtCseDWUOs34kej_13jito_bytemuck5typess2_1__05check11assert_implpEBa_
FN:62,_RNvNCNvNtCseDWUOs34kej_13jito_bytemuck5typess3_1__05check
FN:62,_RINvNvNCNvNtCseDWUOs34kej_13jito_bytemuck5typess3_1__05check11assert_implpEBa_
FN:74,_RNvNCNvNtCseDWUOs34kej_13jito_bytemuck5typess4_1__05check
FN:74,_RINvNvNCNvNtCseDWUOs34kej_13jito_bytemuck5typess4_1__05check11assert_implpEBa_
FN:74,_RNvNCNvNtCseDWUOs34kej_13jito_bytemuck5typess5_1__05check
FN:74,_RINvNvNCNvNtCseDWUOs34kej_13jito_bytemuck5typess5_1__05check11assert_implpEBa_
FN:85,_RNvNCNvNtCseDWUOs34kej_13jito_bytemuck5typess6_1__05check
FN:85,_RINvNvNCNvNtCseDWUOs34kej_13jito_bytemuck5typess6_1__05check11assert_implpEBa_
FN:85,_RNvNCNvNtCseDWUOs34kej_13jito_bytemuck5typess7_1__05check
FN:85,_RINvNvNCNvNtCseDWUOs34kej_13jito_bytemuck5typess7_1__05check11assert_implpEBa_
FNDA:0,_RNvNCNvNtCsRnocW71Q7D_13jito_bytemuck5types1__05check
FNDA:0,_RINvNvNCNvNtCsRnocW71Q7D_13jito_bytemuck5types1__05check11assert_implpEBa_
FNDA:0,_RNvNCNvNtCsRnocW71Q7D_13jito_bytemuck5typess_1__05check
FNDA:0,_RINvNvNCNvNtCsRnocW71Q7D_13jito_bytemuck5typess_1__05check11assert_implpEBa_
FNDA:0,_RNvNCNvNtCsRnocW71Q7D_13jito_bytemuck5typess0_1__05check
FNDA:0,_RINvNvNCNvNtCsRnocW71Q7D_13jito_bytemuck5typess0_1__05check11assert_implpEBa_
FNDA:0,_RNvNCNvNtCsRnocW71Q7D_13jito_bytemuck5typess1_1__05check
FNDA:0,_RINvNvNCNvNtCsRnocW71Q7D_13jito_bytemuck5typess1_1__05check11assert_implpEBa_
FNDA:0,_RNvNCNvNtCsRnocW71Q7D_13jito_bytemuck5typess2_1__05check
FNDA:0,_RINvNvNCNvNtCsRnocW71Q7D_13jito_bytemuck5typess2_1__05check11assert_implpEBa_
FNDA:0,_RNvNCNvNtCsRnocW71Q7D_13jito_bytemuck5typess3_1__05check
FNDA:0,_RINvNvNCNvNtCsRnocW71Q7D_13jito_bytemuck5typess3_1__05check11assert_implpEBa_
FNDA:0,_RNvNCNvNtCsRnocW71Q7D_13jito_bytemuck5typess4_1__05check
FNDA:0,_RINvNvNCNvNtCsRnocW71Q7D_13jito_bytemuck5typess4_1__05check11assert_implpEBa_
FNDA:0,_RNvNCNvNtCsRnocW71Q7D_13jito_bytemuck5typess5_1__05check
FNDA:0,_RINvNvNCNvNtCsRnocW71Q7D_13jito_bytemuck5typess5_1__05check11assert_implpEBa_
FNDA:0,_RNvNCNvNtCsRnocW71Q7D_13jito_bytemuck5typess6_1__05check
FNDA:0,_RINvNvNCNvNtCsRnocW71Q7D_13jito_bytemuck5typess6_1__05check11assert_implpEBa_
FNDA:0,_RNvNCNvNtCsRnocW71Q7D_13jito_bytemuck5typess7_1__05check
FNDA:0,_RINvNvNCNvNtCsRnocW71Q7D_13jito_bytemuck5typess7_1__05check11assert_implpEBa_
FNDA:1,_RNvXNtCsRnocW71Q7D_13jito_bytemuck5typesNtB2_6PodU16NtNtCs2ke5FKHNm4X_4core3fmt5Debug3fmt
FNDA:1,_RNvXs_NtCsRnocW71Q7D_13jito_bytemuck5typesNtB4_6PodU32NtNtCs2ke5FKHNm4X_4core3fmt5Debug3fmt
FNDA:1,_RNvXs0_NtCsRnocW71Q7D_13jito_bytemuck5typesNtB5_6PodU64NtNtCs2ke5FKHNm4X_4core3fmt5Debug3fmt
FNDA:1,_RNvXs1_NtCsRnocW71Q7D_13jito_bytemuck5typesNtB5_7PodU128NtNtCs2ke5FKHNm4X_4core3fmt5Debug3fmt
FNDA:4,_RNvMs2_NtCsRnocW71Q7D_13jito_bytemuck5typesNtB5_7PodBool9from_bool
FNDA:4,_RNvXs3_NtCsRnocW71Q7D_13jito_bytemuck5typesNtB5_7PodBoolINtNtCs2ke5FKHNm4X_4core7convert4FrombE4from
FNDA:1,_RNvXs4_NtCsRnocW71Q7D_13jito_bytemuck5typesNtB5_7PodBoolINtNtCs2ke5FKHNm4X_4core7convert4FromRbE4from
FNDA:2,_RNvXs5_NtCsRnocW71Q7D_13jito_bytemuck5typesbINtNtCs2ke5FKHNm4X_4core7convert4FromRNtB5_7PodBoolE4from
FNDA:5,_RNvXs6_NtCsRnocW71Q7D_13jito_bytemuck5typesbINtNtCs2ke5FKHNm4X_4core7convert4FromNtB5_7PodBoolE4from
FNDA:2,_RNvXs7_NtCsRnocW71Q7D_13jito_bytemuck5typesNtB5_7PodBoolNtNtCs2ke5FKHNm4X_4core3fmt5Debug3fmt
FNDA:4,_RNvXsg_NtCsRnocW71Q7D_13jito_bytemuck5typesNtB5_6PodU16INtNtCs2ke5FKHNm4X_4core7convert4FromtE4from
FNDA:1,_RNvXsh_NtCsRnocW71Q7D_13jito_bytemuck5typesNtB5_6PodU16INtNtCs2ke5FKHNm4X_4core7convert4FromRtE4from
FNDA:4,_RNvXsi_NtCsRnocW71Q7D_13jito_bytemuck5typestINtNtCs2ke5FKHNm4X_4core7convert4FromNtB5_6PodU16E4from
FNDA:1,_RNvXsj_NtCsRnocW71Q7D_13jito_bytemuck5typestINtNtCs2ke5FKHNm4X_4core7convert4FromRNtB5_6PodU16E4from
FNDA:4,_RNvXss_NtCsRnocW71Q7D_13jito_bytemuck5typesNtB5_6PodU32INtNtCs2ke5FKHNm4X_4core7convert4FrommE4from
FNDA:1,_RNvXst_NtCsRnocW71Q7D_13jito_bytemuck5typesNtB5_6PodU32INtNtCs2ke5FKHNm4X_4core7convert4FromRmE4from
FNDA:4,_RNvXsu_NtCsRnocW71Q7D_13jito_bytemuck5typesmINtNtCs2ke5FKHNm4X_4core7convert4FromNtB5_6PodU32E4from
FNDA:1,_RNvXsv_NtCsRnocW71Q7D_13jito_bytemuck5typesmINtNtCs2ke5FKHNm4X_4core7convert4FromRNtB5_6PodU32E4from
FNDA:4,_RNvXsE_NtCsRnocW71Q7D_13jito_bytemuck5typesNtB5_6PodU64INtNtCs2ke5FKHNm4X_4core7convert4FromyE4from
FNDA:1,_RNvXsF_NtCsRnocW71Q7D_13jito_bytemuck5typesNtB5_6PodU64INtNtCs2ke5FKHNm4X_4core7convert4FromRyE4from
FNDA:4,_RNvXsG_NtCsRnocW71Q7D_13jito_bytemuck5typesyINtNtCs2ke5FKHNm4X_4core7convert4FromNtB5_6PodU64E4from
FNDA:1,_RNvXsH_NtCsRnocW71Q7D_13jito_bytemuck5typesyINtNtCs2ke5FKHNm4X_4core7convert4FromRNtB5_6PodU64E4from
FNDA:3,_RNvXsQ_NtCsRnocW71Q7D_13jito_bytemuck5typesNtB5_7PodU128INtNtCs2ke5FKHNm4X_4core7convert4FromoE4from
FNDA:1,_RNvXsR_NtCsRnocW71Q7D_13jito_bytemuck5typesNtB5_7PodU128INtNtCs2ke5FKHNm4X_4core7convert4FromRoE4from
FNDA:4,_RNvXsS_NtCsRnocW71Q7D_13jito_bytemuck5typesoINtNtCs2ke5FKHNm4X_4core7convert4FromNtB5_7PodU128E4from
FNDA:1,_RNvXsT_NtCsRnocW71Q7D_13jito_bytemuck5typesoINtNtCs2ke5FKHNm4X_4core7convert4FromRNtB5_7PodU128E4from
FNDA:1,_RINvNvNtNtCsRnocW71Q7D_13jito_bytemuck5types5testss_19test_pod_properties10assert_podNtB6_6PodU16EB8_
FNDA:1,_RINvNvNtNtCsRnocW71Q7D_13jito_bytemuck5types5testss_19test_pod_properties10assert_podNtB6_6PodU32EB8_
FNDA:1,_RINvNvNtNtCsRnocW71Q7D_13jito_bytemuck5types5testss_19test_pod_properties10assert_podNtB6_6PodU64EB8_
FNDA:1,_RINvNvNtNtCsRnocW71Q7D_13jito_bytemuck5types5testss_19test_pod_properties10assert_podNtB6_7PodBoolEB8_
FNDA:1,_RINvNvNtNtCsRnocW71Q7D_13jito_bytemuck5types5testss_19test_pod_properties10assert_podNtB6_7PodU128EB8_
FNDA:0,_RNCNvNtCsRnocW71Q7D_13jito_bytemuck5types1__0B5_
FNDA:0,_RNCNvNtCsRnocW71Q7D_13jito_bytemuck5typess_1__0B5_
FNDA:0,_RNCNvNtCsRnocW71Q7D_13jito_bytemuck5typess0_1__0B5_
FNDA:0,_RNCNvNtCsRnocW71Q7D_13jito_bytemuck5typess1_1__0B5_
FNDA:0,_RNCNvNtCsRnocW71Q7D_13jito_bytemuck5typess2_1__0B5_
FNDA:0,_RNCNvNtCsRnocW71Q7D_13jito_bytemuck5typess3_1__0B5_
FNDA:0,_RNCNvNtCsRnocW71Q7D_13jito_bytemuck5typess4_1__0B5_
FNDA:0,_RNCNvNtCsRnocW71Q7D_13jito_bytemuck5typess5_1__0B5_
FNDA:0,_RNCNvNtCsRnocW71Q7D_13jito_bytemuck5typess6_1__0B5_
FNDA:0,_RNCNvNtCsRnocW71Q7D_13jito_bytemuck5typess7_1__0B5_
FNDA:1,_RNvNtNtCsRnocW71Q7D_13jito_bytemuck5types5testss_12test_pod_u16
FNDA:1,_RNvNtNtCsRnocW71Q7D_13jito_bytemuck5types5testss_12test_pod_u32
FNDA:1,_RNvNtNtCsRnocW71Q7D_13jito_bytemuck5types5testss_12test_pod_u64
FNDA:1,_RNvNtNtCsRnocW71Q7D_13jito_bytemuck5types5testss_13test_pod_u128
FNDA:1,_RNvNtNtCsRnocW71Q7D_13jito_bytemuck5types5testss_13test_pod_bool
FNDA:1,_RNvNtNtCsRnocW71Q7D_13jito_bytemuck5types5testss_21test_debug_formatting
FNDA:1,_RNvNtNtCsRnocW71Q7D_13jito_bytemuck5types5testss_24test_byte_representation
FNDA:1,_RNvNtNtCsRnocW71Q7D_13jito_bytemuck5types5testss_19test_pod_properties
FNDA:0,_RNvXNtCseDWUOs34kej_13jito_bytemuck5typesNtB2_6PodU16NtNtCs2ke5FKHNm4X_4core3fmt5Debug3fmt
FNDA:0,_RNvXs_NtCseDWUOs34kej_13jito_bytemuck5typesNtB4_6PodU32NtNtCs2ke5FKHNm4X_4core3fmt5Debug3fmt
FNDA:0,_RNvXs0_NtCseDWUOs34kej_13jito_bytemuck5typesNtB5_6PodU64NtNtCs2ke5FKHNm4X_4core3fmt5Debug3fmt
FNDA:0,_RNvXs1_NtCseDWUOs34kej_13jito_bytemuck5typesNtB5_7PodU128NtNtCs2ke5FKHNm4X_4core3fmt5Debug3fmt
FNDA:296,_RNvMs2_NtCseDWUOs34kej_13jito_bytemuck5typesNtB5_7PodBool9from_bool
FNDA:0,_RNvXs3_NtCseDWUOs34kej_13jito_bytemuck5typesNtB5_7PodBoolINtNtCs2ke5FKHNm4X_4core7convert4FrombE4from
FNDA:0,_RNvXs4_NtCseDWUOs34kej_13jito_bytemuck5typesNtB5_7PodBoolINtNtCs2ke5FKHNm4X_4core7convert4FromRbE4from
FNDA:0,_RNvXs5_NtCseDWUOs34kej_13jito_bytemuck5typesbINtNtCs2ke5FKHNm4X_4core7convert4FromRNtB5_7PodBoolE4from
FNDA:933,_RNvXs6_NtCseDWUOs34kej_13jito_bytemuck5typesbINtNtCs2ke5FKHNm4X_4core7convert4FromNtB5_7PodBoolE4from
FNDA:0,_RNvXs7_NtCseDWUOs34kej_13jito_bytemuck5typesNtB5_7PodBoolNtNtCs2ke5FKHNm4X_4core3fmt5Debug3fmt
FNDA:2682,_RNvXsg_NtCseDWUOs34kej_13jito_bytemuck5typesNtB5_6PodU16INtNtCs2ke5FKHNm4X_4core7convert4FromtE4from
FNDA:0,_RNvXsh_NtCseDWUOs34kej_13jito_bytemuck5typesNtB5_6PodU16INtNtCs2ke5FKHNm4X_4core7convert4FromRtE4from
FNDA:1624,_RNvXsi_NtCseDWUOs34kej_13jito_bytemuck5typestINtNtCs2ke5FKHNm4X_4core7convert4FromNtB5_6PodU16E4from
FNDA:0,_RNvXsj_NtCseDWUOs34kej_13jito_bytemuck5typestINtNtCs2ke5FKHNm4X_4core7convert4FromRNtB5_6PodU16E4from
FNDA:0,_RNvXss_NtCseDWUOs34kej_13jito_bytemuck5typesNtB5_6PodU32INtNtCs2ke5FKHNm4X_4core7convert4FrommE4from
FNDA:0,_RNvXst_NtCseDWUOs34kej_13jito_bytemuck5typesNtB5_6PodU32INtNtCs2ke5FKHNm4X_4core7convert4FromRmE4from
FNDA:0,_RNvXsu_NtCseDWUOs34kej_13jito_bytemuck5typesmINtNtCs2ke5FKHNm4X_4core7convert4FromNtB5_6PodU32E4from
FNDA:0,_RNvXsv_NtCseDWUOs34kej_13jito_bytemuck5typesmINtNtCs2ke5FKHNm4X_4core7convert4FromRNtB5_6PodU32E4from
FNDA:14816,_RNvXsE_NtCseDWUOs34kej_13jito_bytemuck5typesNtB5_6PodU64INtNtCs2ke5FKHNm4X_4core7convert4FromyE4from
FNDA:0,_RNvXsF_NtCseDWUOs34kej_13jito_bytemuck5typesNtB5_6PodU64INtNtCs2ke5FKHNm4X_4core7convert4FromRyE4from
FNDA:14819,_RNvXsG_NtCseDWUOs34kej_13jito_bytemuck5typesyINtNtCs2ke5FKHNm4X_4core7convert4FromNtB5_6PodU64E4from
FNDA:0,_RNvXsH_NtCseDWUOs34kej_13jito_bytemuck5typesyINtNtCs2ke5FKHNm4X_4core7convert4FromRNtB5_6PodU64E4from
FNDA:0,_RNvXsQ_NtCseDWUOs34kej_13jito_bytemuck5typesNtB5_7PodU128INtNtCs2ke5FKHNm4X_4core7convert4FromoE4from
FNDA:0,_RNvXsR_NtCseDWUOs34kej_13jito_bytemuck5typesNtB5_7PodU128INtNtCs2ke5FKHNm4X_4core7convert4FromRoE4from
FNDA:0,_RNvXsS_NtCseDWUOs34kej_13jito_bytemuck5typesoINtNtCs2ke5FKHNm4X_4core7convert4FromNtB5_7PodU128E4from
FNDA:0,_RNvXsT_NtCseDWUOs34kej_13jito_bytemuck5typesoINtNtCs2ke5FKHNm4X_4core7convert4FromRNtB5_7PodU128E4from
FNDA:0,_RNvNCNvNtCseDWUOs34kej_13jito_bytemuck5types1__05check
FNDA:0,_RINvNvNCNvNtCseDWUOs34kej_13jito_bytemuck5types1__05check11assert_implpEBa_
FNDA:0,_RNvNCNvNtCseDWUOs34kej_13jito_bytemuck5typess_1__05check
FNDA:0,_RINvNvNCNvNtCseDWUOs34kej_13jito_bytemuck5typess_1__05check11assert_implpEBa_
FNDA:0,_RNvNCNvNtCseDWUOs34kej_13jito_bytemuck5typess0_1__05check
FNDA:0,_RINvNvNCNvNtCseDWUOs34kej_13jito_bytemuck5typess0_1__05check11assert_implpEBa_
FNDA:0,_RNvNCNvNtCseDWUOs34kej_13jito_bytemuck5typess1_1__05check
FNDA:0,_RINvNvNCNvNtCseDWUOs34kej_13jito_bytemuck5typess1_1__05check11assert_implpEBa_
FNDA:0,_RNvNCNvNtCseDWUOs34kej_13jito_bytemuck5typess2_1__05check
FNDA:0,_RINvNvNCNvNtCseDWUOs34kej_13jito_bytemuck5typess2_1__05check11assert_implpEBa_
FNDA:0,_RNvNCNvNtCseDWUOs34kej_13jito_bytemuck5typess3_1__05check
FNDA:0,_RINvNvNCNvNtCseDWUOs34kej_13jito_bytemuck5typess3_1__05check11assert_implpEBa_
FNDA:0,_RNvNCNvNtCseDWUOs34kej_13jito_bytemuck5typess4_1__05check
FNDA:0,_RINvNvNCNvNtCseDWUOs34kej_13jito_bytemuck5typess4_1__05check11assert_implpEBa_
FNDA:0,_RNvNCNvNtCseDWUOs34kej_13jito_bytemuck5typess5_1__05check
FNDA:0,_RINvNvNCNvNtCseDWUOs34kej_13jito_bytemuck5typess5_1__05check11assert_implpEBa_
FNDA:0,_RNvNCNvNtCseDWUOs34kej_13jito_bytemuck5typess6_1__05check
FNDA:0,_RINvNvNCNvNtCseDWUOs34kej_13jito_bytemuck5typess6_1__05check11assert_implpEBa_
FNDA:0,_RNvNCNvNtCseDWUOs34kej_13jito_bytemuck5typess7_1__05check
FNDA:0,_RINvNvNCNvNtCseDWUOs34kej_13jito_bytemuck5typess7_1__05check11assert_implpEBa_
FNF:28
FNH:23
DA:15,17513
DA:16,17513
DA:17,17513
DA:20,4
DA:21,4
DA:22,4
DA:25,16459
DA:26,16459
DA:27,16459
DA:30,4
DA:31,4
DA:32,4
DA:38,0
DA:43,1
DA:44,1
DA:45,1
DA:46,1
DA:50,0
DA:55,1
DA:56,1
DA:57,1
DA:58,1
DA:62,0
DA:67,1
DA:68,1
DA:69,1
DA:70,1
DA:74,0
DA:79,1
DA:80,1
DA:81,1
DA:82,1
DA:85,0
DA:90,300
DA:91,300
DA:92,300
DA:96,4
DA:97,4
DA:98,4
DA:102,1
DA:103,1
DA:104,1
DA:108,2
DA:109,2
DA:110,2
DA:114,938
DA:115,938
DA:116,938
DA:120,2
DA:121,2
DA:122,2
DA:123,2
DA:131,1
DA:132,1
DA:133,1
DA:134,1
DA:137,1
DA:138,1
DA:139,1
DA:142,1
DA:143,1
DA:146,1
DA:147,1
DA:148,1
DA:151,1
DA:152,1
DA:153,1
DA:154,1
DA:157,1
DA:158,1
DA:159,1
DA:162,1
DA:163,1
DA:166,1
DA:167,1
DA:168,1
DA:171,1
DA:172,1
DA:173,1
DA:174,1
DA:177,1
DA:178,1
DA:179,1
DA:182,1
DA:183,1
DA:186,1
DA:187,1
DA:188,1
DA:191,1
DA:192,1
DA:193,1
DA:194,1
DA:197,1
DA:198,1
DA:199,1
DA:202,1
DA:203,1
DA:206,1
DA:207,1
DA:208,1
DA:211,1
DA:212,1
DA:213,1
DA:214,1
DA:217,1
DA:218,1
DA:221,1
DA:222,1
DA:225,1
DA:226,1
DA:227,1
DA:230,1
DA:231,1
DA:232,1
DA:235,1
DA:236,1
DA:237,1
DA:238,1
DA:239,1
DA:240,1
DA:241,1
DA:242,1
DA:243,1
DA:244,1
DA:245,1
DA:246,1
DA:247,1
DA:248,1
DA:249,1
DA:250,1
DA:251,1
DA:252,1
DA:253,1
DA:254,1
DA:255,1
DA:258,1
DA:259,1
DA:260,1
DA:261,1
DA:262,1
DA:264,1
DA:265,1
DA:266,1
DA:268,1
DA:269,1
DA:270,1
DA:271,1
DA:274,1
DA:275,1
DA:276,5
DA:277,1
DA:278,1
DA:279,1
DA:280,1
DA:281,1
DA:282,1
DA:283,1
BRF:0
BRH:0
LF:158
LH:153
end_of_record
SF:/Users/coach/Documents/Jito/restaking/cli/src/bin/main.rs
FN:19,_RNvCsbrg6XylpgQI_18jito_restaking_cli14get_cli_config
FN:26,_RNCNvCsbrg6XylpgQI_18jito_restaking_cli14get_cli_config0B3_
FN:32,_RNCNvCsbrg6XylpgQI_18jito_restaking_cli14get_cli_configs_0B3_
FN:39,_RNCNvCsbrg6XylpgQI_18jito_restaking_cli14get_cli_configs0_0B3_
FN:56,_RNCNvCsbrg6XylpgQI_18jito_restaking_cli14get_cli_configs1_0B3_
FN:64,_RNCNvCsbrg6XylpgQI_18jito_restaking_cli14get_cli_configs2_0B3_
FN:76,_RNvCsbrg6XylpgQI_18jito_restaking_cli4main
FN:76,_RNCNvCsbrg6XylpgQI_18jito_restaking_cli4main0B3_
FNDA:0,_RNvCsbrg6XylpgQI_18jito_restaking_cli14get_cli_config
FNDA:0,_RNCNvCsbrg6XylpgQI_18jito_restaking_cli14get_cli_config0B3_
FNDA:0,_RNCNvCsbrg6XylpgQI_18jito_restaking_cli14get_cli_configs_0B3_
FNDA:0,_RNCNvCsbrg6XylpgQI_18jito_restaking_cli14get_cli_configs0_0B3_
FNDA:0,_RNCNvCsbrg6XylpgQI_18jito_restaking_cli14get_cli_configs1_0B3_
FNDA:0,_RNCNvCsbrg6XylpgQI_18jito_restaking_cli14get_cli_configs2_0B3_
FNDA:0,_RNvCsbrg6XylpgQI_18jito_restaking_cli4main
FNDA:0,_RNCNvCsbrg6XylpgQI_18jito_restaking_cli4main0B3_
FNF:8
FNH:0
DA:19,0
DA:20,0
DA:21,0
DA:23,0
DA:24,0
DA:26,0
DA:30,0
DA:31,0
DA:32,0
DA:33,0
DA:34,0
DA:35,0
DA:37,0
DA:39,0
DA:40,0
DA:41,0
DA:43,0
DA:47,0
DA:48,0
DA:49,0
DA:53,0
DA:54,0
DA:55,0
DA:56,0
DA:57,0
DA:58,0
DA:59,0
DA:61,0
DA:63,0
DA:64,0
DA:66,0
DA:72,0
DA:73,0
DA:76,0
DA:77,0
DA:78,0
DA:79,0
DA:80,0
DA:81,0
DA:82,0
DA:83,0
DA:84,0
DA:85,0
DA:86,0
DA:87,0
DA:88,0
DA:89,0
DA:90,0
DA:91,0
DA:92,0
DA:93,0
DA:94,0
DA:95,0
DA:96,0
DA:97,0
DA:98,0
DA:99,0
DA:100,0
DA:101,0
DA:102,0
DA:103,0
DA:104,0
DA:105,0
DA:106,0
DA:107,0
DA:108,0
DA:109,0
DA:110,0
DA:111,0
DA:112,0
DA:113,0
DA:114,0
DA:115,0
DA:116,0
DA:117,0
DA:118,0
DA:119,0
DA:120,0
DA:121,0
DA:122,0
DA:123,0
DA:124,0
BRF:0
BRH:0
LF:123
LH:0
end_of_record
SF:/Users/coach/Documents/Jito/restaking/cli/src/cli_args.rs
FN:32,_RNCNvXs0_NtCsig2bDfqTEfX_18jito_restaking_cli8cli_argsNtB7_3CliNtNtCsahdYqEJor9n_12clap_builder6derive14FromArgMatches20from_arg_matches_mut0B9_
FN:35,_RNCNvXs0_NtCsig2bDfqTEfX_18jito_restaking_cli8cli_argsNtB7_3CliNtNtCsahdYqEJor9n_12clap_builder6derive14FromArgMatches20from_arg_matches_muts_0B9_
FN:32,_RNCNvXs0_NtCsig2bDfqTEfX_18jito_restaking_cli8cli_argsNtB7_3CliNtNtCsahdYqEJor9n_12clap_builder6derive14FromArgMatches27update_from_arg_matches_mut0B9_
FN:35,_RNCNvXs0_NtCsig2bDfqTEfX_18jito_restaking_cli8cli_argsNtB7_3CliNtNtCsahdYqEJor9n_12clap_builder6derive14FromArgMatches27update_from_arg_matches_muts_0B9_
FNDA:0,_RNCNvXs0_NtCsig2bDfqTEfX_18jito_restaking_cli8cli_argsNtB7_3CliNtNtCsahdYqEJor9n_12clap_builder6derive14FromArgMatches20from_arg_matches_mut0B9_
FNDA:0,_RNCNvXs0_NtCsig2bDfqTEfX_18jito_restaking_cli8cli_argsNtB7_3CliNtNtCsahdYqEJor9n_12clap_builder6derive14FromArgMatches20from_arg_matches_muts_0B9_
FNDA:0,_RNCNvXs0_NtCsig2bDfqTEfX_18jito_restaking_cli8cli_argsNtB7_3CliNtNtCsahdYqEJor9n_12clap_builder6derive14FromArgMatches27update_from_arg_matches_mut0B9_
FNDA:0,_RNCNvXs0_NtCsig2bDfqTEfX_18jito_restaking_cli8cli_argsNtB7_3CliNtNtCsahdYqEJor9n_12clap_builder6derive14FromArgMatches27update_from_arg_matches_muts_0B9_
FNF:2
FNH:0
DA:32,0
DA:35,0
BRF:0
BRH:0
LF:2
LH:0
end_of_record
SF:/Users/coach/Documents/Jito/restaking/cli/src/log.rs
FN:9,_RNvNtCsig2bDfqTEfX_18jito_restaking_cli3log11init_logger
FN:15,_RNvNtCsig2bDfqTEfX_18jito_restaking_cli3log18format_log_message
FN:31,_RNvNtCsig2bDfqTEfX_18jito_restaking_cli3log13colored_level
FNDA:0,_RNvNtCsig2bDfqTEfX_18jito_restaking_cli3log11init_logger
FNDA:0,_RNvNtCsig2bDfqTEfX_18jito_restaking_cli3log18format_log_message
FNDA:0,_RNvNtCsig2bDfqTEfX_18jito_restaking_cli3log13colored_level
FNF:3
FNH:0
DA:9,0
DA:10,0
DA:11,0
DA:12,0
DA:13,0
DA:15,0
DA:16,0
DA:17,0
DA:18,0
DA:19,0
DA:20,0
DA:21,0
DA:22,0
DA:23,0
DA:24,0
DA:25,0
DA:26,0
DA:27,0
DA:28,0
DA:29,0
DA:31,0
DA:32,0
DA:33,0
DA:34,0
DA:35,0
DA:36,0
DA:37,0
DA:39,0
BRF:0
BRH:0
LF:28
LH:0
end_of_record
SF:/Users/coach/Documents/Jito/restaking/cli/src/restaking.rs
FN:32,_RNCNvXs0_NtCsig2bDfqTEfX_18jito_restaking_cli9restakingNtB7_13ConfigActionsNtNtCsahdYqEJor9n_12clap_builder6derive14FromArgMatches20from_arg_matches_mut0B9_
FN:32,_RNCNvXs0_NtCsig2bDfqTEfX_18jito_restaking_cli9restakingNtB7_13ConfigActionsNtNtCsahdYqEJor9n_12clap_builder6derive14FromArgMatches27update_from_arg_matches_mut0B9_
FN:41,_RNCNvXs2_NtCsig2bDfqTEfX_18jito_restaking_cli9restakingNtB7_10NcnActionsNtNtCsahdYqEJor9n_12clap_builder6derive14FromArgMatches20from_arg_matches_mut0B9_
FN:41,_RNCNvXs2_NtCsig2bDfqTEfX_18jito_restaking_cli9restakingNtB7_10NcnActionsNtNtCsahdYqEJor9n_12clap_builder6derive14FromArgMatches27update_from_arg_matches_mut0B9_
FN:49,_RNCNvXs4_NtCsig2bDfqTEfX_18jito_restaking_cli9restakingNtB7_15OperatorActionsNtNtCsahdYqEJor9n_12clap_builder6derive14FromArgMatches20from_arg_matches_mut0B9_
FN:51,_RNCNvXs4_NtCsig2bDfqTEfX_18jito_restaking_cli9restakingNtB7_15OperatorActionsNtNtCsahdYqEJor9n_12clap_builder6derive14FromArgMatches20from_arg_matches_muts_0B9_
FN:51,_RNCNvXs4_NtCsig2bDfqTEfX_18jito_restaking_cli9restakingNtB7_15OperatorActionsNtNtCsahdYqEJor9n_12clap_builder6derive14FromArgMatches20from_arg_matches_muts0_0B9_
FN:53,_RNCNvXs4_NtCsig2bDfqTEfX_18jito_restaking_cli9restakingNtB7_15OperatorActionsNtNtCsahdYqEJor9n_12clap_builder6derive14FromArgMatches20from_arg_matches_muts1_0B9_
FN:53,_RNCNvXs4_NtCsig2bDfqTEfX_18jito_restaking_cli9restakingNtB7_15OperatorActionsNtNtCsahdYqEJor9n_12clap_builder6derive14FromArgMatches20from_arg_matches_muts2_0B9_
FN:55,_RNCNvXs4_NtCsig2bDfqTEfX_18jito_restaking_cli9restakingNtB7_15OperatorActionsNtNtCsahdYqEJor9n_12clap_builder6derive14FromArgMatches20from_arg_matches_muts3_0B9_
FN:49,_RNCNvXs4_NtCsig2bDfqTEfX_18jito_restaking_cli9restakingNtB7_15OperatorActionsNtNtCsahdYqEJor9n_12clap_builder6derive14FromArgMatches27update_from_arg_matches_mut0B9_
FN:51,_RNCNvXs4_NtCsig2bDfqTEfX_18jito_restaking_cli9restakingNtB7_15OperatorActionsNtNtCsahdYqEJor9n_12clap_builder6derive14FromArgMatches27update_from_arg_matches_muts_0B9_
FN:51,_RNCNvXs4_NtCsig2bDfqTEfX_18jito_restaking_cli9restakingNtB7_15OperatorActionsNtNtCsahdYqEJor9n_12clap_builder6derive14FromArgMatches27update_from_arg_matches_muts0_0B9_
FN:53,_RNCNvXs4_NtCsig2bDfqTEfX_18jito_restaking_cli9restakingNtB7_15OperatorActionsNtNtCsahdYqEJor9n_12clap_builder6derive14FromArgMatches27update_from_arg_matches_muts1_0B9_
FN:53,_RNCNvXs4_NtCsig2bDfqTEfX_18jito_restaking_cli9restakingNtB7_15OperatorActionsNtNtCsahdYqEJor9n_12clap_builder6derive14FromArgMatches27update_from_arg_matches_muts2_0B9_
FN:55,_RNCNvXs4_NtCsig2bDfqTEfX_18jito_restaking_cli9restakingNtB7_15OperatorActionsNtNtCsahdYqEJor9n_12clap_builder6derive14FromArgMatches27update_from_arg_matches_muts3_0B9_
FNDA:0,_RNCNvXs0_NtCsig2bDfqTEfX_18jito_restaking_cli9restakingNtB7_13ConfigActionsNtNtCsahdYqEJor9n_12clap_builder6derive14FromArgMatches20from_arg_matches_mut0B9_
FNDA:0,_RNCNvXs0_NtCsig2bDfqTEfX_18jito_restaking_cli9restakingNtB7_13ConfigActionsNtNtCsahdYqEJor9n_12clap_builder6derive14FromArgMatches27update_from_arg_matches_mut0B9_
FNDA:0,_RNCNvXs2_NtCsig2bDfqTEfX_18jito_restaking_cli9restakingNtB7_10NcnActionsNtNtCsahdYqEJor9n_12clap_builder6derive14FromArgMatches20from_arg_matches_mut0B9_
FNDA:0,_RNCNvXs2_NtCsig2bDfqTEfX_18jito_restaking_cli9restakingNtB7_10NcnActionsNtNtCsahdYqEJor9n_12clap_builder6derive14FromArgMatches27update_from_arg_matches_mut0B9_
FNDA:0,_RNCNvXs4_NtCsig2bDfqTEfX_18jito_restaking_cli9restakingNtB7_15OperatorActionsNtNtCsahdYqEJor9n_12clap_builder6derive14FromArgMatches20from_arg_matches_mut0B9_
FNDA:0,_RNCNvXs4_NtCsig2bDfqTEfX_18jito_restaking_cli9restakingNtB7_15OperatorActionsNtNtCsahdYqEJor9n_12clap_builder6derive14FromArgMatches20from_arg_matches_muts_0B9_
FNDA:0,_RNCNvXs4_NtCsig2bDfqTEfX_18jito_restaking_cli9restakingNtB7_15OperatorActionsNtNtCsahdYqEJor9n_12clap_builder6derive14FromArgMatches20from_arg_matches_muts0_0B9_
FNDA:0,_RNCNvXs4_NtCsig2bDfqTEfX_18jito_restaking_cli9restakingNtB7_15OperatorActionsNtNtCsahdYqEJor9n_12clap_builder6derive14FromArgMatches20from_arg_matches_muts1_0B9_
FNDA:0,_RNCNvXs4_NtCsig2bDfqTEfX_18jito_restaking_cli9restakingNtB7_15OperatorActionsNtNtCsahdYqEJor9n_12clap_builder6derive14FromArgMatches20from_arg_matches_muts2_0B9_
FNDA:0,_RNCNvXs4_NtCsig2bDfqTEfX_18jito_restaking_cli9restakingNtB7_15OperatorActionsNtNtCsahdYqEJor9n_12clap_builder6derive14FromArgMatches20from_arg_matches_muts3_0B9_
FNDA:0,_RNCNvXs4_NtCsig2bDfqTEfX_18jito_restaking_cli9restakingNtB7_15OperatorActionsNtNtCsahdYqEJor9n_12clap_builder6derive14FromArgMatches27update_from_arg_matches_mut0B9_
FNDA:0,_RNCNvXs4_NtCsig2bDfqTEfX_18jito_restaking_cli9restakingNtB7_15OperatorActionsNtNtCsahdYqEJor9n_12clap_builder6derive14FromArgMatches27update_from_arg_matches_muts_0B9_
FNDA:0,_RNCNvXs4_NtCsig2bDfqTEfX_18jito_restaking_cli9restakingNtB7_15OperatorActionsNtNtCsahdYqEJor9n_12clap_builder6derive14FromArgMatches27update_from_arg_matches_muts0_0B9_
FNDA:0,_RNCNvXs4_NtCsig2bDfqTEfX_18jito_restaking_cli9restakingNtB7_15OperatorActionsNtNtCsahdYqEJor9n_12clap_builder6derive14FromArgMatches27update_from_arg_matches_muts1_0B9_
FNDA:0,_RNCNvXs4_NtCsig2bDfqTEfX_18jito_restaking_cli9restakingNtB7_15OperatorActionsNtNtCsahdYqEJor9n_12clap_builder6derive14FromArgMatches27update_from_arg_matches_muts2_0B9_
FNDA:0,_RNCNvXs4_NtCsig2bDfqTEfX_18jito_restaking_cli9restakingNtB7_15OperatorActionsNtNtCsahdYqEJor9n_12clap_builder6derive14FromArgMatches27update_from_arg_matches_muts3_0B9_
FNF:8
FNH:0
DA:32,0
DA:41,0
DA:49,0
DA:51,0
DA:53,0
DA:55,0
BRF:0
BRH:0
LF:8
LH:0
end_of_record
SF:/Users/coach/Documents/Jito/restaking/cli/src/restaking_handler.rs
FN:37,_RNvMNtCsig2bDfqTEfX_18jito_restaking_cli17restaking_handlerNtB2_19RestakingCliHandler3new
FN:49,_RNvMNtCsig2bDfqTEfX_18jito_restaking_cli17restaking_handlerNtB2_19RestakingCliHandler14get_rpc_client
FN:53,_RNvMNtCsig2bDfqTEfX_18jito_restaking_cli17restaking_handlerNtB2_19RestakingCliHandler6handle
FN:53,_RNCNvMNtCsig2bDfqTEfX_18jito_restaking_cli17restaking_handlerNtB4_19RestakingCliHandler6handle0B6_
FN:91,_RNvMNtCsig2bDfqTEfX_18jito_restaking_cli17restaking_handlerNtB2_19RestakingCliHandler17initialize_config
FN:91,_RNCNvMNtCsig2bDfqTEfX_18jito_restaking_cli17restaking_handlerNtB4_19RestakingCliHandler17initialize_config0B6_
FN:96,_RNCNCNvMNtCsig2bDfqTEfX_18jito_restaking_cli17restaking_handlerNtB6_19RestakingCliHandler17initialize_config00B8_
FN:122,_RNvMNtCsig2bDfqTEfX_18jito_restaking_cli17restaking_handlerNtB2_19RestakingCliHandler14initialize_ncn
FN:122,_RNCNvMNtCsig2bDfqTEfX_18jito_restaking_cli17restaking_handlerNtB4_19RestakingCliHandler14initialize_ncn0B6_
FN:127,_RNCNCNvMNtCsig2bDfqTEfX_18jito_restaking_cli17restaking_handlerNtB6_19RestakingCliHandler14initialize_ncn00B8_
FN:161,_RNCNCNvMNtCsig2bDfqTEfX_18jito_restaking_cli17restaking_handlerNtB6_19RestakingCliHandler14initialize_ncn0s_0B8_
FN:168,_RNvMNtCsig2bDfqTEfX_18jito_restaking_cli17restaking_handlerNtB2_19RestakingCliHandler19initialize_operator
FN:168,_RNCNvMNtCsig2bDfqTEfX_18jito_restaking_cli17restaking_handlerNtB4_19RestakingCliHandler19initialize_operator0B6_
FN:173,_RNCNCNvMNtCsig2bDfqTEfX_18jito_restaking_cli17restaking_handlerNtB6_19RestakingCliHandler19initialize_operator00B8_
FN:211,_RNCNCNvMNtCsig2bDfqTEfX_18jito_restaking_cli17restaking_handlerNtB6_19RestakingCliHandler19initialize_operator0s_0B8_
FN:218,_RNvMNtCsig2bDfqTEfX_18jito_restaking_cli17restaking_handlerNtB2_19RestakingCliHandler32initialize_operator_vault_ticket
FN:222,_RNCNvMNtCsig2bDfqTEfX_18jito_restaking_cli17restaking_handlerNtB4_19RestakingCliHandler32initialize_operator_vault_ticket0B6_
FN:227,_RNCNCNvMNtCsig2bDfqTEfX_18jito_restaking_cli17restaking_handlerNtB6_19RestakingCliHandler32initialize_operator_vault_ticket00B8_
FN:272,_RNvMNtCsig2bDfqTEfX_18jito_restaking_cli17restaking_handlerNtB2_19RestakingCliHandler28warmup_operator_vault_ticket
FN:276,_RNCNvMNtCsig2bDfqTEfX_18jito_restaking_cli17restaking_handlerNtB4_19RestakingCliHandler28warmup_operator_vault_ticket0B6_
FN:281,_RNCNCNvMNtCsig2bDfqTEfX_18jito_restaking_cli17restaking_handlerNtB6_19RestakingCliHandler28warmup_operator_vault_ticket00B8_
FN:320,_RNvMNtCsig2bDfqTEfX_18jito_restaking_cli17restaking_handlerNtB2_19RestakingCliHandler10get_config
FN:320,_RNCNvMNtCsig2bDfqTEfX_18jito_restaking_cli17restaking_handlerNtB4_19RestakingCliHandler10get_config0B6_
FN:338,_RNvMNtCsig2bDfqTEfX_18jito_restaking_cli17restaking_handlerNtB2_19RestakingCliHandler7get_ncn
FN:338,_RNCNvMNtCsig2bDfqTEfX_18jito_restaking_cli17restaking_handlerNtB4_19RestakingCliHandler7get_ncn0B6_
FN:346,_RNvMNtCsig2bDfqTEfX_18jito_restaking_cli17restaking_handlerNtB2_19RestakingCliHandler8list_ncn
FN:346,_RNCNvMNtCsig2bDfqTEfX_18jito_restaking_cli17restaking_handlerNtB4_19RestakingCliHandler8list_ncn0B6_
FN:373,_RNvMNtCsig2bDfqTEfX_18jito_restaking_cli17restaking_handlerNtB2_19RestakingCliHandler12get_operator
FN:373,_RNCNvMNtCsig2bDfqTEfX_18jito_restaking_cli17restaking_handlerNtB4_19RestakingCliHandler12get_operator0B6_
FN:382,_RNvMNtCsig2bDfqTEfX_18jito_restaking_cli17restaking_handlerNtB2_19RestakingCliHandler13list_operator
FN:382,_RNCNvMNtCsig2bDfqTEfX_18jito_restaking_cli17restaking_handlerNtB4_19RestakingCliHandler13list_operator0B6_
FN:409,_RNvMNtCsig2bDfqTEfX_18jito_restaking_cli17restaking_handlerNtB2_19RestakingCliHandler16set_config_admin
FN:409,_RNCNvMNtCsig2bDfqTEfX_18jito_restaking_cli17restaking_handlerNtB4_19RestakingCliHandler16set_config_admin0B6_
FN:414,_RNCNCNvMNtCsig2bDfqTEfX_18jito_restaking_cli17restaking_handlerNtB6_19RestakingCliHandler16set_config_admin00B8_
FNDA:0,_RNvMNtCsig2bDfqTEfX_18jito_restaking_cli17restaking_handlerNtB2_19RestakingCliHandler3new
FNDA:0,_RNvMNtCsig2bDfqTEfX_18jito_restaking_cli17restaking_handlerNtB2_19RestakingCliHandler14get_rpc_client
FNDA:0,_RNvMNtCsig2bDfqTEfX_18jito_restaking_cli17restaking_handlerNtB2_19RestakingCliHandler6handle
FNDA:0,_RNCNvMNtCsig2bDfqTEfX_18jito_restaking_cli17restaking_handlerNtB4_19RestakingCliHandler6handle0B6_
FNDA:0,_RNvMNtCsig2bDfqTEfX_18jito_restaking_cli17restaking_handlerNtB2_19RestakingCliHandler17initialize_config
FNDA:0,_RNCNvMNtCsig2bDfqTEfX_18jito_restaking_cli17restaking_handlerNtB4_19RestakingCliHandler17initialize_config0B6_
FNDA:0,_RNCNCNvMNtCsig2bDfqTEfX_18jito_restaking_cli17restaking_handlerNtB6_19RestakingCliHandler17initialize_config00B8_
FNDA:0,_RNvMNtCsig2bDfqTEfX_18jito_restaking_cli17restaking_handlerNtB2_19RestakingCliHandler14initialize_ncn
FNDA:0,_RNCNvMNtCsig2bDfqTEfX_18jito_restaking_cli17restaking_handlerNtB4_19RestakingCliHandler14initialize_ncn0B6_
FNDA:0,_RNCNCNvMNtCsig2bDfqTEfX_18jito_restaking_cli17restaking_handlerNtB6_19RestakingCliHandler14initialize_ncn00B8_
FNDA:0,_RNCNCNvMNtCsig2bDfqTEfX_18jito_restaking_cli17restaking_handlerNtB6_19RestakingCliHandler14initialize_ncn0s_0B8_
FNDA:0,_RNvMNtCsig2bDfqTEfX_18jito_restaking_cli17restaking_handlerNtB2_19RestakingCliHandler19initialize_operator
FNDA:0,_RNCNvMNtCsig2bDfqTEfX_18jito_restaking_cli17restaking_handlerNtB4_19RestakingCliHandler19initialize_operator0B6_
FNDA:0,_RNCNCNvMNtCsig2bDfqTEfX_18jito_restaking_cli17restaking_handlerNtB6_19RestakingCliHandler19initialize_operator00B8_
FNDA:0,_RNCNCNvMNtCsig2bDfqTEfX_18jito_restaking_cli17restaking_handlerNtB6_19RestakingCliHandler19initialize_operator0s_0B8_
FNDA:0,_RNvMNtCsig2bDfqTEfX_18jito_restaking_cli17restaking_handlerNtB2_19RestakingCliHandler32initialize_operator_vault_ticket
FNDA:0,_RNCNvMNtCsig2bDfqTEfX_18jito_restaking_cli17restaking_handlerNtB4_19RestakingCliHandler32initialize_operator_vault_ticket0B6_
FNDA:0,_RNCNCNvMNtCsig2bDfqTEfX_18jito_restaking_cli17restaking_handlerNtB6_19RestakingCliHandler32initialize_operator_vault_ticket00B8_
FNDA:0,_RNvMNtCsig2bDfqTEfX_18jito_restaking_cli17restaking_handlerNtB2_19RestakingCliHandler28warmup_operator_vault_ticket
FNDA:0,_RNCNvMNtCsig2bDfqTEfX_18jito_restaking_cli17restaking_handlerNtB4_19RestakingCliHandler28warmup_operator_vault_ticket0B6_
FNDA:0,_RNCNCNvMNtCsig2bDfqTEfX_18jito_restaking_cli17restaking_handlerNtB6_19RestakingCliHandler28warmup_operator_vault_ticket00B8_
FNDA:0,_RNvMNtCsig2bDfqTEfX_18jito_restaking_cli17restaking_handlerNtB2_19RestakingCliHandler10get_config
FNDA:0,_RNCNvMNtCsig2bDfqTEfX_18jito_restaking_cli17restaking_handlerNtB4_19RestakingCliHandler10get_config0B6_
FNDA:0,_RNvMNtCsig2bDfqTEfX_18jito_restaking_cli17restaking_handlerNtB2_19RestakingCliHandler7get_ncn
FNDA:0,_RNCNvMNtCsig2bDfqTEfX_18jito_restaking_cli17restaking_handlerNtB4_19RestakingCliHandler7get_ncn0B6_
FNDA:0,_RNvMNtCsig2bDfqTEfX_18jito_restaking_cli17restaking_handlerNtB2_19RestakingCliHandler8list_ncn
FNDA:0,_RNCNvMNtCsig2bDfqTEfX_18jito_restaking_cli17restaking_handlerNtB4_19RestakingCliHandler8list_ncn0B6_
FNDA:0,_RNvMNtCsig2bDfqTEfX_18jito_restaking_cli17restaking_handlerNtB2_19RestakingCliHandler12get_operator
FNDA:0,_RNCNvMNtCsig2bDfqTEfX_18jito_restaking_cli17restaking_handlerNtB4_19RestakingCliHandler12get_operator0B6_
FNDA:0,_RNvMNtCsig2bDfqTEfX_18jito_restaking_cli17restaking_handlerNtB2_19RestakingCliHandler13list_operator
FNDA:0,_RNCNvMNtCsig2bDfqTEfX_18jito_restaking_cli17restaking_handlerNtB4_19RestakingCliHandler13list_operator0B6_
FNDA:0,_RNvMNtCsig2bDfqTEfX_18jito_restaking_cli17restaking_handlerNtB2_19RestakingCliHandler16set_config_admin
FNDA:0,_RNCNvMNtCsig2bDfqTEfX_18jito_restaking_cli17restaking_handlerNtB4_19RestakingCliHandler16set_config_admin0B6_
FNDA:0,_RNCNCNvMNtCsig2bDfqTEfX_18jito_restaking_cli17restaking_handlerNtB6_19RestakingCliHandler16set_config_admin00B8_
FNF:34
FNH:0
DA:37,0
DA:38,0
DA:39,0
DA:40,0
DA:41,0
DA:42,0
DA:43,0
DA:44,0
DA:45,0
DA:46,0
DA:47,0
DA:49,0
DA:50,0
DA:51,0
DA:53,0
DA:54,0
DA:57,0
DA:60,0
DA:62,0
DA:63,0
DA:66,0
DA:68,0
DA:69,0
DA:72,0
DA:74,0
DA:75,0
DA:77,0
DA:78,0
DA:80,0
DA:81,0
DA:83,0
DA:84,0
DA:87,0
DA:89,0
DA:91,0
DA:92,0
DA:93,0
DA:94,0
DA:95,0
DA:96,0
DA:97,0
DA:98,0
DA:99,0
DA:100,0
DA:101,0
DA:102,0
DA:103,0
DA:104,0
DA:105,0
DA:106,0
DA:107,0
DA:108,0
DA:109,0
DA:110,0
DA:111,0
DA:112,0
DA:113,0
DA:114,0
DA:115,0
DA:117,0
DA:118,0
DA:119,0
DA:120,0
DA:122,0
DA:123,0
DA:124,0
DA:125,0
DA:126,0
DA:127,0
DA:128,0
DA:129,0
DA:130,0
DA:131,0
DA:132,0
DA:133,0
DA:134,0
DA:135,0
DA:136,0
DA:137,0
DA:138,0
DA:139,0
DA:141,0
DA:142,0
DA:143,0
DA:144,0
DA:145,0
DA:146,0
DA:147,0
DA:148,0
DA:149,0
DA:150,0
DA:151,0
DA:152,0
DA:153,0
DA:154,0
DA:156,0
DA:157,0
DA:158,0
DA:159,0
DA:160,0
DA:161,0
DA:162,0
DA:163,0
DA:165,0
DA:166,0
DA:168,0
DA:169,0
DA:170,0
DA:171,0
DA:172,0
DA:173,0
DA:174,0
DA:175,0
DA:176,0
DA:177,0
DA:178,0
DA:179,0
DA:180,0
DA:181,0
DA:182,0
DA:183,0
DA:184,0
DA:185,0
DA:186,0
DA:188,0
DA:189,0
DA:190,0
DA:191,0
DA:192,0
DA:193,0
DA:194,0
DA:195,0
DA:196,0
DA:197,0
DA:198,0
DA:200,0
DA:201,0
DA:202,0
DA:203,0
DA:204,0
DA:206,0
DA:207,0
DA:208,0
DA:209,0
DA:210,0
DA:211,0
DA:212,0
DA:213,0
DA:215,0
DA:216,0
DA:218,0
DA:219,0
DA:220,0
DA:221,0
DA:222,0
DA:223,0
DA:224,0
DA:225,0
DA:226,0
DA:227,0
DA:228,0
DA:230,0
DA:231,0
DA:233,0
DA:234,0
DA:235,0
DA:236,0
DA:237,0
DA:238,0
DA:239,0
DA:240,0
DA:241,0
DA:242,0
DA:243,0
DA:244,0
DA:245,0
DA:246,0
DA:247,0
DA:249,0
DA:250,0
DA:251,0
DA:252,0
DA:253,0
DA:254,0
DA:255,0
DA:256,0
DA:257,0
DA:258,0
DA:259,0
DA:261,0
DA:262,0
DA:264,0
DA:265,0
DA:266,0
DA:267,0
DA:269,0
DA:270,0
DA:272,0
DA:273,0
DA:274,0
DA:275,0
DA:276,0
DA:277,0
DA:278,0
DA:279,0
DA:280,0
DA:281,0
DA:282,0
DA:284,0
DA:285,0
DA:287,0
DA:288,0
DA:289,0
DA:290,0
DA:291,0
DA:292,0
DA:293,0
DA:294,0
DA:295,0
DA:296,0
DA:297,0
DA:298,0
DA:299,0
DA:300,0
DA:302,0
DA:303,0
DA:304,0
DA:305,0
DA:306,0
DA:307,0
DA:308,0
DA:309,0
DA:310,0
DA:311,0
DA:312,0
DA:314,0
DA:315,0
DA:317,0
DA:318,0
DA:320,0
DA:321,0
DA:322,0
DA:323,0
DA:324,0
DA:325,0
DA:329,0
DA:330,0
DA:331,0
DA:332,0
DA:335,0
DA:336,0
DA:338,0
DA:339,0
DA:340,0
DA:341,0
DA:342,0
DA:343,0
DA:344,0
DA:346,0
DA:347,0
DA:348,0
DA:349,0
DA:350,0
DA:351,0
DA:352,0
DA:353,0
DA:354,0
DA:355,0
DA:356,0
DA:357,0
DA:358,0
DA:359,0
DA:360,0
DA:361,0
DA:362,0
DA:363,0
DA:364,0
DA:365,0
DA:366,0
DA:367,0
DA:368,0
DA:370,0
DA:371,0
DA:373,0
DA:374,0
DA:375,0
DA:376,0
DA:377,0
DA:379,0
DA:380,0
DA:382,0
DA:383,0
DA:384,0
DA:385,0
DA:386,0
DA:387,0
DA:388,0
DA:389,0
DA:390,0
DA:391,0
DA:392,0
DA:393,0
DA:394,0
DA:395,0
DA:396,0
DA:397,0
DA:398,0
DA:399,0
DA:400,0
DA:401,0
DA:402,0
DA:403,0
DA:404,0
DA:406,0
DA:407,0
DA:409,0
DA:410,0
DA:411,0
DA:412,0
DA:413,0
DA:414,0
DA:415,0
DA:416,0
DA:417,0
DA:418,0
DA:419,0
DA:420,0
DA:421,0
DA:422,0
DA:424,0
DA:425,0
DA:426,0
DA:427,0
DA:428,0
DA:429,0
DA:430,0
DA:431,0
DA:432,0
DA:435,0
DA:436,0
DA:437,0
DA:439,0
DA:440,0
DA:441,0
DA:442,0
BRF:0
BRH:0
LF:365
LH:0
end_of_record
SF:/Users/coach/Documents/Jito/restaking/cli/src/vault.rs
FN:21,_RNCNvXs0_NtCsig2bDfqTEfX_18jito_restaking_cli5vaultNtB7_13ConfigActionsNtNtCsahdYqEJor9n_12clap_builder6derive14FromArgMatches20from_arg_matches_mut0B9_
FN:23,_RNCNvXs0_NtCsig2bDfqTEfX_18jito_restaking_cli5vaultNtB7_13ConfigActionsNtNtCsahdYqEJor9n_12clap_builder6derive14FromArgMatches20from_arg_matches_muts_0B9_
FN:30,_RNCNvXs0_NtCsig2bDfqTEfX_18jito_restaking_cli5vaultNtB7_13ConfigActionsNtNtCsahdYqEJor9n_12clap_builder6derive14FromArgMatches20from_arg_matches_muts0_0B9_
FN:21,_RNCNvXs0_NtCsig2bDfqTEfX_18jito_restaking_cli5vaultNtB7_13ConfigActionsNtNtCsahdYqEJor9n_12clap_builder6derive14FromArgMatches27update_from_arg_matches_mut0B9_
FN:23,_RNCNvXs0_NtCsig2bDfqTEfX_18jito_restaking_cli5vaultNtB7_13ConfigActionsNtNtCsahdYqEJor9n_12clap_builder6derive14FromArgMatches27update_from_arg_matches_muts_0B9_
FN:30,_RNCNvXs0_NtCsig2bDfqTEfX_18jito_restaking_cli5vaultNtB7_13ConfigActionsNtNtCsahdYqEJor9n_12clap_builder6derive14FromArgMatches27update_from_arg_matches_muts0_0B9_
FN:40,_RNCNvXs2_NtCsig2bDfqTEfX_18jito_restaking_cli5vaultNtB7_12VaultActionsNtNtCsahdYqEJor9n_12clap_builder6derive14FromArgMatches20from_arg_matches_mut0B9_
FN:42,_RNCNvXs2_NtCsig2bDfqTEfX_18jito_restaking_cli5vaultNtB7_12VaultActionsNtNtCsahdYqEJor9n_12clap_builder6derive14FromArgMatches20from_arg_matches_muts_0B9_
FN:44,_RNCNvXs2_NtCsig2bDfqTEfX_18jito_restaking_cli5vaultNtB7_12VaultActionsNtNtCsahdYqEJor9n_12clap_builder6derive14FromArgMatches20from_arg_matches_muts0_0B9_
FN:46,_RNCNvXs2_NtCsig2bDfqTEfX_18jito_restaking_cli5vaultNtB7_12VaultActionsNtNtCsahdYqEJor9n_12clap_builder6derive14FromArgMatches20from_arg_matches_muts1_0B9_
FN:48,_RNCNvXs2_NtCsig2bDfqTEfX_18jito_restaking_cli5vaultNtB7_12VaultActionsNtNtCsahdYqEJor9n_12clap_builder6derive14FromArgMatches20from_arg_matches_muts2_0B9_
FN:53,_RNCNvXs2_NtCsig2bDfqTEfX_18jito_restaking_cli5vaultNtB7_12VaultActionsNtNtCsahdYqEJor9n_12clap_builder6derive14FromArgMatches20from_arg_matches_muts3_0B9_
FN:55,_RNCNvXs2_NtCsig2bDfqTEfX_18jito_restaking_cli5vaultNtB7_12VaultActionsNtNtCsahdYqEJor9n_12clap_builder6derive14FromArgMatches20from_arg_matches_muts4_0B9_
FN:57,_RNCNvXs2_NtCsig2bDfqTEfX_18jito_restaking_cli5vaultNtB7_12VaultActionsNtNtCsahdYqEJor9n_12clap_builder6derive14FromArgMatches20from_arg_matches_muts5_0B9_
FN:59,_RNCNvXs2_NtCsig2bDfqTEfX_18jito_restaking_cli5vaultNtB7_12VaultActionsNtNtCsahdYqEJor9n_12clap_builder6derive14FromArgMatches20from_arg_matches_muts6_0B9_
FN:64,_RNCNvXs2_NtCsig2bDfqTEfX_18jito_restaking_cli5vaultNtB7_12VaultActionsNtNtCsahdYqEJor9n_12clap_builder6derive14FromArgMatches20from_arg_matches_muts7_0B9_
FN:69,_RNCNvXs2_NtCsig2bDfqTEfX_18jito_restaking_cli5vaultNtB7_12VaultActionsNtNtCsahdYqEJor9n_12clap_builder6derive14FromArgMatches20from_arg_matches_muts8_0B9_
FN:71,_RNCNvXs2_NtCsig2bDfqTEfX_18jito_restaking_cli5vaultNtB7_12VaultActionsNtNtCsahdYqEJor9n_12clap_builder6derive14FromArgMatches20from_arg_matches_muts9_0B9_
FN:76,_RNCNvXs2_NtCsig2bDfqTEfX_18jito_restaking_cli5vaultNtB7_12VaultActionsNtNtCsahdYqEJor9n_12clap_builder6derive14FromArgMatches20from_arg_matches_mutsa_0B9_
FN:83,_RNCNvXs2_NtCsig2bDfqTEfX_18jito_restaking_cli5vaultNtB7_12VaultActionsNtNtCsahdYqEJor9n_12clap_builder6derive14FromArgMatches20from_arg_matches_mutsb_0B9_
FN:85,_RNCNvXs2_NtCsig2bDfqTEfX_18jito_restaking_cli5vaultNtB7_12VaultActionsNtNtCsahdYqEJor9n_12clap_builder6derive14FromArgMatches20from_arg_matches_mutsc_0B9_
FN:87,_RNCNvXs2_NtCsig2bDfqTEfX_18jito_restaking_cli5vaultNtB7_12VaultActionsNtNtCsahdYqEJor9n_12clap_builder6derive14FromArgMatches20from_arg_matches_mutsd_0B9_
FN:92,_RNCNvXs2_NtCsig2bDfqTEfX_18jito_restaking_cli5vaultNtB7_12VaultActionsNtNtCsahdYqEJor9n_12clap_builder6derive14FromArgMatches20from_arg_matches_mutse_0B9_
FN:94,_RNCNvXs2_NtCsig2bDfqTEfX_18jito_restaking_cli5vaultNtB7_12VaultActionsNtNtCsahdYqEJor9n_12clap_builder6derive14FromArgMatches20from_arg_matches_mutsf_0B9_
FN:99,_RNCNvXs2_NtCsig2bDfqTEfX_18jito_restaking_cli5vaultNtB7_12VaultActionsNtNtCsahdYqEJor9n_12clap_builder6derive14FromArgMatches20from_arg_matches_mutsg_0B9_
FN:101,_RNCNvXs2_NtCsig2bDfqTEfX_18jito_restaking_cli5vaultNtB7_12VaultActionsNtNtCsahdYqEJor9n_12clap_builder6derive14FromArgMatches20from_arg_matches_mutsh_0B9_
FN:103,_RNCNvXs2_NtCsig2bDfqTEfX_18jito_restaking_cli5vaultNtB7_12VaultActionsNtNtCsahdYqEJor9n_12clap_builder6derive14FromArgMatches20from_arg_matches_mutsi_0B9_
FN:108,_RNCNvXs2_NtCsig2bDfqTEfX_18jito_restaking_cli5vaultNtB7_12VaultActionsNtNtCsahdYqEJor9n_12clap_builder6derive14FromArgMatches20from_arg_matches_mutsj_0B9_
FN:110,_RNCNvXs2_NtCsig2bDfqTEfX_18jito_restaking_cli5vaultNtB7_12VaultActionsNtNtCsahdYqEJor9n_12clap_builder6derive14FromArgMatches20from_arg_matches_mutsk_0B9_
FN:112,_RNCNvXs2_NtCsig2bDfqTEfX_18jito_restaking_cli5vaultNtB7_12VaultActionsNtNtCsahdYqEJor9n_12clap_builder6derive14FromArgMatches20from_arg_matches_mutsl_0B9_
FN:117,_RNCNvXs2_NtCsig2bDfqTEfX_18jito_restaking_cli5vaultNtB7_12VaultActionsNtNtCsahdYqEJor9n_12clap_builder6derive14FromArgMatches20from_arg_matches_mutsm_0B9_
FN:119,_RNCNvXs2_NtCsig2bDfqTEfX_18jito_restaking_cli5vaultNtB7_12VaultActionsNtNtCsahdYqEJor9n_12clap_builder6derive14FromArgMatches20from_arg_matches_mutsn_0B9_
FN:124,_RNCNvXs2_NtCsig2bDfqTEfX_18jito_restaking_cli5vaultNtB7_12VaultActionsNtNtCsahdYqEJor9n_12clap_builder6derive14FromArgMatches20from_arg_matches_mutso_0B9_
FN:129,_RNCNvXs2_NtCsig2bDfqTEfX_18jito_restaking_cli5vaultNtB7_12VaultActionsNtNtCsahdYqEJor9n_12clap_builder6derive14FromArgMatches20from_arg_matches_mutsp_0B9_
FN:131,_RNCNvXs2_NtCsig2bDfqTEfX_18jito_restaking_cli5vaultNtB7_12VaultActionsNtNtCsahdYqEJor9n_12clap_builder6derive14FromArgMatches20from_arg_matches_mutsq_0B9_
FN:136,_RNCNvXs2_NtCsig2bDfqTEfX_18jito_restaking_cli5vaultNtB7_12VaultActionsNtNtCsahdYqEJor9n_12clap_builder6derive14FromArgMatches20from_arg_matches_mutsr_0B9_
FN:138,_RNCNvXs2_NtCsig2bDfqTEfX_18jito_restaking_cli5vaultNtB7_12VaultActionsNtNtCsahdYqEJor9n_12clap_builder6derive14FromArgMatches20from_arg_matches_mutss_0B9_
FN:142,_RNCNvXs2_NtCsig2bDfqTEfX_18jito_restaking_cli5vaultNtB7_12VaultActionsNtNtCsahdYqEJor9n_12clap_builder6derive14FromArgMatches20from_arg_matches_mutst_0B9_
FN:149,_RNCNvXs2_NtCsig2bDfqTEfX_18jito_restaking_cli5vaultNtB7_12VaultActionsNtNtCsahdYqEJor9n_12clap_builder6derive14FromArgMatches20from_arg_matches_mutsu_0B9_
FN:156,_RNCNvXs2_NtCsig2bDfqTEfX_18jito_restaking_cli5vaultNtB7_12VaultActionsNtNtCsahdYqEJor9n_12clap_builder6derive14FromArgMatches20from_arg_matches_mutsv_0B9_
FN:158,_RNCNvXs2_NtCsig2bDfqTEfX_18jito_restaking_cli5vaultNtB7_12VaultActionsNtNtCsahdYqEJor9n_12clap_builder6derive14FromArgMatches20from_arg_matches_mutsw_0B9_
FN:40,_RNCNvXs2_NtCsig2bDfqTEfX_18jito_restaking_cli5vaultNtB7_12VaultActionsNtNtCsahdYqEJor9n_12clap_builder6derive14FromArgMatches27update_from_arg_matches_mut0B9_
FN:42,_RNCNvXs2_NtCsig2bDfqTEfX_18jito_restaking_cli5vaultNtB7_12VaultActionsNtNtCsahdYqEJor9n_12clap_builder6derive14FromArgMatches27update_from_arg_matches_muts_0B9_
FN:44,_RNCNvXs2_NtCsig2bDfqTEfX_18jito_restaking_cli5vaultNtB7_12VaultActionsNtNtCsahdYqEJor9n_12clap_builder6derive14FromArgMatches27update_from_arg_matches_muts0_0B9_
FN:46,_RNCNvXs2_NtCsig2bDfqTEfX_18jito_restaking_cli5vaultNtB7_12VaultActionsNtNtCsahdYqEJor9n_12clap_builder6derive14FromArgMatches27update_from_arg_matches_muts1_0B9_
FN:48,_RNCNvXs2_NtCsig2bDfqTEfX_18jito_restaking_cli5vaultNtB7_12VaultActionsNtNtCsahdYqEJor9n_12clap_builder6derive14FromArgMatches27update_from_arg_matches_muts2_0B9_
FN:53,_RNCNvXs2_NtCsig2bDfqTEfX_18jito_restaking_cli5vaultNtB7_12VaultActionsNtNtCsahdYqEJor9n_12clap_builder6derive14FromArgMatches27update_from_arg_matches_muts3_0B9_
FN:55,_RNCNvXs2_NtCsig2bDfqTEfX_18jito_restaking_cli5vaultNtB7_12VaultActionsNtNtCsahdYqEJor9n_12clap_builder6derive14FromArgMatches27update_from_arg_matches_muts4_0B9_
FN:57,_RNCNvXs2_NtCsig2bDfqTEfX_18jito_restaking_cli5vaultNtB7_12VaultActionsNtNtCsahdYqEJor9n_12clap_builder6derive14FromArgMatches27update_from_arg_matches_muts5_0B9_
FN:59,_RNCNvXs2_NtCsig2bDfqTEfX_18jito_restaking_cli5vaultNtB7_12VaultActionsNtNtCsahdYqEJor9n_12clap_builder6derive14FromArgMatches27update_from_arg_matches_muts6_0B9_
FN:64,_RNCNvXs2_NtCsig2bDfqTEfX_18jito_restaking_cli5vaultNtB7_12VaultActionsNtNtCsahdYqEJor9n_12clap_builder6derive14FromArgMatches27update_from_arg_matches_muts7_0B9_
FN:69,_RNCNvXs2_NtCsig2bDfqTEfX_18jito_restaking_cli5vaultNtB7_12VaultActionsNtNtCsahdYqEJor9n_12clap_builder6derive14FromArgMatches27update_from_arg_matches_muts8_0B9_
FN:71,_RNCNvXs2_NtCsig2bDfqTEfX_18jito_restaking_cli5vaultNtB7_12VaultActionsNtNtCsahdYqEJor9n_12clap_builder6derive14FromArgMatches27update_from_arg_matches_muts9_0B9_
FN:76,_RNCNvXs2_NtCsig2bDfqTEfX_18jito_restaking_cli5vaultNtB7_12VaultActionsNtNtCsahdYqEJor9n_12clap_builder6derive14FromArgMatches27update_from_arg_matches_mutsa_0B9_
FN:83,_RNCNvXs2_NtCsig2bDfqTEfX_18jito_restaking_cli5vaultNtB7_12VaultActionsNtNtCsahdYqEJor9n_12clap_builder6derive14FromArgMatches27update_from_arg_matches_mutsb_0B9_
FN:85,_RNCNvXs2_NtCsig2bDfqTEfX_18jito_restaking_cli5vaultNtB7_12VaultActionsNtNtCsahdYqEJor9n_12clap_builder6derive14FromArgMatches27update_from_arg_matches_mutsc_0B9_
FN:87,_RNCNvXs2_NtCsig2bDfqTEfX_18jito_restaking_cli5vaultNtB7_12VaultActionsNtNtCsahdYqEJor9n_12clap_builder6derive14FromArgMatches27update_from_arg_matches_mutsd_0B9_
FN:92,_RNCNvXs2_NtCsig2bDfqTEfX_18jito_restaking_cli5vaultNtB7_12VaultActionsNtNtCsahdYqEJor9n_12clap_builder6derive14FromArgMatches27update_from_arg_matches_mutse_0B9_
FN:94,_RNCNvXs2_NtCsig2bDfqTEfX_18jito_restaking_cli5vaultNtB7_12VaultActionsNtNtCsahdYqEJor9n_12clap_builder6derive14FromArgMatches27update_from_arg_matches_mutsf_0B9_
FN:99,_RNCNvXs2_NtCsig2bDfqTEfX_18jito_restaking_cli5vaultNtB7_12VaultActionsNtNtCsahdYqEJor9n_12clap_builder6derive14FromArgMatches27update_from_arg_matches_mutsg_0B9_
FN:101,_RNCNvXs2_NtCsig2bDfqTEfX_18jito_restaking_cli5vaultNtB7_12VaultActionsNtNtCsahdYqEJor9n_12clap_builder6derive14FromArgMatches27update_from_arg_matches_mutsh_0B9_
FN:103,_RNCNvXs2_NtCsig2bDfqTEfX_18jito_restaking_cli5vaultNtB7_12VaultActionsNtNtCsahdYqEJor9n_12clap_builder6derive14FromArgMatches27update_from_arg_matches_mutsi_0B9_
FN:108,_RNCNvXs2_NtCsig2bDfqTEfX_18jito_restaking_cli5vaultNtB7_12VaultActionsNtNtCsahdYqEJor9n_12clap_builder6derive14FromArgMatches27update_from_arg_matches_mutsj_0B9_
FN:110,_RNCNvXs2_NtCsig2bDfqTEfX_18jito_restaking_cli5vaultNtB7_12VaultActionsNtNtCsahdYqEJor9n_12clap_builder6derive14FromArgMatches27update_from_arg_matches_mutsk_0B9_
FN:112,_RNCNvXs2_NtCsig2bDfqTEfX_18jito_restaking_cli5vaultNtB7_12VaultActionsNtNtCsahdYqEJor9n_12clap_builder6derive14FromArgMatches27update_from_arg_matches_mutsl_0B9_
FN:117,_RNCNvXs2_NtCsig2bDfqTEfX_18jito_restaking_cli5vaultNtB7_12VaultActionsNtNtCsahdYqEJor9n_12clap_builder6derive14FromArgMatches27update_from_arg_matches_mutsm_0B9_
FN:119,_RNCNvXs2_NtCsig2bDfqTEfX_18jito_restaking_cli5vaultNtB7_12VaultActionsNtNtCsahdYqEJor9n_12clap_builder6derive14FromArgMatches27update_from_arg_matches_mutsn_0B9_
FN:124,_RNCNvXs2_NtCsig2bDfqTEfX_18jito_restaking_cli5vaultNtB7_12VaultActionsNtNtCsahdYqEJor9n_12clap_builder6derive14FromArgMatches27update_from_arg_matches_mutso_0B9_
FN:129,_RNCNvXs2_NtCsig2bDfqTEfX_18jito_restaking_cli5vaultNtB7_12VaultActionsNtNtCsahdYqEJor9n_12clap_builder6derive14FromArgMatches27update_from_arg_matches_mutsp_0B9_
FN:131,_RNCNvXs2_NtCsig2bDfqTEfX_18jito_restaking_cli5vaultNtB7_12VaultActionsNtNtCsahdYqEJor9n_12clap_builder6derive14FromArgMatches27update_from_arg_matches_mutsq_0B9_
FN:136,_RNCNvXs2_NtCsig2bDfqTEfX_18jito_restaking_cli5vaultNtB7_12VaultActionsNtNtCsahdYqEJor9n_12clap_builder6derive14FromArgMatches27update_from_arg_matches_mutsr_0B9_
FN:138,_RNCNvXs2_NtCsig2bDfqTEfX_18jito_restaking_cli5vaultNtB7_12VaultActionsNtNtCsahdYqEJor9n_12clap_builder6derive14FromArgMatches27update_from_arg_matches_mutss_0B9_
FN:142,_RNCNvXs2_NtCsig2bDfqTEfX_18jito_restaking_cli5vaultNtB7_12VaultActionsNtNtCsahdYqEJor9n_12clap_builder6derive14FromArgMatches27update_from_arg_matches_mutst_0B9_
FN:149,_RNCNvXs2_NtCsig2bDfqTEfX_18jito_restaking_cli5vaultNtB7_12VaultActionsNtNtCsahdYqEJor9n_12clap_builder6derive14FromArgMatches27update_from_arg_matches_mutsu_0B9_
FN:156,_RNCNvXs2_NtCsig2bDfqTEfX_18jito_restaking_cli5vaultNtB7_12VaultActionsNtNtCsahdYqEJor9n_12clap_builder6derive14FromArgMatches27update_from_arg_matches_mutsv_0B9_
FN:158,_RNCNvXs2_NtCsig2bDfqTEfX_18jito_restaking_cli5vaultNtB7_12VaultActionsNtNtCsahdYqEJor9n_12clap_builder6derive14FromArgMatches27update_from_arg_matches_mutsw_0B9_
FNDA:0,_RNCNvXs0_NtCsig2bDfqTEfX_18jito_restaking_cli5vaultNtB7_13ConfigActionsNtNtCsahdYqEJor9n_12clap_builder6derive14FromArgMatches20from_arg_matches_mut0B9_
FNDA:0,_RNCNvXs0_NtCsig2bDfqTEfX_18jito_restaking_cli5vaultNtB7_13ConfigActionsNtNtCsahdYqEJor9n_12clap_builder6derive14FromArgMatches20from_arg_matches_muts_0B9_
FNDA:0,_RNCNvXs0_NtCsig2bDfqTEfX_18jito_restaking_cli5vaultNtB7_13ConfigActionsNtNtCsahdYqEJor9n_12clap_builder6derive14FromArgMatches20from_arg_matches_muts0_0B9_
FNDA:0,_RNCNvXs0_NtCsig2bDfqTEfX_18jito_restaking_cli5vaultNtB7_13ConfigActionsNtNtCsahdYqEJor9n_12clap_builder6derive14FromArgMatches27update_from_arg_matches_mut0B9_
FNDA:0,_RNCNvXs0_NtCsig2bDfqTEfX_18jito_restaking_cli5vaultNtB7_13ConfigActionsNtNtCsahdYqEJor9n_12clap_builder6derive14FromArgMatches27update_from_arg_matches_muts_0B9_
FNDA:0,_RNCNvXs0_NtCsig2bDfqTEfX_18jito_restaking_cli5vaultNtB7_13ConfigActionsNtNtCsahdYqEJor9n_12clap_builder6derive14FromArgMatches27update_from_arg_matches_muts0_0B9_
FNDA:0,_RNCNvXs2_NtCsig2bDfqTEfX_18jito_restaking_cli5vaultNtB7_12VaultActionsNtNtCsahdYqEJor9n_12clap_builder6derive14FromArgMatches20from_arg_matches_mut0B9_
FNDA:0,_RNCNvXs2_NtCsig2bDfqTEfX_18jito_restaking_cli5vaultNtB7_12VaultActionsNtNtCsahdYqEJor9n_12clap_builder6derive14FromArgMatches20from_arg_matches_muts_0B9_
FNDA:0,_RNCNvXs2_NtCsig2bDfqTEfX_18jito_restaking_cli5vaultNtB7_12VaultActionsNtNtCsahdYqEJor9n_12clap_builder6derive14FromArgMatches20from_arg_matches_muts0_0B9_
FNDA:0,_RNCNvXs2_NtCsig2bDfqTEfX_18jito_restaking_cli5vaultNtB7_12VaultActionsNtNtCsahdYqEJor9n_12clap_builder6derive14FromArgMatches20from_arg_matches_muts1_0B9_
FNDA:0,_RNCNvXs2_NtCsig2bDfqTEfX_18jito_restaking_cli5vaultNtB7_12VaultActionsNtNtCsahdYqEJor9n_12clap_builder6derive14FromArgMatches20from_arg_matches_muts2_0B9_
FNDA:0,_RNCNvXs2_NtCsig2bDfqTEfX_18jito_restaking_cli5vaultNtB7_12VaultActionsNtNtCsahdYqEJor9n_12clap_builder6derive14FromArgMatches20from_arg_matches_muts3_0B9_
FNDA:0,_RNCNvXs2_NtCsig2bDfqTEfX_18jito_restaking_cli5vaultNtB7_12VaultActionsNtNtCsahdYqEJor9n_12clap_builder6derive14FromArgMatches20from_arg_matches_muts4_0B9_
FNDA:0,_RNCNvXs2_NtCsig2bDfqTEfX_18jito_restaking_cli5vaultNtB7_12VaultActionsNtNtCsahdYqEJor9n_12clap_builder6derive14FromArgMatches20from_arg_matches_muts5_0B9_
FNDA:0,_RNCNvXs2_NtCsig2bDfqTEfX_18jito_restaking_cli5vaultNtB7_12VaultActionsNtNtCsahdYqEJor9n_12clap_builder6derive14FromArgMatches20from_arg_matches_muts6_0B9_
FNDA:0,_RNCNvXs2_NtCsig2bDfqTEfX_18jito_restaking_cli5vaultNtB7_12VaultActionsNtNtCsahdYqEJor9n_12clap_builder6derive14FromArgMatches20from_arg_matches_muts7_0B9_
FNDA:0,_RNCNvXs2_NtCsig2bDfqTEfX_18jito_restaking_cli5vaultNtB7_12VaultActionsNtNtCsahdYqEJor9n_12clap_builder6derive14FromArgMatches20from_arg_matches_muts8_0B9_
FNDA:0,_RNCNvXs2_NtCsig2bDfqTEfX_18jito_restaking_cli5vaultNtB7_12VaultActionsNtNtCsahdYqEJor9n_12clap_builder6derive14FromArgMatches20from_arg_matches_muts9_0B9_
FNDA:0,_RNCNvXs2_NtCsig2bDfqTEfX_18jito_restaking_cli5vaultNtB7_12VaultActionsNtNtCsahdYqEJor9n_12clap_builder6derive14FromArgMatches20from_arg_matches_mutsa_0B9_
FNDA:0,_RNCNvXs2_NtCsig2bDfqTEfX_18jito_restaking_cli5vaultNtB7_12VaultActionsNtNtCsahdYqEJor9n_12clap_builder6derive14FromArgMatches20from_arg_matches_mutsb_0B9_
FNDA:0,_RNCNvXs2_NtCsig2bDfqTEfX_18jito_restaking_cli5vaultNtB7_12VaultActionsNtNtCsahdYqEJor9n_12clap_builder6derive14FromArgMatches20from_arg_matches_mutsc_0B9_
FNDA:0,_RNCNvXs2_NtCsig2bDfqTEfX_18jito_restaking_cli5vaultNtB7_12VaultActionsNtNtCsahdYqEJor9n_12clap_builder6derive14FromArgMatches20from_arg_matches_mutsd_0B9_
FNDA:0,_RNCNvXs2_NtCsig2bDfqTEfX_18jito_restaking_cli5vaultNtB7_12VaultActionsNtNtCsahdYqEJor9n_12clap_builder6derive14FromArgMatches20from_arg_matches_mutse_0B9_
FNDA:0,_RNCNvXs2_NtCsig2bDfqTEfX_18jito_restaking_cli5vaultNtB7_12VaultActionsNtNtCsahdYqEJor9n_12clap_builder6derive14FromArgMatches20from_arg_matches_mutsf_0B9_
FNDA:0,_RNCNvXs2_NtCsig2bDfqTEfX_18jito_restaking_cli5vaultNtB7_12VaultActionsNtNtCsahdYqEJor9n_12clap_builder6derive14FromArgMatches20from_arg_matches_mutsg_0B9_
FNDA:0,_RNCNvXs2_NtCsig2bDfqTEfX_18jito_restaking_cli5vaultNtB7_12VaultActionsNtNtCsahdYqEJor9n_12clap_builder6derive14FromArgMatches20from_arg_matches_mutsh_0B9_
FNDA:0,_RNCNvXs2_NtCsig2bDfqTEfX_18jito_restaking_cli5vaultNtB7_12VaultActionsNtNtCsahdYqEJor9n_12clap_builder6derive14FromArgMatches20from_arg_matches_mutsi_0B9_
FNDA:0,_RNCNvXs2_NtCsig2bDfqTEfX_18jito_restaking_cli5vaultNtB7_12VaultActionsNtNtCsahdYqEJor9n_12clap_builder6derive14FromArgMatches20from_arg_matches_mutsj_0B9_
FNDA:0,_RNCNvXs2_NtCsig2bDfqTEfX_18jito_restaking_cli5vaultNtB7_12VaultActionsNtNtCsahdYqEJor9n_12clap_builder6derive14FromArgMatches20from_arg_matches_mutsk_0B9_
FNDA:0,_RNCNvXs2_NtCsig2bDfqTEfX_18jito_restaking_cli5vaultNtB7_12VaultActionsNtNtCsahdYqEJor9n_12clap_builder6derive14FromArgMatches20from_arg_matches_mutsl_0B9_
FNDA:0,_RNCNvXs2_NtCsig2bDfqTEfX_18jito_restaking_cli5vaultNtB7_12VaultActionsNtNtCsahdYqEJor9n_12clap_builder6derive14FromArgMatches20from_arg_matches_mutsm_0B9_
FNDA:0,_RNCNvXs2_NtCsig2bDfqTEfX_18jito_restaking_cli5vaultNtB7_12VaultActionsNtNtCsahdYqEJor9n_12clap_builder6derive14FromArgMatches20from_arg_matches_mutsn_0B9_
FNDA:0,_RNCNvXs2_NtCsig2bDfqTEfX_18jito_restaking_cli5vaultNtB7_12VaultActionsNtNtCsahdYqEJor9n_12clap_builder6derive14FromArgMatches20from_arg_matches_mutso_0B9_
FNDA:0,_RNCNvXs2_NtCsig2bDfqTEfX_18jito_restaking_cli5vaultNtB7_12VaultActionsNtNtCsahdYqEJor9n_12clap_builder6derive14FromArgMatches20from_arg_matches_mutsp_0B9_
FNDA:0,_RNCNvXs2_NtCsig2bDfqTEfX_18jito_restaking_cli5vaultNtB7_12VaultActionsNtNtCsahdYqEJor9n_12clap_builder6derive14FromArgMatches20from_arg_matches_mutsq_0B9_
FNDA:0,_RNCNvXs2_NtCsig2bDfqTEfX_18jito_restaking_cli5vaultNtB7_12VaultActionsNtNtCsahdYqEJor9n_12clap_builder6derive14FromArgMatches20from_arg_matches_mutsr_0B9_
FNDA:0,_RNCNvXs2_NtCsig2bDfqTEfX_18jito_restaking_cli5vaultNtB7_12VaultActionsNtNtCsahdYqEJor9n_12clap_builder6derive14FromArgMatches20from_arg_matches_mutss_0B9_
FNDA:0,_RNCNvXs2_NtCsig2bDfqTEfX_18jito_restaking_cli5vaultNtB7_12VaultActionsNtNtCsahdYqEJor9n_12clap_builder6derive14FromArgMatches20from_arg_matches_mutst_0B9_
FNDA:0,_RNCNvXs2_NtCsig2bDfqTEfX_18jito_restaking_cli5vaultNtB7_12VaultActionsNtNtCsahdYqEJor9n_12clap_builder6derive14FromArgMatches20from_arg_matches_mutsu_0B9_
FNDA:0,_RNCNvXs2_NtCsig2bDfqTEfX_18jito_restaking_cli5vaultNtB7_12VaultActionsNtNtCsahdYqEJor9n_12clap_builder6derive14FromArgMatches20from_arg_matches_mutsv_0B9_
FNDA:0,_RNCNvXs2_NtCsig2bDfqTEfX_18jito_restaking_cli5vaultNtB7_12VaultActionsNtNtCsahdYqEJor9n_12clap_builder6derive14FromArgMatches20from_arg_matches_mutsw_0B9_
FNDA:0,_RNCNvXs2_NtCsig2bDfqTEfX_18jito_restaking_cli5vaultNtB7_12VaultActionsNtNtCsahdYqEJor9n_12clap_builder6derive14FromArgMatches27update_from_arg_matches_mut0B9_
FNDA:0,_RNCNvXs2_NtCsig2bDfqTEfX_18jito_restaking_cli5vaultNtB7_12VaultActionsNtNtCsahdYqEJor9n_12clap_builder6derive14FromArgMatches27update_from_arg_matches_muts_0B9_
FNDA:0,_RNCNvXs2_NtCsig2bDfqTEfX_18jito_restaking_cli5vaultNtB7_12VaultActionsNtNtCsahdYqEJor9n_12clap_builder6derive14FromArgMatches27update_from_arg_matches_muts0_0B9_
FNDA:0,_RNCNvXs2_NtCsig2bDfqTEfX_18jito_restaking_cli5vaultNtB7_12VaultActionsNtNtCsahdYqEJor9n_12clap_builder6derive14FromArgMatches27update_from_arg_matches_muts1_0B9_
FNDA:0,_RNCNvXs2_NtCsig2bDfqTEfX_18jito_restaking_cli5vaultNtB7_12VaultActionsNtNtCsahdYqEJor9n_12clap_builder6derive14FromArgMatches27update_from_arg_matches_muts2_0B9_
FNDA:0,_RNCNvXs2_NtCsig2bDfqTEfX_18jito_restaking_cli5vaultNtB7_12VaultActionsNtNtCsahdYqEJor9n_12clap_builder6derive14FromArgMatches27update_from_arg_matches_muts3_0B9_
FNDA:0,_RNCNvXs2_NtCsig2bDfqTEfX_18jito_restaking_cli5vaultNtB7_12VaultActionsNtNtCsahdYqEJor9n_12clap_builder6derive14FromArgMatches27update_from_arg_matches_muts4_0B9_
FNDA:0,_RNCNvXs2_NtCsig2bDfqTEfX_18jito_restaking_cli5vaultNtB7_12VaultActionsNtNtCsahdYqEJor9n_12clap_builder6derive14FromArgMatches27update_from_arg_matches_muts5_0B9_
FNDA:0,_RNCNvXs2_NtCsig2bDfqTEfX_18jito_restaking_cli5vaultNtB7_12VaultActionsNtNtCsahdYqEJor9n_12clap_builder6derive14FromArgMatches27update_from_arg_matches_muts6_0B9_
FNDA:0,_RNCNvXs2_NtCsig2bDfqTEfX_18jito_restaking_cli5vaultNtB7_12VaultActionsNtNtCsahdYqEJor9n_12clap_builder6derive14FromArgMatches27update_from_arg_matches_muts7_0B9_
FNDA:0,_RNCNvXs2_NtCsig2bDfqTEfX_18jito_restaking_cli5vaultNtB7_12VaultActionsNtNtCsahdYqEJor9n_12clap_builder6derive14FromArgMatches27update_from_arg_matches_muts8_0B9_
FNDA:0,_RNCNvXs2_NtCsig2bDfqTEfX_18jito_restaking_cli5vaultNtB7_12VaultActionsNtNtCsahdYqEJor9n_12clap_builder6derive14FromArgMatches27update_from_arg_matches_muts9_0B9_
FNDA:0,_RNCNvXs2_NtCsig2bDfqTEfX_18jito_restaking_cli5vaultNtB7_12VaultActionsNtNtCsahdYqEJor9n_12clap_builder6derive14FromArgMatches27update_from_arg_matches_mutsa_0B9_
FNDA:0,_RNCNvXs2_NtCsig2bDfqTEfX_18jito_restaking_cli5vaultNtB7_12VaultActionsNtNtCsahdYqEJor9n_12clap_builder6derive14FromArgMatches27update_from_arg_matches_mutsb_0B9_
FNDA:0,_RNCNvXs2_NtCsig2bDfqTEfX_18jito_restaking_cli5vaultNtB7_12VaultActionsNtNtCsahdYqEJor9n_12clap_builder6derive14FromArgMatches27update_from_arg_matches_mutsc_0B9_
FNDA:0,_RNCNvXs2_NtCsig2bDfqTEfX_18jito_restaking_cli5vaultNtB7_12VaultActionsNtNtCsahdYqEJor9n_12clap_builder6derive14FromArgMatches27update_from_arg_matches_mutsd_0B9_
FNDA:0,_RNCNvXs2_NtCsig2bDfqTEfX_18jito_restaking_cli5vaultNtB7_12VaultActionsNtNtCsahdYqEJor9n_12clap_builder6derive14FromArgMatches27update_from_arg_matches_mutse_0B9_
FNDA:0,_RNCNvXs2_NtCsig2bDfqTEfX_18jito_restaking_cli5vaultNtB7_12VaultActionsNtNtCsahdYqEJor9n_12clap_builder6derive14FromArgMatches27update_from_arg_matches_mutsf_0B9_
FNDA:0,_RNCNvXs2_NtCsig2bDfqTEfX_18jito_restaking_cli5vaultNtB7_12VaultActionsNtNtCsahdYqEJor9n_12clap_builder6derive14FromArgMatches27update_from_arg_matches_mutsg_0B9_
FNDA:0,_RNCNvXs2_NtCsig2bDfqTEfX_18jito_restaking_cli5vaultNtB7_12VaultActionsNtNtCsahdYqEJor9n_12clap_builder6derive14FromArgMatches27update_from_arg_matches_mutsh_0B9_
FNDA:0,_RNCNvXs2_NtCsig2bDfqTEfX_18jito_restaking_cli5vaultNtB7_12VaultActionsNtNtCsahdYqEJor9n_12clap_builder6derive14FromArgMatches27update_from_arg_matches_mutsi_0B9_
FNDA:0,_RNCNvXs2_NtCsig2bDfqTEfX_18jito_restaking_cli5vaultNtB7_12VaultActionsNtNtCsahdYqEJor9n_12clap_builder6derive14FromArgMatches27update_from_arg_matches_mutsj_0B9_
FNDA:0,_RNCNvXs2_NtCsig2bDfqTEfX_18jito_restaking_cli5vaultNtB7_12VaultActionsNtNtCsahdYqEJor9n_12clap_builder6derive14FromArgMatches27update_from_arg_matches_mutsk_0B9_
FNDA:0,_RNCNvXs2_NtCsig2bDfqTEfX_18jito_restaking_cli5vaultNtB7_12VaultActionsNtNtCsahdYqEJor9n_12clap_builder6derive14FromArgMatches27update_from_arg_matches_mutsl_0B9_
FNDA:0,_RNCNvXs2_NtCsig2bDfqTEfX_18jito_restaking_cli5vaultNtB7_12VaultActionsNtNtCsahdYqEJor9n_12clap_builder6derive14FromArgMatches27update_from_arg_matches_mutsm_0B9_
FNDA:0,_RNCNvXs2_NtCsig2bDfqTEfX_18jito_restaking_cli5vaultNtB7_12VaultActionsNtNtCsahdYqEJor9n_12clap_builder6derive14FromArgMatches27update_from_arg_matches_mutsn_0B9_
FNDA:0,_RNCNvXs2_NtCsig2bDfqTEfX_18jito_restaking_cli5vaultNtB7_12VaultActionsNtNtCsahdYqEJor9n_12clap_builder6derive14FromArgMatches27update_from_arg_matches_mutso_0B9_
FNDA:0,_RNCNvXs2_NtCsig2bDfqTEfX_18jito_restaking_cli5vaultNtB7_12VaultActionsNtNtCsahdYqEJor9n_12clap_builder6derive14FromArgMatches27update_from_arg_matches_mutsp_0B9_
FNDA:0,_RNCNvXs2_NtCsig2bDfqTEfX_18jito_restaking_cli5vaultNtB7_12VaultActionsNtNtCsahdYqEJor9n_12clap_builder6derive14FromArgMatches27update_from_arg_matches_mutsq_0B9_
FNDA:0,_RNCNvXs2_NtCsig2bDfqTEfX_18jito_restaking_cli5vaultNtB7_12VaultActionsNtNtCsahdYqEJor9n_12clap_builder6derive14FromArgMatches27update_from_arg_matches_mutsr_0B9_
FNDA:0,_RNCNvXs2_NtCsig2bDfqTEfX_18jito_restaking_cli5vaultNtB7_12VaultActionsNtNtCsahdYqEJor9n_12clap_builder6derive14FromArgMatches27update_from_arg_matches_mutss_0B9_
FNDA:0,_RNCNvXs2_NtCsig2bDfqTEfX_18jito_restaking_cli5vaultNtB7_12VaultActionsNtNtCsahdYqEJor9n_12clap_builder6derive14FromArgMatches27update_from_arg_matches_mutst_0B9_
FNDA:0,_RNCNvXs2_NtCsig2bDfqTEfX_18jito_restaking_cli5vaultNtB7_12VaultActionsNtNtCsahdYqEJor9n_12clap_builder6derive14FromArgMatches27update_from_arg_matches_mutsu_0B9_
FNDA:0,_RNCNvXs2_NtCsig2bDfqTEfX_18jito_restaking_cli5vaultNtB7_12VaultActionsNtNtCsahdYqEJor9n_12clap_builder6derive14FromArgMatches27update_from_arg_matches_mutsv_0B9_
FNDA:0,_RNCNvXs2_NtCsig2bDfqTEfX_18jito_restaking_cli5vaultNtB7_12VaultActionsNtNtCsahdYqEJor9n_12clap_builder6derive14FromArgMatches27update_from_arg_matches_mutsw_0B9_
FNF:38
FNH:0
DA:21,0
DA:23,0
DA:30,0
DA:40,0
DA:42,0
DA:44,0
DA:46,0
DA:48,0
DA:53,0
DA:55,0
DA:57,0
DA:59,0
DA:64,0
DA:69,0
DA:71,0
DA:76,0
DA:83,0
DA:85,0
DA:87,0
DA:92,0
DA:94,0
DA:99,0
DA:101,0
DA:103,0
DA:108,0
DA:110,0
DA:112,0
DA:117,0
DA:119,0
DA:124,0
DA:129,0
DA:131,0
DA:136,0
DA:138,0
DA:142,0
DA:149,0
DA:156,0
DA:158,0
BRF:0
BRH:0
LF:38
LH:0
end_of_record
SF:/Users/coach/Documents/Jito/restaking/cli/src/vault_handler.rs
FN:50,_RNvMNtCsig2bDfqTEfX_18jito_restaking_cli13vault_handlerNtB2_15VaultCliHandler3new
FN:62,_RNvMNtCsig2bDfqTEfX_18jito_restaking_cli13vault_handlerNtB2_15VaultCliHandler14get_rpc_client
FN:66,_RNvMNtCsig2bDfqTEfX_18jito_restaking_cli13vault_handlerNtB2_15VaultCliHandler6handle
FN:66,_RNCNvMNtCsig2bDfqTEfX_18jito_restaking_cli13vault_handlerNtB4_15VaultCliHandler6handle0B6_
FN:184,_RNvMNtCsig2bDfqTEfX_18jito_restaking_cli13vault_handlerNtB2_15VaultCliHandler17initialize_config
FN:188,_RNCNvMNtCsig2bDfqTEfX_18jito_restaking_cli13vault_handlerNtB4_15VaultCliHandler17initialize_config0B6_
FN:193,_RNCNCNvMNtCsig2bDfqTEfX_18jito_restaking_cli13vault_handlerNtB6_15VaultCliHandler17initialize_config00B8_
FN:223,_RNvMNtCsig2bDfqTEfX_18jito_restaking_cli13vault_handlerNtB2_15VaultCliHandler16initialize_vault
FN:230,_RNCNvMNtCsig2bDfqTEfX_18jito_restaking_cli13vault_handlerNtB4_15VaultCliHandler16initialize_vault0B6_
FN:236,_RNCNCNvMNtCsig2bDfqTEfX_18jito_restaking_cli13vault_handlerNtB6_15VaultCliHandler16initialize_vault00B8_
FN:276,_RNvMNtCsig2bDfqTEfX_18jito_restaking_cli13vault_handlerNtB2_15VaultCliHandler21create_token_metadata
FN:282,_RNCNvMNtCsig2bDfqTEfX_18jito_restaking_cli13vault_handlerNtB4_15VaultCliHandler21create_token_metadata0B6_
FN:287,_RNCNCNvMNtCsig2bDfqTEfX_18jito_restaking_cli13vault_handlerNtB6_15VaultCliHandler21create_token_metadata00B8_
FN:330,_RNCNCNvMNtCsig2bDfqTEfX_18jito_restaking_cli13vault_handlerNtB6_15VaultCliHandler21create_token_metadata0s_0B8_
FN:338,_RNvMNtCsig2bDfqTEfX_18jito_restaking_cli13vault_handlerNtB2_15VaultCliHandler37initialize_vault_update_state_tracker
FN:338,_RNCNvMNtCsig2bDfqTEfX_18jito_restaking_cli13vault_handlerNtB4_15VaultCliHandler37initialize_vault_update_state_tracker0B6_
FN:343,_RNCNCNvMNtCsig2bDfqTEfX_18jito_restaking_cli13vault_handlerNtB6_15VaultCliHandler37initialize_vault_update_state_tracker00B8_
FN:402,_RNvMNtCsig2bDfqTEfX_18jito_restaking_cli13vault_handlerNtB2_15VaultCliHandler32crank_vault_update_state_tracker
FN:406,_RNCNvMNtCsig2bDfqTEfX_18jito_restaking_cli13vault_handlerNtB4_15VaultCliHandler32crank_vault_update_state_tracker0B6_
FN:413,_RNCNCNvMNtCsig2bDfqTEfX_18jito_restaking_cli13vault_handlerNtB6_15VaultCliHandler32crank_vault_update_state_tracker00B8_
FN:474,_RNvMNtCsig2bDfqTEfX_18jito_restaking_cli13vault_handlerNtB2_15VaultCliHandler32close_vault_update_state_tracker
FN:478,_RNCNvMNtCsig2bDfqTEfX_18jito_restaking_cli13vault_handlerNtB4_15VaultCliHandler32close_vault_update_state_tracker0B6_
FN:483,_RNCNCNvMNtCsig2bDfqTEfX_18jito_restaking_cli13vault_handlerNtB6_15VaultCliHandler32close_vault_update_state_tracker00B8_
FN:539,_RNvMNtCsig2bDfqTEfX_18jito_restaking_cli13vault_handlerNtB2_15VaultCliHandler8mint_vrt
FN:539,_RNCNvMNtCsig2bDfqTEfX_18jito_restaking_cli13vault_handlerNtB4_15VaultCliHandler8mint_vrt0B6_
FN:544,_RNCNCNvMNtCsig2bDfqTEfX_18jito_restaking_cli13vault_handlerNtB6_15VaultCliHandler8mint_vrt00B8_
FN:629,_RNvMNtCsig2bDfqTEfX_18jito_restaking_cli13vault_handlerNtB2_15VaultCliHandler36initialize_vault_operator_delegation
FN:633,_RNCNvMNtCsig2bDfqTEfX_18jito_restaking_cli13vault_handlerNtB4_15VaultCliHandler36initialize_vault_operator_delegation0B6_
FN:638,_RNCNCNvMNtCsig2bDfqTEfX_18jito_restaking_cli13vault_handlerNtB6_15VaultCliHandler36initialize_vault_operator_delegation00B8_
FN:690,_RNvMNtCsig2bDfqTEfX_18jito_restaking_cli13vault_handlerNtB2_15VaultCliHandler20delegate_to_operator
FN:695,_RNCNvMNtCsig2bDfqTEfX_18jito_restaking_cli13vault_handlerNtB4_15VaultCliHandler20delegate_to_operator0B6_
FN:700,_RNCNCNvMNtCsig2bDfqTEfX_18jito_restaking_cli13vault_handlerNtB6_15VaultCliHandler20delegate_to_operator00B8_
FN:742,_RNvMNtCsig2bDfqTEfX_18jito_restaking_cli13vault_handlerNtB2_15VaultCliHandler28cooldown_operator_delegation
FN:747,_RNCNvMNtCsig2bDfqTEfX_18jito_restaking_cli13vault_handlerNtB4_15VaultCliHandler28cooldown_operator_delegation0B6_
FN:752,_RNCNCNvMNtCsig2bDfqTEfX_18jito_restaking_cli13vault_handlerNtB6_15VaultCliHandler28cooldown_operator_delegation00B8_
FN:794,_RNvMNtCsig2bDfqTEfX_18jito_restaking_cli13vault_handlerNtB2_15VaultCliHandler18enqueue_withdrawal
FN:794,_RNCNvMNtCsig2bDfqTEfX_18jito_restaking_cli13vault_handlerNtB4_15VaultCliHandler18enqueue_withdrawal0B6_
FN:799,_RNCNCNvMNtCsig2bDfqTEfX_18jito_restaking_cli13vault_handlerNtB6_15VaultCliHandler18enqueue_withdrawal00B8_
FN:864,_RNvMNtCsig2bDfqTEfX_18jito_restaking_cli13vault_handlerNtB2_15VaultCliHandler22burn_withdrawal_ticket
FN:864,_RNCNvMNtCsig2bDfqTEfX_18jito_restaking_cli13vault_handlerNtB4_15VaultCliHandler22burn_withdrawal_ticket0B6_
FN:869,_RNCNCNvMNtCsig2bDfqTEfX_18jito_restaking_cli13vault_handlerNtB6_15VaultCliHandler22burn_withdrawal_ticket00B8_
FN:950,_RNvMNtCsig2bDfqTEfX_18jito_restaking_cli13vault_handlerNtB2_15VaultCliHandler9get_vault
FN:950,_RNCNvMNtCsig2bDfqTEfX_18jito_restaking_cli13vault_handlerNtB4_15VaultCliHandler9get_vault0B6_
FN:959,_RNvMNtCsig2bDfqTEfX_18jito_restaking_cli13vault_handlerNtB2_15VaultCliHandler11list_vaults
FN:959,_RNCNvMNtCsig2bDfqTEfX_18jito_restaking_cli13vault_handlerNtB4_15VaultCliHandler11list_vaults0B6_
FN:986,_RNvMNtCsig2bDfqTEfX_18jito_restaking_cli13vault_handlerNtB2_15VaultCliHandler10get_config
FN:986,_RNCNvMNtCsig2bDfqTEfX_18jito_restaking_cli13vault_handlerNtB4_15VaultCliHandler10get_config0B6_
FN:1001,_RNvMNtCsig2bDfqTEfX_18jito_restaking_cli13vault_handlerNtB2_15VaultCliHandler30get_vault_update_state_tracker
FN:1005,_RNCNvMNtCsig2bDfqTEfX_18jito_restaking_cli13vault_handlerNtB4_15VaultCliHandler30get_vault_update_state_tracker0B6_
FN:1020,_RNvMNtCsig2bDfqTEfX_18jito_restaking_cli13vault_handlerNtB2_15VaultCliHandler29get_vault_operator_delegation
FN:1024,_RNCNvMNtCsig2bDfqTEfX_18jito_restaking_cli13vault_handlerNtB4_15VaultCliHandler29get_vault_operator_delegation0B6_
FN:1040,_RNvMNtCsig2bDfqTEfX_18jito_restaking_cli13vault_handlerNtB2_15VaultCliHandler21get_withdrawal_ticket
FN:1040,_RNCNvMNtCsig2bDfqTEfX_18jito_restaking_cli13vault_handlerNtB4_15VaultCliHandler21get_withdrawal_ticket0B6_
FN:1050,_RNCNCNvMNtCsig2bDfqTEfX_18jito_restaking_cli13vault_handlerNtB6_15VaultCliHandler21get_withdrawal_ticket00B8_
FN:1068,_RNvMNtCsig2bDfqTEfX_18jito_restaking_cli13vault_handlerNtB2_15VaultCliHandler12set_capacity
FN:1068,_RNCNvMNtCsig2bDfqTEfX_18jito_restaking_cli13vault_handlerNtB4_15VaultCliHandler12set_capacity0B6_
FN:1073,_RNCNCNvMNtCsig2bDfqTEfX_18jito_restaking_cli13vault_handlerNtB6_15VaultCliHandler12set_capacity00B8_
FN:1100,_RNCNCNvMNtCsig2bDfqTEfX_18jito_restaking_cli13vault_handlerNtB6_15VaultCliHandler12set_capacity0s_0B8_
FN:1106,_RNvMNtCsig2bDfqTEfX_18jito_restaking_cli13vault_handlerNtB2_15VaultCliHandler16set_config_admin
FN:1106,_RNCNvMNtCsig2bDfqTEfX_18jito_restaking_cli13vault_handlerNtB4_15VaultCliHandler16set_config_admin0B6_
FN:1111,_RNCNCNvMNtCsig2bDfqTEfX_18jito_restaking_cli13vault_handlerNtB6_15VaultCliHandler16set_config_admin00B8_
FNDA:0,_RNvMNtCsig2bDfqTEfX_18jito_restaking_cli13vault_handlerNtB2_15VaultCliHandler3new
FNDA:0,_RNvMNtCsig2bDfqTEfX_18jito_restaking_cli13vault_handlerNtB2_15VaultCliHandler14get_rpc_client
FNDA:0,_RNvMNtCsig2bDfqTEfX_18jito_restaking_cli13vault_handlerNtB2_15VaultCliHandler6handle
FNDA:0,_RNCNvMNtCsig2bDfqTEfX_18jito_restaking_cli13vault_handlerNtB4_15VaultCliHandler6handle0B6_
FNDA:0,_RNvMNtCsig2bDfqTEfX_18jito_restaking_cli13vault_handlerNtB2_15VaultCliHandler17initialize_config
FNDA:0,_RNCNvMNtCsig2bDfqTEfX_18jito_restaking_cli13vault_handlerNtB4_15VaultCliHandler17initialize_config0B6_
FNDA:0,_RNCNCNvMNtCsig2bDfqTEfX_18jito_restaking_cli13vault_handlerNtB6_15VaultCliHandler17initialize_config00B8_
FNDA:0,_RNvMNtCsig2bDfqTEfX_18jito_restaking_cli13vault_handlerNtB2_15VaultCliHandler16initialize_vault
FNDA:0,_RNCNvMNtCsig2bDfqTEfX_18jito_restaking_cli13vault_handlerNtB4_15VaultCliHandler16initialize_vault0B6_
FNDA:0,_RNCNCNvMNtCsig2bDfqTEfX_18jito_restaking_cli13vault_handlerNtB6_15VaultCliHandler16initialize_vault00B8_
FNDA:0,_RNvMNtCsig2bDfqTEfX_18jito_restaking_cli13vault_handlerNtB2_15VaultCliHandler21create_token_metadata
FNDA:0,_RNCNvMNtCsig2bDfqTEfX_18jito_restaking_cli13vault_handlerNtB4_15VaultCliHandler21create_token_metadata0B6_
FNDA:0,_RNCNCNvMNtCsig2bDfqTEfX_18jito_restaking_cli13vault_handlerNtB6_15VaultCliHandler21create_token_metadata00B8_
FNDA:0,_RNCNCNvMNtCsig2bDfqTEfX_18jito_restaking_cli13vault_handlerNtB6_15VaultCliHandler21create_token_metadata0s_0B8_
FNDA:0,_RNvMNtCsig2bDfqTEfX_18jito_restaking_cli13vault_handlerNtB2_15VaultCliHandler37initialize_vault_update_state_tracker
FNDA:0,_RNCNvMNtCsig2bDfqTEfX_18jito_restaking_cli13vault_handlerNtB4_15VaultCliHandler37initialize_vault_update_state_tracker0B6_
FNDA:0,_RNCNCNvMNtCsig2bDfqTEfX_18jito_restaking_cli13vault_handlerNtB6_15VaultCliHandler37initialize_vault_update_state_tracker00B8_
FNDA:0,_RNvMNtCsig2bDfqTEfX_18jito_restaking_cli13vault_handlerNtB2_15VaultCliHandler32crank_vault_update_state_tracker
FNDA:0,_RNCNvMNtCsig2bDfqTEfX_18jito_restaking_cli13vault_handlerNtB4_15VaultCliHandler32crank_vault_update_state_tracker0B6_
FNDA:0,_RNCNCNvMNtCsig2bDfqTEfX_18jito_restaking_cli13vault_handlerNtB6_15VaultCliHandler32crank_vault_update_state_tracker00B8_
FNDA:0,_RNvMNtCsig2bDfqTEfX_18jito_restaking_cli13vault_handlerNtB2_15VaultCliHandler32close_vault_update_state_tracker
FNDA:0,_RNCNvMNtCsig2bDfqTEfX_18jito_restaking_cli13vault_handlerNtB4_15VaultCliHandler32close_vault_update_state_tracker0B6_
FNDA:0,_RNCNCNvMNtCsig2bDfqTEfX_18jito_restaking_cli13vault_handlerNtB6_15VaultCliHandler32close_vault_update_state_tracker00B8_
FNDA:0,_RNvMNtCsig2bDfqTEfX_18jito_restaking_cli13vault_handlerNtB2_15VaultCliHandler8mint_vrt
FNDA:0,_RNCNvMNtCsig2bDfqTEfX_18jito_restaking_cli13vault_handlerNtB4_15VaultCliHandler8mint_vrt0B6_
FNDA:0,_RNCNCNvMNtCsig2bDfqTEfX_18jito_restaking_cli13vault_handlerNtB6_15VaultCliHandler8mint_vrt00B8_
FNDA:0,_RNvMNtCsig2bDfqTEfX_18jito_restaking_cli13vault_handlerNtB2_15VaultCliHandler36initialize_vault_operator_delegation
FNDA:0,_RNCNvMNtCsig2bDfqTEfX_18jito_restaking_cli13vault_handlerNtB4_15VaultCliHandler36initialize_vault_operator_delegation0B6_
FNDA:0,_RNCNCNvMNtCsig2bDfqTEfX_18jito_restaking_cli13vault_handlerNtB6_15VaultCliHandler36initialize_vault_operator_delegation00B8_
FNDA:0,_RNvMNtCsig2bDfqTEfX_18jito_restaking_cli13vault_handlerNtB2_15VaultCliHandler20delegate_to_operator
FNDA:0,_RNCNvMNtCsig2bDfqTEfX_18jito_restaking_cli13vault_handlerNtB4_15VaultCliHandler20delegate_to_operator0B6_
FNDA:0,_RNCNCNvMNtCsig2bDfqTEfX_18jito_restaking_cli13vault_handlerNtB6_15VaultCliHandler20delegate_to_operator00B8_
FNDA:0,_RNvMNtCsig2bDfqTEfX_18jito_restaking_cli13vault_handlerNtB2_15VaultCliHandler28cooldown_operator_delegation
FNDA:0,_RNCNvMNtCsig2bDfqTEfX_18jito_restaking_cli13vault_handlerNtB4_15VaultCliHandler28cooldown_operator_delegation0B6_
FNDA:0,_RNCNCNvMNtCsig2bDfqTEfX_18jito_restaking_cli13vault_handlerNtB6_15VaultCliHandler28cooldown_operator_delegation00B8_
FNDA:0,_RNvMNtCsig2bDfqTEfX_18jito_restaking_cli13vault_handlerNtB2_15VaultCliHandler18enqueue_withdrawal
FNDA:0,_RNCNvMNtCsig2bDfqTEfX_18jito_restaking_cli13vault_handlerNtB4_15VaultCliHandler18enqueue_withdrawal0B6_
FNDA:0,_RNCNCNvMNtCsig2bDfqTEfX_18jito_restaking_cli13vault_handlerNtB6_15VaultCliHandler18enqueue_withdrawal00B8_
FNDA:0,_RNvMNtCsig2bDfqTEfX_18jito_restaking_cli13vault_handlerNtB2_15VaultCliHandler22burn_withdrawal_ticket
FNDA:0,_RNCNvMNtCsig2bDfqTEfX_18jito_restaking_cli13vault_handlerNtB4_15VaultCliHandler22burn_withdrawal_ticket0B6_
FNDA:0,_RNCNCNvMNtCsig2bDfqTEfX_18jito_restaking_cli13vault_handlerNtB6_15VaultCliHandler22burn_withdrawal_ticket00B8_
FNDA:0,_RNvMNtCsig2bDfqTEfX_18jito_restaking_cli13vault_handlerNtB2_15VaultCliHandler9get_vault
FNDA:0,_RNCNvMNtCsig2bDfqTEfX_18jito_restaking_cli13vault_handlerNtB4_15VaultCliHandler9get_vault0B6_
FNDA:0,_RNvMNtCsig2bDfqTEfX_18jito_restaking_cli13vault_handlerNtB2_15VaultCliHandler11list_vaults
FNDA:0,_RNCNvMNtCsig2bDfqTEfX_18jito_restaking_cli13vault_handlerNtB4_15VaultCliHandler11list_vaults0B6_
FNDA:0,_RNvMNtCsig2bDfqTEfX_18jito_restaking_cli13vault_handlerNtB2_15VaultCliHandler10get_config
FNDA:0,_RNCNvMNtCsig2bDfqTEfX_18jito_restaking_cli13vault_handlerNtB4_15VaultCliHandler10get_config0B6_
FNDA:0,_RNvMNtCsig2bDfqTEfX_18jito_restaking_cli13vault_handlerNtB2_15VaultCliHandler30get_vault_update_state_tracker
FNDA:0,_RNCNvMNtCsig2bDfqTEfX_18jito_restaking_cli13vault_handlerNtB4_15VaultCliHandler30get_vault_update_state_tracker0B6_
FNDA:0,_RNvMNtCsig2bDfqTEfX_18jito_restaking_cli13vault_handlerNtB2_15VaultCliHandler29get_vault_operator_delegation
FNDA:0,_RNCNvMNtCsig2bDfqTEfX_18jito_restaking_cli13vault_handlerNtB4_15VaultCliHandler29get_vault_operator_delegation0B6_
FNDA:0,_RNvMNtCsig2bDfqTEfX_18jito_restaking_cli13vault_handlerNtB2_15VaultCliHandler21get_withdrawal_ticket
FNDA:0,_RNCNvMNtCsig2bDfqTEfX_18jito_restaking_cli13vault_handlerNtB4_15VaultCliHandler21get_withdrawal_ticket0B6_
FNDA:0,_RNCNCNvMNtCsig2bDfqTEfX_18jito_restaking_cli13vault_handlerNtB6_15VaultCliHandler21get_withdrawal_ticket00B8_
FNDA:0,_RNvMNtCsig2bDfqTEfX_18jito_restaking_cli13vault_handlerNtB2_15VaultCliHandler12set_capacity
FNDA:0,_RNCNvMNtCsig2bDfqTEfX_18jito_restaking_cli13vault_handlerNtB4_15VaultCliHandler12set_capacity0B6_
FNDA:0,_RNCNCNvMNtCsig2bDfqTEfX_18jito_restaking_cli13vault_handlerNtB6_15VaultCliHandler12set_capacity00B8_
FNDA:0,_RNCNCNvMNtCsig2bDfqTEfX_18jito_restaking_cli13vault_handlerNtB6_15VaultCliHandler12set_capacity0s_0B8_
FNDA:0,_RNvMNtCsig2bDfqTEfX_18jito_restaking_cli13vault_handlerNtB2_15VaultCliHandler16set_config_admin
FNDA:0,_RNCNvMNtCsig2bDfqTEfX_18jito_restaking_cli13vault_handlerNtB4_15VaultCliHandler16set_config_admin0B6_
FNDA:0,_RNCNCNvMNtCsig2bDfqTEfX_18jito_restaking_cli13vault_handlerNtB6_15VaultCliHandler16set_config_admin00B8_
FNF:61
FNH:0
DA:50,0
DA:51,0
DA:52,0
DA:53,0
DA:54,0
DA:55,0
DA:56,0
DA:57,0
DA:58,0
DA:59,0
DA:60,0
DA:62,0
DA:63,0
DA:64,0
DA:66,0
DA:67,0
DA:71,0
DA:72,0
DA:73,0
DA:74,0
DA:75,0
DA:76,0
DA:80,0
DA:82,0
DA:83,0
DA:87,0
DA:88,0
DA:89,0
DA:90,0
DA:91,0
DA:92,0
DA:93,0
DA:94,0
DA:95,0
DA:96,0
DA:97,0
DA:98,0
DA:99,0
DA:100,0
DA:101,0
DA:106,0
DA:107,0
DA:108,0
DA:109,0
DA:110,0
DA:111,0
DA:113,0
DA:114,0
DA:116,0
DA:117,0
DA:119,0
DA:120,0
DA:121,0
DA:122,0
DA:127,0
DA:128,0
DA:129,0
DA:130,0
DA:131,0
DA:133,0
DA:134,0
DA:135,0
DA:136,0
DA:141,0
DA:142,0
DA:143,0
DA:144,0
DA:145,0
DA:149,0
DA:150,0
DA:151,0
DA:152,0
DA:153,0
DA:154,0
DA:155,0
DA:158,0
DA:159,0
DA:161,0
DA:162,0
DA:164,0
DA:165,0
DA:167,0
DA:168,0
DA:170,0
DA:171,0
DA:173,0
DA:174,0
DA:177,0
DA:179,0
DA:180,0
DA:182,0
DA:184,0
DA:185,0
DA:186,0
DA:187,0
DA:188,0
DA:189,0
DA:190,0
DA:191,0
DA:192,0
DA:193,0
DA:194,0
DA:195,0
DA:196,0
DA:197,0
DA:198,0
DA:199,0
DA:200,0
DA:201,0
DA:202,0
DA:203,0
DA:205,0
DA:206,0
DA:207,0
DA:208,0
DA:209,0
DA:210,0
DA:211,0
DA:212,0
DA:213,0
DA:214,0
DA:215,0
DA:217,0
DA:218,0
DA:219,0
DA:220,0
DA:221,0
DA:223,0
DA:224,0
DA:225,0
DA:226,0
DA:227,0
DA:228,0
DA:229,0
DA:230,0
DA:231,0
DA:232,0
DA:233,0
DA:234,0
DA:235,0
DA:236,0
DA:237,0
DA:238,0
DA:239,0
DA:240,0
DA:241,0
DA:242,0
DA:243,0
DA:244,0
DA:245,0
DA:246,0
DA:247,0
DA:248,0
DA:249,0
DA:250,0
DA:251,0
DA:252,0
DA:253,0
DA:254,0
DA:255,0
DA:257,0
DA:258,0
DA:259,0
DA:260,0
DA:261,0
DA:262,0
DA:263,0
DA:264,0
DA:265,0
DA:266,0
DA:267,0
DA:268,0
DA:269,0
DA:270,0
DA:271,0
DA:273,0
DA:274,0
DA:276,0
DA:277,0
DA:278,0
DA:279,0
DA:280,0
DA:281,0
DA:282,0
DA:283,0
DA:284,0
DA:285,0
DA:286,0
DA:287,0
DA:288,0
DA:290,0
DA:291,0
DA:292,0
DA:294,0
DA:295,0
DA:296,0
DA:297,0
DA:298,0
DA:299,0
DA:300,0
DA:301,0
DA:302,0
DA:303,0
DA:304,0
DA:305,0
DA:306,0
DA:307,0
DA:308,0
DA:309,0
DA:310,0
DA:311,0
DA:312,0
DA:313,0
DA:315,0
DA:316,0
DA:317,0
DA:318,0
DA:319,0
DA:320,0
DA:321,0
DA:322,0
DA:323,0
DA:324,0
DA:325,0
DA:327,0
DA:328,0
DA:329,0
DA:330,0
DA:331,0
DA:333,0
DA:334,0
DA:338,0
DA:339,0
DA:340,0
DA:341,0
DA:342,0
DA:343,0
DA:344,0
DA:345,0
DA:346,0
DA:348,0
DA:349,0
DA:351,0
DA:352,0
DA:353,0
DA:355,0
DA:356,0
DA:357,0
DA:358,0
DA:359,0
DA:360,0
DA:361,0
DA:362,0
DA:363,0
DA:364,0
DA:365,0
DA:366,0
DA:367,0
DA:368,0
DA:369,0
DA:371,0
DA:372,0
DA:373,0
DA:374,0
DA:375,0
DA:376,0
DA:377,0
DA:378,0
DA:379,0
DA:380,0
DA:383,0
DA:385,0
DA:386,0
DA:387,0
DA:388,0
DA:389,0
DA:391,0
DA:392,0
DA:393,0
DA:394,0
DA:397,0
DA:399,0
DA:400,0
DA:402,0
DA:403,0
DA:404,0
DA:405,0
DA:406,0
DA:409,0
DA:410,0
DA:411,0
DA:412,0
DA:413,0
DA:414,0
DA:415,0
DA:416,0
DA:418,0
DA:419,0
DA:421,0
DA:422,0
DA:423,0
DA:424,0
DA:425,0
DA:426,0
DA:428,0
DA:429,0
DA:430,0
DA:432,0
DA:433,0
DA:434,0
DA:435,0
DA:436,0
DA:437,0
DA:438,0
DA:439,0
DA:440,0
DA:441,0
DA:442,0
DA:443,0
DA:444,0
DA:445,0
DA:446,0
DA:447,0
DA:448,0
DA:449,0
DA:450,0
DA:452,0
DA:453,0
DA:454,0
DA:455,0
DA:456,0
DA:457,0
DA:458,0
DA:459,0
DA:460,0
DA:461,0
DA:463,0
DA:465,0
DA:466,0
DA:467,0
DA:468,0
DA:469,0
DA:471,0
DA:472,0
DA:474,0
DA:475,0
DA:476,0
DA:477,0
DA:478,0
DA:479,0
DA:480,0
DA:481,0
DA:482,0
DA:483,0
DA:484,0
DA:485,0
DA:486,0
DA:488,0
DA:489,0
DA:491,0
DA:492,0
DA:494,0
DA:495,0
DA:496,0
DA:500,0
DA:501,0
DA:502,0
DA:503,0
DA:504,0
DA:505,0
DA:506,0
DA:507,0
DA:508,0
DA:509,0
DA:510,0
DA:511,0
DA:512,0
DA:513,0
DA:514,0
DA:516,0
DA:517,0
DA:518,0
DA:519,0
DA:520,0
DA:521,0
DA:522,0
DA:523,0
DA:524,0
DA:525,0
DA:527,0
DA:529,0
DA:530,0
DA:531,0
DA:532,0
DA:534,0
DA:535,0
DA:536,0
DA:539,0
DA:540,0
DA:541,0
DA:542,0
DA:543,0
DA:544,0
DA:545,0
DA:547,0
DA:549,0
DA:550,0
DA:552,0
DA:553,0
DA:554,0
DA:555,0
DA:556,0
DA:557,0
DA:558,0
DA:559,0
DA:560,0
DA:561,0
DA:562,0
DA:563,0
DA:564,0
DA:565,0
DA:566,0
DA:567,0
DA:568,0
DA:569,0
DA:570,0
DA:571,0
DA:572,0
DA:573,0
DA:574,0
DA:575,0
DA:576,0
DA:577,0
DA:578,0
DA:579,0
DA:580,0
DA:581,0
DA:582,0
DA:583,0
DA:584,0
DA:585,0
DA:586,0
DA:587,0
DA:588,0
DA:589,0
DA:590,0
DA:591,0
DA:592,0
DA:593,0
DA:594,0
DA:595,0
DA:596,0
DA:597,0
DA:598,0
DA:599,0
DA:600,0
DA:602,0
DA:603,0
DA:604,0
DA:605,0
DA:606,0
DA:607,0
DA:608,0
DA:609,0
DA:610,0
DA:611,0
DA:612,0
DA:613,0
DA:614,0
DA:615,0
DA:616,0
DA:618,0
DA:619,0
DA:620,0
DA:621,0
DA:622,0
DA:624,0
DA:626,0
DA:627,0
DA:629,0
DA:630,0
DA:631,0
DA:632,0
DA:633,0
DA:634,0
DA:635,0
DA:636,0
DA:637,0
DA:638,0
DA:639,0
DA:641,0
DA:642,0
DA:644,0
DA:645,0
DA:646,0
DA:647,0
DA:648,0
DA:649,0
DA:650,0
DA:651,0
DA:652,0
DA:653,0
DA:654,0
DA:655,0
DA:656,0
DA:657,0
DA:658,0
DA:659,0
DA:660,0
DA:661,0
DA:662,0
DA:663,0
DA:664,0
DA:665,0
DA:666,0
DA:668,0
DA:669,0
DA:670,0
DA:671,0
DA:672,0
DA:673,0
DA:674,0
DA:675,0
DA:676,0
DA:677,0
DA:679,0
DA:681,0
DA:682,0
DA:683,0
DA:684,0
DA:685,0
DA:687,0
DA:688,0
DA:690,0
DA:691,0
DA:692,0
DA:693,0
DA:694,0
DA:695,0
DA:696,0
DA:697,0
DA:698,0
DA:699,0
DA:700,0
DA:701,0
DA:703,0
DA:704,0
DA:706,0
DA:707,0
DA:708,0
DA:709,0
DA:710,0
DA:711,0
DA:712,0
DA:713,0
DA:714,0
DA:715,0
DA:716,0
DA:717,0
DA:718,0
DA:719,0
DA:720,0
DA:722,0
DA:723,0
DA:724,0
DA:725,0
DA:726,0
DA:727,0
DA:728,0
DA:729,0
DA:730,0
DA:732,0
DA:733,0
DA:734,0
DA:735,0
DA:736,0
DA:737,0
DA:739,0
DA:740,0
DA:742,0
DA:743,0
DA:744,0
DA:745,0
DA:746,0
DA:747,0
DA:748,0
DA:749,0
DA:750,0
DA:751,0
DA:752,0
DA:753,0
DA:755,0
DA:756,0
DA:758,0
DA:759,0
DA:760,0
DA:761,0
DA:762,0
DA:763,0
DA:764,0
DA:765,0
DA:766,0
DA:767,0
DA:768,0
DA:769,0
DA:770,0
DA:771,0
DA:772,0
DA:774,0
DA:775,0
DA:776,0
DA:777,0
DA:778,0
DA:779,0
DA:780,0
DA:781,0
DA:782,0
DA:784,0
DA:785,0
DA:786,0
DA:787,0
DA:788,0
DA:789,0
DA:791,0
DA:792,0
DA:794,0
DA:795,0
DA:796,0
DA:797,0
DA:798,0
DA:799,0
DA:800,0
DA:802,0
DA:803,0
DA:804,0
DA:806,0
DA:807,0
DA:808,0
DA:809,0
DA:810,0
DA:811,0
DA:812,0
DA:813,0
DA:814,0
DA:815,0
DA:816,0
DA:817,0
DA:818,0
DA:819,0
DA:820,0
DA:821,0
DA:822,0
DA:823,0
DA:824,0
DA:825,0
DA:826,0
DA:827,0
DA:828,0
DA:829,0
DA:830,0
DA:831,0
DA:832,0
DA:833,0
DA:834,0
DA:835,0
DA:836,0
DA:837,0
DA:839,0
DA:840,0
DA:841,0
DA:842,0
DA:843,0
DA:844,0
DA:845,0
DA:846,0
DA:847,0
DA:848,0
DA:849,0
DA:850,0
DA:851,0
DA:853,0
DA:855,0
DA:856,0
DA:857,0
DA:858,0
DA:859,0
DA:861,0
DA:862,0
DA:864,0
DA:865,0
DA:866,0
DA:867,0
DA:868,0
DA:869,0
DA:870,0
DA:872,0
DA:873,0
DA:874,0
DA:876,0
DA:877,0
DA:878,0
DA:879,0
DA:880,0
DA:881,0
DA:882,0
DA:883,0
DA:884,0
DA:885,0
DA:886,0
DA:887,0
DA:888,0
DA:889,0
DA:890,0
DA:891,0
DA:892,0
DA:893,0
DA:894,0
DA:895,0
DA:896,0
DA:897,0
DA:898,0
DA:900,0
DA:901,0
DA:902,0
DA:903,0
DA:904,0
DA:905,0
DA:906,0
DA:907,0
DA:908,0
DA:909,0
DA:910,0
DA:911,0
DA:912,0
DA:913,0
DA:914,0
DA:915,0
DA:916,0
DA:917,0
DA:918,0
DA:919,0
DA:920,0
DA:921,0
DA:922,0
DA:923,0
DA:924,0
DA:925,0
DA:927,0
DA:928,0
DA:929,0
DA:930,0
DA:931,0
DA:932,0
DA:933,0
DA:934,0
DA:935,0
DA:936,0
DA:938,0
DA:940,0
DA:941,0
DA:942,0
DA:943,0
DA:944,0
DA:946,0
DA:947,0
DA:950,0
DA:951,0
DA:952,0
DA:953,0
DA:954,0
DA:955,0
DA:956,0
DA:957,0
DA:959,0
DA:960,0
DA:961,0
DA:962,0
DA:963,0
DA:964,0
DA:965,0
DA:966,0
DA:967,0
DA:968,0
DA:969,0
DA:970,0
DA:971,0
DA:972,0
DA:973,0
DA:974,0
DA:975,0
DA:976,0
DA:977,0
DA:978,0
DA:979,0
DA:980,0
DA:981,0
DA:983,0
DA:984,0
DA:986,0
DA:987,0
DA:988,0
DA:989,0
DA:990,0
DA:991,0
DA:995,0
DA:996,0
DA:997,0
DA:998,0
DA:999,0
DA:1001,0
DA:1002,0
DA:1003,0
DA:1004,0
DA:1005,0
DA:1006,0
DA:1007,0
DA:1008,0
DA:1009,0
DA:1010,0
DA:1011,0
DA:1012,0
DA:1013,0
DA:1014,0
DA:1015,0
DA:1016,0
DA:1017,0
DA:1018,0
DA:1020,0
DA:1021,0
DA:1022,0
DA:1023,0
DA:1024,0
DA:1025,0
DA:1026,0
DA:1027,0
DA:1028,0
DA:1029,0
DA:1030,0
DA:1031,0
DA:1032,0
DA:1033,0
DA:1034,0
DA:1035,0
DA:1036,0
DA:1037,0
DA:1038,0
DA:1040,0
DA:1041,0
DA:1042,0
DA:1043,0
DA:1044,0
DA:1046,0
DA:1047,0
DA:1048,0
DA:1049,0
DA:1050,0
DA:1051,0
DA:1053,0
DA:1054,0
DA:1055,0
DA:1056,0
DA:1057,0
DA:1058,0
DA:1059,0
DA:1060,0
DA:1061,0
DA:1062,0
DA:1063,0
DA:1065,0
DA:1066,0
DA:1068,0
DA:1069,0
DA:1070,0
DA:1071,0
DA:1072,0
DA:1073,0
DA:1074,0
DA:1075,0
DA:1076,0
DA:1077,0
DA:1078,0
DA:1079,0
DA:1080,0
DA:1081,0
DA:1082,0
DA:1084,0
DA:1085,0
DA:1086,0
DA:1087,0
DA:1088,0
DA:1089,0
DA:1090,0
DA:1091,0
DA:1092,0
DA:1093,0
DA:1094,0
DA:1095,0
DA:1097,0
DA:1098,0
DA:1099,0
DA:1100,0
DA:1101,0
DA:1103,0
DA:1104,0
DA:1106,0
DA:1107,0
DA:1108,0
DA:1109,0
DA:1110,0
DA:1111,0
DA:1112,0
DA:1113,0
DA:1114,0
DA:1115,0
DA:1116,0
DA:1117,0
DA:1118,0
DA:1119,0
DA:1121,0
DA:1122,0
DA:1123,0
DA:1124,0
DA:1125,0
DA:1126,0
DA:1127,0
DA:1128,0
DA:1129,0
DA:1130,0
DA:1131,0
DA:1133,0
DA:1134,0
DA:1135,0
DA:1136,0
BRF:0
BRH:0
LF:971
LH:0
end_of_record
SF:/Users/coach/Documents/Jito/restaking/clients/rust/restaking_client/src/generated/accounts/config.rs
FN:11,_RINvXNvXNvNtNtNtCs7b1zZ6GD7vQ_21jito_restaking_client9generated8accounts6config1__NtB8_6ConfigNtNtCsdCf1W31ya0G_5serde3ser9Serialize9serializeNtB3_15___SerializeWithB1u_9serializepEBe_
FN:11,_RINvXs_NvXNvNtNtNtCs7b1zZ6GD7vQ_21jito_restaking_client9generated8accounts6config1__NtBa_6ConfigNtNtCsdCf1W31ya0G_5serde3ser9Serialize9serializeNtB5_s_15___SerializeWithB1w_9serializepEBg_
FN:11,_RINvXs0_NvXNvNtNtNtCs7b1zZ6GD7vQ_21jito_restaking_client9generated8accounts6config1__NtBb_6ConfigNtNtCsdCf1W31ya0G_5serde3ser9Serialize9serializeNtB6_s0_15___SerializeWithB1x_9serializepEBh_
FN:11,_RNvXNvXNvNtNtNtCs7b1zZ6GD7vQ_21jito_restaking_client9generated8accounts6configs_1__NtB7_6ConfigNtNtCsdCf1W31ya0G_5serde2de11Deserialize11deserializeNtB2_14___FieldVisitorNtB1x_7Visitor9expecting
FN:11,_RINvXNvXNvNtNtNtCs7b1zZ6GD7vQ_21jito_restaking_client9generated8accounts6configs_1__NtB8_6ConfigNtNtCsdCf1W31ya0G_5serde2de11Deserialize11deserializeNtB3_14___FieldVisitorNtB1y_7Visitor9visit_u64pEBe_
FN:11,_RINvXNvXNvNtNtNtCs7b1zZ6GD7vQ_21jito_restaking_client9generated8accounts6configs_1__NtB8_6ConfigNtNtCsdCf1W31ya0G_5serde2de11Deserialize11deserializeNtB3_14___FieldVisitorNtB1y_7Visitor9visit_strpEBe_
FN:11,_RINvXNvXNvNtNtNtCs7b1zZ6GD7vQ_21jito_restaking_client9generated8accounts6configs_1__NtB8_6ConfigNtNtCsdCf1W31ya0G_5serde2de11Deserialize11deserializeNtB3_14___FieldVisitorNtB1y_7Visitor11visit_bytespEBe_
FN:11,_RINvXs_NvXNvNtNtNtCs7b1zZ6GD7vQ_21jito_restaking_client9generated8accounts6configs_1__NtBa_6ConfigNtNtCsdCf1W31ya0G_5serde2de11Deserialize11deserializeNtB5_7___FieldB1y_11deserializepEBg_
FN:11,_RNvXs0_NvXNvNtNtNtCs7b1zZ6GD7vQ_21jito_restaking_client9generated8accounts6configs_1__NtBa_6ConfigNtNtCsdCf1W31ya0G_5serde2de11Deserialize11deserializeNtB5_9___VisitorNtB1A_7Visitor9expecting
FN:11,_RINvXs0_NvXNvNtNtNtCs7b1zZ6GD7vQ_21jito_restaking_client9generated8accounts6configs_1__NtBb_6ConfigNtNtCsdCf1W31ya0G_5serde2de11Deserialize11deserializeNtB6_9___VisitorNtB1B_7Visitor9visit_seqpEBh_
FN:11,_RINvXNvXs0_NvXNvNtNtNtCs7b1zZ6GD7vQ_21jito_restaking_client9generated8accounts6configs_1__NtBe_6ConfigNtNtCsdCf1W31ya0G_5serde2de11Deserialize11deserializeNtB9_9___VisitorNtB1E_7Visitor9visit_seqNtB3_17___DeserializeWithB1C_11deserializepEBk_
FN:11,_RNCINvXs0_NvXNvNtNtNtCs7b1zZ6GD7vQ_21jito_restaking_client9generated8accounts6configs_1__NtBd_6ConfigNtNtCsdCf1W31ya0G_5serde2de11Deserialize11deserializeNtB8_9___VisitorNtB1D_7Visitor9visit_seqpE0Bj_
FN:11,_RINvXs_NvXs0_NvXNvNtNtNtCs7b1zZ6GD7vQ_21jito_restaking_client9generated8accounts6configs_1__NtBg_6ConfigNtNtCsdCf1W31ya0G_5serde2de11Deserialize11deserializeNtBb_9___VisitorNtB1G_7Visitor9visit_seqNtB5_s_17___DeserializeWithB1E_11deserializepEBm_
FN:11,_RNCINvXs0_NvXNvNtNtNtCs7b1zZ6GD7vQ_21jito_restaking_client9generated8accounts6configs_1__NtBd_6ConfigNtNtCsdCf1W31ya0G_5serde2de11Deserialize11deserializeNtB8_9___VisitorNtB1D_7Visitor9visit_seqpEs_0Bj_
FN:11,_RINvXs0_NvXs0_NvXNvNtNtNtCs7b1zZ6GD7vQ_21jito_restaking_client9generated8accounts6configs_1__NtBh_6ConfigNtNtCsdCf1W31ya0G_5serde2de11Deserialize11deserializeNtBc_9___VisitorNtB1H_7Visitor9visit_seqNtB6_s0_17___DeserializeWithB1F_11deserializepEBn_
FN:11,_RNCINvXs0_NvXNvNtNtNtCs7b1zZ6GD7vQ_21jito_restaking_client9generated8accounts6configs_1__NtBd_6ConfigNtNtCsdCf1W31ya0G_5serde2de11Deserialize11deserializeNtB8_9___VisitorNtB1D_7Visitor9visit_seqpEs0_0Bj_
FN:11,_RINvXs0_NvXNvNtNtNtCs7b1zZ6GD7vQ_21jito_restaking_client9generated8accounts6configs_1__NtBb_6ConfigNtNtCsdCf1W31ya0G_5serde2de11Deserialize11deserializeNtB6_9___VisitorNtB1B_7Visitor9visit_mappEBh_
FN:11,_RINvXNvXs0_NvXNvNtNtNtCs7b1zZ6GD7vQ_21jito_restaking_client9generated8accounts6configs_1__NtBe_6ConfigNtNtCsdCf1W31ya0G_5serde2de11Deserialize11deserializeNtB9_9___VisitorNtB1E_7Visitor9visit_mapNtB3_17___DeserializeWithB1C_11deserializepEBk_
FN:11,_RINvXs_NvXs0_NvXNvNtNtNtCs7b1zZ6GD7vQ_21jito_restaking_client9generated8accounts6configs_1__NtBg_6ConfigNtNtCsdCf1W31ya0G_5serde2de11Deserialize11deserializeNtBb_9___VisitorNtB1G_7Visitor9visit_mapNtB5_s_17___DeserializeWithB1E_11deserializepEBm_
FN:11,_RINvXs0_NvXs0_NvXNvNtNtNtCs7b1zZ6GD7vQ_21jito_restaking_client9generated8accounts6configs_1__NtBh_6ConfigNtNtCsdCf1W31ya0G_5serde2de11Deserialize11deserializeNtBc_9___VisitorNtB1H_7Visitor9visit_mapNtB6_s0_17___DeserializeWithB1F_11deserializepEBn_
FN:10,_RINvXs5_NtNtNtCs7b1zZ6GD7vQ_21jito_restaking_client9generated8accounts6configNtB6_6ConfigNtNtCs7MwDlaQ6RmC_5borsh3ser14BorshSerialize9serializepEBc_
FN:10,_RINvXs6_NtNtNtCs7b1zZ6GD7vQ_21jito_restaking_client9generated8accounts6configNtB6_6ConfigNtNtCs7MwDlaQ6RmC_5borsh2de16BorshDeserialize18deserialize_readerpEBc_
FN:34,_RNvMNtNtNtCs7b1zZ6GD7vQ_21jito_restaking_client9generated8accounts6configNtB2_6Config10from_bytes
FN:43,_RNvXs_NtNtNtCs7b1zZ6GD7vQ_21jito_restaking_client9generated8accounts6configNtB4_6ConfigINtNtCs2ke5FKHNm4X_4core7convert7TryFromRNtNtCs1DZodUYCwtV_14solana_program12account_info11AccountInfoE8try_from
FN:53,_RNvXs0_NtNtNtCs7b1zZ6GD7vQ_21jito_restaking_client9generated8accounts6configNtB5_6ConfigNtCse5yC2j32InA_11anchor_lang18AccountDeserialize25try_deserialize_unchecked
FN:63,_RNvXs2_NtNtNtCs7b1zZ6GD7vQ_21jito_restaking_client9generated8accounts6configNtB5_6ConfigNtCse5yC2j32InA_11anchor_lang5Owner5owner
FNDA:0,_RINvXNvXNvNtNtNtCs7b1zZ6GD7vQ_21jito_restaking_client9generated8accounts6config1__NtB8_6ConfigNtNtCsdCf1W31ya0G_5serde3ser9Serialize9serializeNtB3_15___SerializeWithB1u_9serializepEBe_
FNDA:0,_RINvXs_NvXNvNtNtNtCs7b1zZ6GD7vQ_21jito_restaking_client9generated8accounts6config1__NtBa_6ConfigNtNtCsdCf1W31ya0G_5serde3ser9Serialize9serializeNtB5_s_15___SerializeWithB1w_9serializepEBg_
FNDA:0,_RINvXs0_NvXNvNtNtNtCs7b1zZ6GD7vQ_21jito_restaking_client9generated8accounts6config1__NtBb_6ConfigNtNtCsdCf1W31ya0G_5serde3ser9Serialize9serializeNtB6_s0_15___SerializeWithB1x_9serializepEBh_
FNDA:0,_RNvXNvXNvNtNtNtCs7b1zZ6GD7vQ_21jito_restaking_client9generated8accounts6configs_1__NtB7_6ConfigNtNtCsdCf1W31ya0G_5serde2de11Deserialize11deserializeNtB2_14___FieldVisitorNtB1x_7Visitor9expecting
FNDA:0,_RINvXNvXNvNtNtNtCs7b1zZ6GD7vQ_21jito_restaking_client9generated8accounts6configs_1__NtB8_6ConfigNtNtCsdCf1W31ya0G_5serde2de11Deserialize11deserializeNtB3_14___FieldVisitorNtB1y_7Visitor9visit_u64pEBe_
FNDA:0,_RINvXNvXNvNtNtNtCs7b1zZ6GD7vQ_21jito_restaking_client9generated8accounts6configs_1__NtB8_6ConfigNtNtCsdCf1W31ya0G_5serde2de11Deserialize11deserializeNtB3_14___FieldVisitorNtB1y_7Visitor9visit_strpEBe_
FNDA:0,_RINvXNvXNvNtNtNtCs7b1zZ6GD7vQ_21jito_restaking_client9generated8accounts6configs_1__NtB8_6ConfigNtNtCsdCf1W31ya0G_5serde2de11Deserialize11deserializeNtB3_14___FieldVisitorNtB1y_7Visitor11visit_bytespEBe_
FNDA:0,_RINvXs_NvXNvNtNtNtCs7b1zZ6GD7vQ_21jito_restaking_client9generated8accounts6configs_1__NtBa_6ConfigNtNtCsdCf1W31ya0G_5serde2de11Deserialize11deserializeNtB5_7___FieldB1y_11deserializepEBg_
FNDA:0,_RNvXs0_NvXNvNtNtNtCs7b1zZ6GD7vQ_21jito_restaking_client9generated8accounts6configs_1__NtBa_6ConfigNtNtCsdCf1W31ya0G_5serde2de11Deserialize11deserializeNtB5_9___VisitorNtB1A_7Visitor9expecting
FNDA:0,_RINvXs0_NvXNvNtNtNtCs7b1zZ6GD7vQ_21jito_restaking_client9generated8accounts6configs_1__NtBb_6ConfigNtNtCsdCf1W31ya0G_5serde2de11Deserialize11deserializeNtB6_9___VisitorNtB1B_7Visitor9visit_seqpEBh_
FNDA:0,_RINvXNvXs0_NvXNvNtNtNtCs7b1zZ6GD7vQ_21jito_restaking_client9generated8accounts6configs_1__NtBe_6ConfigNtNtCsdCf1W31ya0G_5serde2de11Deserialize11deserializeNtB9_9___VisitorNtB1E_7Visitor9visit_seqNtB3_17___DeserializeWithB1C_11deserializepEBk_
FNDA:0,_RNCINvXs0_NvXNvNtNtNtCs7b1zZ6GD7vQ_21jito_restaking_client9generated8accounts6configs_1__NtBd_6ConfigNtNtCsdCf1W31ya0G_5serde2de11Deserialize11deserializeNtB8_9___VisitorNtB1D_7Visitor9visit_seqpE0Bj_
FNDA:0,_RINvXs_NvXs0_NvXNvNtNtNtCs7b1zZ6GD7vQ_21jito_restaking_client9generated8accounts6configs_1__NtBg_6ConfigNtNtCsdCf1W31ya0G_5serde2de11Deserialize11deserializeNtBb_9___VisitorNtB1G_7Visitor9visit_seqNtB5_s_17___DeserializeWithB1E_11deserializepEBm_
FNDA:0,_RNCINvXs0_NvXNvNtNtNtCs7b1zZ6GD7vQ_21jito_restaking_client9generated8accounts6configs_1__NtBd_6ConfigNtNtCsdCf1W31ya0G_5serde2de11Deserialize11deserializeNtB8_9___VisitorNtB1D_7Visitor9visit_seqpEs_0Bj_
FNDA:0,_RINvXs0_NvXs0_NvXNvNtNtNtCs7b1zZ6GD7vQ_21jito_restaking_client9generated8accounts6configs_1__NtBh_6ConfigNtNtCsdCf1W31ya0G_5serde2de11Deserialize11deserializeNtBc_9___VisitorNtB1H_7Visitor9visit_seqNtB6_s0_17___DeserializeWithB1F_11deserializepEBn_
FNDA:0,_RNCINvXs0_NvXNvNtNtNtCs7b1zZ6GD7vQ_21jito_restaking_client9generated8accounts6configs_1__NtBd_6ConfigNtNtCsdCf1W31ya0G_5serde2de11Deserialize11deserializeNtB8_9___VisitorNtB1D_7Visitor9visit_seqpEs0_0Bj_
FNDA:0,_RINvXs0_NvXNvNtNtNtCs7b1zZ6GD7vQ_21jito_restaking_client9generated8accounts6configs_1__NtBb_6ConfigNtNtCsdCf1W31ya0G_5serde2de11Deserialize11deserializeNtB6_9___VisitorNtB1B_7Visitor9visit_mappEBh_
FNDA:0,_RINvXNvXs0_NvXNvNtNtNtCs7b1zZ6GD7vQ_21jito_restaking_client9generated8accounts6configs_1__NtBe_6ConfigNtNtCsdCf1W31ya0G_5serde2de11Deserialize11deserializeNtB9_9___VisitorNtB1E_7Visitor9visit_mapNtB3_17___DeserializeWithB1C_11deserializepEBk_
FNDA:0,_RINvXs_NvXs0_NvXNvNtNtNtCs7b1zZ6GD7vQ_21jito_restaking_client9generated8accounts6configs_1__NtBg_6ConfigNtNtCsdCf1W31ya0G_5serde2de11Deserialize11deserializeNtBb_9___VisitorNtB1G_7Visitor9visit_mapNtB5_s_17___DeserializeWithB1E_11deserializepEBm_
FNDA:0,_RINvXs0_NvXs0_NvXNvNtNtNtCs7b1zZ6GD7vQ_21jito_restaking_client9generated8accounts6configs_1__NtBh_6ConfigNtNtCsdCf1W31ya0G_5serde2de11Deserialize11deserializeNtBc_9___VisitorNtB1H_7Visitor9visit_mapNtB6_s0_17___DeserializeWithB1F_11deserializepEBn_
FNDA:0,_RINvXs5_NtNtNtCs7b1zZ6GD7vQ_21jito_restaking_client9generated8accounts6configNtB6_6ConfigNtNtCs7MwDlaQ6RmC_5borsh3ser14BorshSerialize9serializepEBc_
FNDA:0,_RINvXs6_NtNtNtCs7b1zZ6GD7vQ_21jito_restaking_client9generated8accounts6configNtB6_6ConfigNtNtCs7MwDlaQ6RmC_5borsh2de16BorshDeserialize18deserialize_readerpEBc_
FNDA:0,_RNvMNtNtNtCs7b1zZ6GD7vQ_21jito_restaking_client9generated8accounts6configNtB2_6Config10from_bytes
FNDA:0,_RNvXs_NtNtNtCs7b1zZ6GD7vQ_21jito_restaking_client9generated8accounts6configNtB4_6ConfigINtNtCs2ke5FKHNm4X_4core7convert7TryFromRNtNtCs1DZodUYCwtV_14solana_program12account_info11AccountInfoE8try_from
FNDA:0,_RNvXs0_NtNtNtCs7b1zZ6GD7vQ_21jito_restaking_client9generated8accounts6configNtB5_6ConfigNtCse5yC2j32InA_11anchor_lang18AccountDeserialize25try_deserialize_unchecked
FNDA:0,_RNvXs2_NtNtNtCs7b1zZ6GD7vQ_21jito_restaking_client9generated8accounts6configNtB5_6ConfigNtCse5yC2j32InA_11anchor_lang5Owner5owner
FNF:8
FNH:0
DA:10,0
DA:11,0
DA:34,0
DA:35,0
DA:36,0
DA:37,0
DA:43,0
DA:44,0
DA:45,0
DA:46,0
DA:47,0
DA:48,0
DA:53,0
DA:54,0
DA:55,0
DA:63,0
DA:64,0
DA:65,0
BRF:0
BRH:0
LF:20
LH:0
end_of_record
SF:/Users/coach/Documents/Jito/restaking/clients/rust/restaking_client/src/generated/accounts/ncn.rs
FN:11,_RINvXNvXNvNtNtNtCs7b1zZ6GD7vQ_21jito_restaking_client9generated8accounts3ncn1__NtB8_3NcnNtNtCsdCf1W31ya0G_5serde3ser9Serialize9serializeNtB3_15___SerializeWithB1o_9serializepEBe_
FN:11,_RINvXs_NvXNvNtNtNtCs7b1zZ6GD7vQ_21jito_restaking_client9generated8accounts3ncn1__NtBa_3NcnNtNtCsdCf1W31ya0G_5serde3ser9Serialize9serializeNtB5_s_15___SerializeWithB1q_9serializepEBg_
FN:11,_RINvXs0_NvXNvNtNtNtCs7b1zZ6GD7vQ_21jito_restaking_client9generated8accounts3ncn1__NtBb_3NcnNtNtCsdCf1W31ya0G_5serde3ser9Serialize9serializeNtB6_s0_15___SerializeWithB1r_9serializepEBh_
FN:11,_RINvXs1_NvXNvNtNtNtCs7b1zZ6GD7vQ_21jito_restaking_client9generated8accounts3ncn1__NtBb_3NcnNtNtCsdCf1W31ya0G_5serde3ser9Serialize9serializeNtB6_s1_15___SerializeWithB1r_9serializepEBh_
FN:11,_RINvXs2_NvXNvNtNtNtCs7b1zZ6GD7vQ_21jito_restaking_client9generated8accounts3ncn1__NtBb_3NcnNtNtCsdCf1W31ya0G_5serde3ser9Serialize9serializeNtB6_s2_15___SerializeWithB1r_9serializepEBh_
FN:11,_RINvXs3_NvXNvNtNtNtCs7b1zZ6GD7vQ_21jito_restaking_client9generated8accounts3ncn1__NtBb_3NcnNtNtCsdCf1W31ya0G_5serde3ser9Serialize9serializeNtB6_s3_15___SerializeWithB1r_9serializepEBh_
FN:11,_RINvXs4_NvXNvNtNtNtCs7b1zZ6GD7vQ_21jito_restaking_client9generated8accounts3ncn1__NtBb_3NcnNtNtCsdCf1W31ya0G_5serde3ser9Serialize9serializeNtB6_s4_15___SerializeWithB1r_9serializepEBh_
FN:11,_RINvXs5_NvXNvNtNtNtCs7b1zZ6GD7vQ_21jito_restaking_client9generated8accounts3ncn1__NtBb_3NcnNtNtCsdCf1W31ya0G_5serde3ser9Serialize9serializeNtB6_s5_15___SerializeWithB1r_9serializepEBh_
FN:11,_RINvXs6_NvXNvNtNtNtCs7b1zZ6GD7vQ_21jito_restaking_client9generated8accounts3ncn1__NtBb_3NcnNtNtCsdCf1W31ya0G_5serde3ser9Serialize9serializeNtB6_s6_15___SerializeWithB1r_9serializepEBh_
FN:11,_RINvXs7_NvXNvNtNtNtCs7b1zZ6GD7vQ_21jito_restaking_client9generated8accounts3ncn1__NtBb_3NcnNtNtCsdCf1W31ya0G_5serde3ser9Serialize9serializeNtB6_s7_15___SerializeWithB1r_9serializepEBh_
FN:11,_RNvXNvXNvNtNtNtCs7b1zZ6GD7vQ_21jito_restaking_client9generated8accounts3ncns_1__NtB7_3NcnNtNtCsdCf1W31ya0G_5serde2de11Deserialize11deserializeNtB2_14___FieldVisitorNtB1r_7Visitor9expecting
FN:11,_RINvXNvXNvNtNtNtCs7b1zZ6GD7vQ_21jito_restaking_client9generated8accounts3ncns_1__NtB8_3NcnNtNtCsdCf1W31ya0G_5serde2de11Deserialize11deserializeNtB3_14___FieldVisitorNtB1s_7Visitor9visit_u64pEBe_
FN:11,_RINvXNvXNvNtNtNtCs7b1zZ6GD7vQ_21jito_restaking_client9generated8accounts3ncns_1__NtB8_3NcnNtNtCsdCf1W31ya0G_5serde2de11Deserialize11deserializeNtB3_14___FieldVisitorNtB1s_7Visitor9visit_strpEBe_
FN:11,_RINvXNvXNvNtNtNtCs7b1zZ6GD7vQ_21jito_restaking_client9generated8accounts3ncns_1__NtB8_3NcnNtNtCsdCf1W31ya0G_5serde2de11Deserialize11deserializeNtB3_14___FieldVisitorNtB1s_7Visitor11visit_bytespEBe_
FN:11,_RINvXs_NvXNvNtNtNtCs7b1zZ6GD7vQ_21jito_restaking_client9generated8accounts3ncns_1__NtBa_3NcnNtNtCsdCf1W31ya0G_5serde2de11Deserialize11deserializeNtB5_7___FieldB1s_11deserializepEBg_
FN:11,_RNvXs0_NvXNvNtNtNtCs7b1zZ6GD7vQ_21jito_restaking_client9generated8accounts3ncns_1__NtBa_3NcnNtNtCsdCf1W31ya0G_5serde2de11Deserialize11deserializeNtB5_9___VisitorNtB1u_7Visitor9expecting
FN:11,_RINvXs0_NvXNvNtNtNtCs7b1zZ6GD7vQ_21jito_restaking_client9generated8accounts3ncns_1__NtBb_3NcnNtNtCsdCf1W31ya0G_5serde2de11Deserialize11deserializeNtB6_9___VisitorNtB1v_7Visitor9visit_seqpEBh_
FN:11,_RINvXNvXs0_NvXNvNtNtNtCs7b1zZ6GD7vQ_21jito_restaking_client9generated8accounts3ncns_1__NtBe_3NcnNtNtCsdCf1W31ya0G_5serde2de11Deserialize11deserializeNtB9_9___VisitorNtB1y_7Visitor9visit_seqNtB3_17___DeserializeWithB1w_11deserializepEBk_
FN:11,_RNCINvXs0_NvXNvNtNtNtCs7b1zZ6GD7vQ_21jito_restaking_client9generated8accounts3ncns_1__NtBd_3NcnNtNtCsdCf1W31ya0G_5serde2de11Deserialize11deserializeNtB8_9___VisitorNtB1x_7Visitor9visit_seqpE0Bj_
FN:11,_RINvXs_NvXs0_NvXNvNtNtNtCs7b1zZ6GD7vQ_21jito_restaking_client9generated8accounts3ncns_1__NtBg_3NcnNtNtCsdCf1W31ya0G_5serde2de11Deserialize11deserializeNtBb_9___VisitorNtB1A_7Visitor9visit_seqNtB5_s_17___DeserializeWithB1y_11deserializepEBm_
FN:11,_RNCINvXs0_NvXNvNtNtNtCs7b1zZ6GD7vQ_21jito_restaking_client9generated8accounts3ncns_1__NtBd_3NcnNtNtCsdCf1W31ya0G_5serde2de11Deserialize11deserializeNtB8_9___VisitorNtB1x_7Visitor9visit_seqpEs_0Bj_
FN:11,_RINvXs0_NvXs0_NvXNvNtNtNtCs7b1zZ6GD7vQ_21jito_restaking_client9generated8accounts3ncns_1__NtBh_3NcnNtNtCsdCf1W31ya0G_5serde2de11Deserialize11deserializeNtBc_9___VisitorNtB1B_7Visitor9visit_seqNtB6_s0_17___DeserializeWithB1z_11deserializepEBn_
FN:11,_RNCINvXs0_NvXNvNtNtNtCs7b1zZ6GD7vQ_21jito_restaking_client9generated8accounts3ncns_1__NtBd_3NcnNtNtCsdCf1W31ya0G_5serde2de11Deserialize11deserializeNtB8_9___VisitorNtB1x_7Visitor9visit_seqpEs0_0Bj_
FN:11,_RINvXs1_NvXs0_NvXNvNtNtNtCs7b1zZ6GD7vQ_21jito_restaking_client9generated8accounts3ncns_1__NtBh_3NcnNtNtCsdCf1W31ya0G_5serde2de11Deserialize11deserializeNtBc_9___VisitorNtB1B_7Visitor9visit_seqNtB6_s1_17___DeserializeWithB1z_11deserializepEBn_
FN:11,_RNCINvXs0_NvXNvNtNtNtCs7b1zZ6GD7vQ_21jito_restaking_client9generated8accounts3ncns_1__NtBd_3NcnNtNtCsdCf1W31ya0G_5serde2de11Deserialize11deserializeNtB8_9___VisitorNtB1x_7Visitor9visit_seqpEs1_0Bj_
FN:11,_RINvXs2_NvXs0_NvXNvNtNtNtCs7b1zZ6GD7vQ_21jito_restaking_client9generated8accounts3ncns_1__NtBh_3NcnNtNtCsdCf1W31ya0G_5serde2de11Deserialize11deserializeNtBc_9___VisitorNtB1B_7Visitor9visit_seqNtB6_s2_17___DeserializeWithB1z_11deserializepEBn_
FN:11,_RNCINvXs0_NvXNvNtNtNtCs7b1zZ6GD7vQ_21jito_restaking_client9generated8accounts3ncns_1__NtBd_3NcnNtNtCsdCf1W31ya0G_5serde2de11Deserialize11deserializeNtB8_9___VisitorNtB1x_7Visitor9visit_seqpEs2_0Bj_
FN:11,_RINvXs3_NvXs0_NvXNvNtNtNtCs7b1zZ6GD7vQ_21jito_restaking_client9generated8accounts3ncns_1__NtBh_3NcnNtNtCsdCf1W31ya0G_5serde2de11Deserialize11deserializeNtBc_9___VisitorNtB1B_7Visitor9visit_seqNtB6_s3_17___DeserializeWithB1z_11deserializepEBn_
FN:11,_RNCINvXs0_NvXNvNtNtNtCs7b1zZ6GD7vQ_21jito_restaking_client9generated8accounts3ncns_1__NtBd_3NcnNtNtCsdCf1W31ya0G_5serde2de11Deserialize11deserializeNtB8_9___VisitorNtB1x_7Visitor9visit_seqpEs3_0Bj_
FN:11,_RINvXs4_NvXs0_NvXNvNtNtNtCs7b1zZ6GD7vQ_21jito_restaking_client9generated8accounts3ncns_1__NtBh_3NcnNtNtCsdCf1W31ya0G_5serde2de11Deserialize11deserializeNtBc_9___VisitorNtB1B_7Visitor9visit_seqNtB6_s4_17___DeserializeWithB1z_11deserializepEBn_
FN:11,_RNCINvXs0_NvXNvNtNtNtCs7b1zZ6GD7vQ_21jito_restaking_client9generated8accounts3ncns_1__NtBd_3NcnNtNtCsdCf1W31ya0G_5serde2de11Deserialize11deserializeNtB8_9___VisitorNtB1x_7Visitor9visit_seqpEs4_0Bj_
FN:11,_RINvXs5_NvXs0_NvXNvNtNtNtCs7b1zZ6GD7vQ_21jito_restaking_client9generated8accounts3ncns_1__NtBh_3NcnNtNtCsdCf1W31ya0G_5serde2de11Deserialize11deserializeNtBc_9___VisitorNtB1B_7Visitor9visit_seqNtB6_s5_17___DeserializeWithB1z_11deserializepEBn_
FN:11,_RNCINvXs0_NvXNvNtNtNtCs7b1zZ6GD7vQ_21jito_restaking_client9generated8accounts3ncns_1__NtBd_3NcnNtNtCsdCf1W31ya0G_5serde2de11Deserialize11deserializeNtB8_9___VisitorNtB1x_7Visitor9visit_seqpEs5_0Bj_
FN:11,_RINvXs6_NvXs0_NvXNvNtNtNtCs7b1zZ6GD7vQ_21jito_restaking_client9generated8accounts3ncns_1__NtBh_3NcnNtNtCsdCf1W31ya0G_5serde2de11Deserialize11deserializeNtBc_9___VisitorNtB1B_7Visitor9visit_seqNtB6_s6_17___DeserializeWithB1z_11deserializepEBn_
FN:11,_RNCINvXs0_NvXNvNtNtNtCs7b1zZ6GD7vQ_21jito_restaking_client9generated8accounts3ncns_1__NtBd_3NcnNtNtCsdCf1W31ya0G_5serde2de11Deserialize11deserializeNtB8_9___VisitorNtB1x_7Visitor9visit_seqpEs6_0Bj_
FN:11,_RINvXs7_NvXs0_NvXNvNtNtNtCs7b1zZ6GD7vQ_21jito_restaking_client9generated8accounts3ncns_1__NtBh_3NcnNtNtCsdCf1W31ya0G_5serde2de11Deserialize11deserializeNtBc_9___VisitorNtB1B_7Visitor9visit_seqNtB6_s7_17___DeserializeWithB1z_11deserializepEBn_
FN:11,_RNCINvXs0_NvXNvNtNtNtCs7b1zZ6GD7vQ_21jito_restaking_client9generated8accounts3ncns_1__NtBd_3NcnNtNtCsdCf1W31ya0G_5serde2de11Deserialize11deserializeNtB8_9___VisitorNtB1x_7Visitor9visit_seqpEs7_0Bj_
FN:11,_RINvXs0_NvXNvNtNtNtCs7b1zZ6GD7vQ_21jito_restaking_client9generated8accounts3ncns_1__NtBb_3NcnNtNtCsdCf1W31ya0G_5serde2de11Deserialize11deserializeNtB6_9___VisitorNtB1v_7Visitor9visit_mappEBh_
FN:11,_RINvXNvXs0_NvXNvNtNtNtCs7b1zZ6GD7vQ_21jito_restaking_client9generated8accounts3ncns_1__NtBe_3NcnNtNtCsdCf1W31ya0G_5serde2de11Deserialize11deserializeNtB9_9___VisitorNtB1y_7Visitor9visit_mapNtB3_17___DeserializeWithB1w_11deserializepEBk_
FN:11,_RINvXs_NvXs0_NvXNvNtNtNtCs7b1zZ6GD7vQ_21jito_restaking_client9generated8accounts3ncns_1__NtBg_3NcnNtNtCsdCf1W31ya0G_5serde2de11Deserialize11deserializeNtBb_9___VisitorNtB1A_7Visitor9visit_mapNtB5_s_17___DeserializeWithB1y_11deserializepEBm_
FN:11,_RINvXs0_NvXs0_NvXNvNtNtNtCs7b1zZ6GD7vQ_21jito_restaking_client9generated8accounts3ncns_1__NtBh_3NcnNtNtCsdCf1W31ya0G_5serde2de11Deserialize11deserializeNtBc_9___VisitorNtB1B_7Visitor9visit_mapNtB6_s0_17___DeserializeWithB1z_11deserializepEBn_
FN:11,_RINvXs1_NvXs0_NvXNvNtNtNtCs7b1zZ6GD7vQ_21jito_restaking_client9generated8accounts3ncns_1__NtBh_3NcnNtNtCsdCf1W31ya0G_5serde2de11Deserialize11deserializeNtBc_9___VisitorNtB1B_7Visitor9visit_mapNtB6_s1_17___DeserializeWithB1z_11deserializepEBn_
FN:11,_RINvXs2_NvXs0_NvXNvNtNtNtCs7b1zZ6GD7vQ_21jito_restaking_client9generated8accounts3ncns_1__NtBh_3NcnNtNtCsdCf1W31ya0G_5serde2de11Deserialize11deserializeNtBc_9___VisitorNtB1B_7Visitor9visit_mapNtB6_s2_17___DeserializeWithB1z_11deserializepEBn_
FN:11,_RINvXs3_NvXs0_NvXNvNtNtNtCs7b1zZ6GD7vQ_21jito_restaking_client9generated8accounts3ncns_1__NtBh_3NcnNtNtCsdCf1W31ya0G_5serde2de11Deserialize11deserializeNtBc_9___VisitorNtB1B_7Visitor9visit_mapNtB6_s3_17___DeserializeWithB1z_11deserializepEBn_
FN:11,_RINvXs4_NvXs0_NvXNvNtNtNtCs7b1zZ6GD7vQ_21jito_restaking_client9generated8accounts3ncns_1__NtBh_3NcnNtNtCsdCf1W31ya0G_5serde2de11Deserialize11deserializeNtBc_9___VisitorNtB1B_7Visitor9visit_mapNtB6_s4_17___DeserializeWithB1z_11deserializepEBn_
FN:11,_RINvXs5_NvXs0_NvXNvNtNtNtCs7b1zZ6GD7vQ_21jito_restaking_client9generated8accounts3ncns_1__NtBh_3NcnNtNtCsdCf1W31ya0G_5serde2de11Deserialize11deserializeNtBc_9___VisitorNtB1B_7Visitor9visit_mapNtB6_s5_17___DeserializeWithB1z_11deserializepEBn_
FN:11,_RINvXs6_NvXs0_NvXNvNtNtNtCs7b1zZ6GD7vQ_21jito_restaking_client9generated8accounts3ncns_1__NtBh_3NcnNtNtCsdCf1W31ya0G_5serde2de11Deserialize11deserializeNtBc_9___VisitorNtB1B_7Visitor9visit_mapNtB6_s6_17___DeserializeWithB1z_11deserializepEBn_
FN:11,_RINvXs7_NvXs0_NvXNvNtNtNtCs7b1zZ6GD7vQ_21jito_restaking_client9generated8accounts3ncns_1__NtBh_3NcnNtNtCsdCf1W31ya0G_5serde2de11Deserialize11deserializeNtBc_9___VisitorNtB1B_7Visitor9visit_mapNtB6_s7_17___DeserializeWithB1z_11deserializepEBn_
FN:10,_RINvXs5_NtNtNtCs7b1zZ6GD7vQ_21jito_restaking_client9generated8accounts3ncnNtB6_3NcnNtNtCs7MwDlaQ6RmC_5borsh3ser14BorshSerialize9serializepEBc_
FN:10,_RINvXs6_NtNtNtCs7b1zZ6GD7vQ_21jito_restaking_client9generated8accounts3ncnNtB6_3NcnNtNtCs7MwDlaQ6RmC_5borsh2de16BorshDeserialize18deserialize_readerpEBc_
FN:70,_RNvMNtNtNtCs7b1zZ6GD7vQ_21jito_restaking_client9generated8accounts3ncnNtB2_3Ncn10from_bytes
FN:79,_RNvXs_NtNtNtCs7b1zZ6GD7vQ_21jito_restaking_client9generated8accounts3ncnNtB4_3NcnINtNtCs2ke5FKHNm4X_4core7convert7TryFromRNtNtCs1DZodUYCwtV_14solana_program12account_info11AccountInfoE8try_from
FN:89,_RNvXs0_NtNtNtCs7b1zZ6GD7vQ_21jito_restaking_client9generated8accounts3ncnNtB5_3NcnNtCse5yC2j32InA_11anchor_lang18AccountDeserialize25try_deserialize_unchecked
FN:99,_RNvXs2_NtNtNtCs7b1zZ6GD7vQ_21jito_restaking_client9generated8accounts3ncnNtB5_3NcnNtCse5yC2j32InA_11anchor_lang5Owner5owner
FNDA:0,_RINvXNvXNvNtNtNtCs7b1zZ6GD7vQ_21jito_restaking_client9generated8accounts3ncn1__NtB8_3NcnNtNtCsdCf1W31ya0G_5serde3ser9Serialize9serializeNtB3_15___SerializeWithB1o_9serializepEBe_
FNDA:0,_RINvXs_NvXNvNtNtNtCs7b1zZ6GD7vQ_21jito_restaking_client9generated8accounts3ncn1__NtBa_3NcnNtNtCsdCf1W31ya0G_5serde3ser9Serialize9serializeNtB5_s_15___SerializeWithB1q_9serializepEBg_
FNDA:0,_RINvXs0_NvXNvNtNtNtCs7b1zZ6GD7vQ_21jito_restaking_client9generated8accounts3ncn1__NtBb_3NcnNtNtCsdCf1W31ya0G_5serde3ser9Serialize9serializeNtB6_s0_15___SerializeWithB1r_9serializepEBh_
FNDA:0,_RINvXs1_NvXNvNtNtNtCs7b1zZ6GD7vQ_21jito_restaking_client9generated8accounts3ncn1__NtBb_3NcnNtNtCsdCf1W31ya0G_5serde3ser9Serialize9serializeNtB6_s1_15___SerializeWithB1r_9serializepEBh_
FNDA:0,_RINvXs2_NvXNvNtNtNtCs7b1zZ6GD7vQ_21jito_restaking_client9generated8accounts3ncn1__NtBb_3NcnNtNtCsdCf1W31ya0G_5serde3ser9Serialize9serializeNtB6_s2_15___SerializeWithB1r_9serializepEBh_
FNDA:0,_RINvXs3_NvXNvNtNtNtCs7b1zZ6GD7vQ_21jito_restaking_client9generated8accounts3ncn1__NtBb_3NcnNtNtCsdCf1W31ya0G_5serde3ser9Serialize9serializeNtB6_s3_15___SerializeWithB1r_9serializepEBh_
FNDA:0,_RINvXs4_NvXNvNtNtNtCs7b1zZ6GD7vQ_21jito_restaking_client9generated8accounts3ncn1__NtBb_3NcnNtNtCsdCf1W31ya0G_5serde3ser9Serialize9serializeNtB6_s4_15___SerializeWithB1r_9serializepEBh_
FNDA:0,_RINvXs5_NvXNvNtNtNtCs7b1zZ6GD7vQ_21jito_restaking_client9generated8accounts3ncn1__NtBb_3NcnNtNtCsdCf1W31ya0G_5serde3ser9Serialize9serializeNtB6_s5_15___SerializeWithB1r_9serializepEBh_
FNDA:0,_RINvXs6_NvXNvNtNtNtCs7b1zZ6GD7vQ_21jito_restaking_client9generated8accounts3ncn1__NtBb_3NcnNtNtCsdCf1W31ya0G_5serde3ser9Serialize9serializeNtB6_s6_15___SerializeWithB1r_9serializepEBh_
FNDA:0,_RINvXs7_NvXNvNtNtNtCs7b1zZ6GD7vQ_21jito_restaking_client9generated8accounts3ncn1__NtBb_3NcnNtNtCsdCf1W31ya0G_5serde3ser9Serialize9serializeNtB6_s7_15___SerializeWithB1r_9serializepEBh_
FNDA:0,_RNvXNvXNvNtNtNtCs7b1zZ6GD7vQ_21jito_restaking_client9generated8accounts3ncns_1__NtB7_3NcnNtNtCsdCf1W31ya0G_5serde2de11Deserialize11deserializeNtB2_14___FieldVisitorNtB1r_7Visitor9expecting
FNDA:0,_RINvXNvXNvNtNtNtCs7b1zZ6GD7vQ_21jito_restaking_client9generated8accounts3ncns_1__NtB8_3NcnNtNtCsdCf1W31ya0G_5serde2de11Deserialize11deserializeNtB3_14___FieldVisitorNtB1s_7Visitor9visit_u64pEBe_
FNDA:0,_RINvXNvXNvNtNtNtCs7b1zZ6GD7vQ_21jito_restaking_client9generated8accounts3ncns_1__NtB8_3NcnNtNtCsdCf1W31ya0G_5serde2de11Deserialize11deserializeNtB3_14___FieldVisitorNtB1s_7Visitor9visit_strpEBe_
FNDA:0,_RINvXNvXNvNtNtNtCs7b1zZ6GD7vQ_21jito_restaking_client9generated8accounts3ncns_1__NtB8_3NcnNtNtCsdCf1W31ya0G_5serde2de11Deserialize11deserializeNtB3_14___FieldVisitorNtB1s_7Visitor11visit_bytespEBe_
FNDA:0,_RINvXs_NvXNvNtNtNtCs7b1zZ6GD7vQ_21jito_restaking_client9generated8accounts3ncns_1__NtBa_3NcnNtNtCsdCf1W31ya0G_5serde2de11Deserialize11deserializeNtB5_7___FieldB1s_11deserializepEBg_
FNDA:0,_RNvXs0_NvXNvNtNtNtCs7b1zZ6GD7vQ_21jito_restaking_client9generated8accounts3ncns_1__NtBa_3NcnNtNtCsdCf1W31ya0G_5serde2de11Deserialize11deserializeNtB5_9___VisitorNtB1u_7Visitor9expecting
FNDA:0,_RINvXs0_NvXNvNtNtNtCs7b1zZ6GD7vQ_21jito_restaking_client9generated8accounts3ncns_1__NtBb_3NcnNtNtCsdCf1W31ya0G_5serde2de11Deserialize11deserializeNtB6_9___VisitorNtB1v_7Visitor9visit_seqpEBh_
FNDA:0,_RINvXNvXs0_NvXNvNtNtNtCs7b1zZ6GD7vQ_21jito_restaking_client9generated8accounts3ncns_1__NtBe_3NcnNtNtCsdCf1W31ya0G_5serde2de11Deserialize11deserializeNtB9_9___VisitorNtB1y_7Visitor9visit_seqNtB3_17___DeserializeWithB1w_11deserializepEBk_
FNDA:0,_RNCINvXs0_NvXNvNtNtNtCs7b1zZ6GD7vQ_21jito_restaking_client9generated8accounts3ncns_1__NtBd_3NcnNtNtCsdCf1W31ya0G_5serde2de11Deserialize11deserializeNtB8_9___VisitorNtB1x_7Visitor9visit_seqpE0Bj_
FNDA:0,_RINvXs_NvXs0_NvXNvNtNtNtCs7b1zZ6GD7vQ_21jito_restaking_client9generated8accounts3ncns_1__NtBg_3NcnNtNtCsdCf1W31ya0G_5serde2de11Deserialize11deserializeNtBb_9___VisitorNtB1A_7Visitor9visit_seqNtB5_s_17___DeserializeWithB1y_11deserializepEBm_
FNDA:0,_RNCINvXs0_NvXNvNtNtNtCs7b1zZ6GD7vQ_21jito_restaking_client9generated8accounts3ncns_1__NtBd_3NcnNtNtCsdCf1W31ya0G_5serde2de11Deserialize11deserializeNtB8_9___VisitorNtB1x_7Visitor9visit_seqpEs_0Bj_
FNDA:0,_RINvXs0_NvXs0_NvXNvNtNtNtCs7b1zZ6GD7vQ_21jito_restaking_client9generated8accounts3ncns_1__NtBh_3NcnNtNtCsdCf1W31ya0G_5serde2de11Deserialize11deserializeNtBc_9___VisitorNtB1B_7Visitor9visit_seqNtB6_s0_17___DeserializeWithB1z_11deserializepEBn_
FNDA:0,_RNCINvXs0_NvXNvNtNtNtCs7b1zZ6GD7vQ_21jito_restaking_client9generated8accounts3ncns_1__NtBd_3NcnNtNtCsdCf1W31ya0G_5serde2de11Deserialize11deserializeNtB8_9___VisitorNtB1x_7Visitor9visit_seqpEs0_0Bj_
FNDA:0,_RINvXs1_NvXs0_NvXNvNtNtNtCs7b1zZ6GD7vQ_21jito_restaking_client9generated8accounts3ncns_1__NtBh_3NcnNtNtCsdCf1W31ya0G_5serde2de11Deserialize11deserializeNtBc_9___VisitorNtB1B_7Visitor9visit_seqNtB6_s1_17___DeserializeWithB1z_11deserializepEBn_
FNDA:0,_RNCINvXs0_NvXNvNtNtNtCs7b1zZ6GD7vQ_21jito_restaking_client9generated8accounts3ncns_1__NtBd_3NcnNtNtCsdCf1W31ya0G_5serde2de11Deserialize11deserializeNtB8_9___VisitorNtB1x_7Visitor9visit_seqpEs1_0Bj_
FNDA:0,_RINvXs2_NvXs0_NvXNvNtNtNtCs7b1zZ6GD7vQ_21jito_restaking_client9generated8accounts3ncns_1__NtBh_3NcnNtNtCsdCf1W31ya0G_5serde2de11Deserialize11deserializeNtBc_9___VisitorNtB1B_7Visitor9visit_seqNtB6_s2_17___DeserializeWithB1z_11deserializepEBn_
FNDA:0,_RNCINvXs0_NvXNvNtNtNtCs7b1zZ6GD7vQ_21jito_restaking_client9generated8accounts3ncns_1__NtBd_3NcnNtNtCsdCf1W31ya0G_5serde2de11Deserialize11deserializeNtB8_9___VisitorNtB1x_7Visitor9visit_seqpEs2_0Bj_
FNDA:0,_RINvXs3_NvXs0_NvXNvNtNtNtCs7b1zZ6GD7vQ_21jito_restaking_client9generated8accounts3ncns_1__NtBh_3NcnNtNtCsdCf1W31ya0G_5serde2de11Deserialize11deserializeNtBc_9___VisitorNtB1B_7Visitor9visit_seqNtB6_s3_17___DeserializeWithB1z_11deserializepEBn_
FNDA:0,_RNCINvXs0_NvXNvNtNtNtCs7b1zZ6GD7vQ_21jito_restaking_client9generated8accounts3ncns_1__NtBd_3NcnNtNtCsdCf1W31ya0G_5serde2de11Deserialize11deserializeNtB8_9___VisitorNtB1x_7Visitor9visit_seqpEs3_0Bj_
FNDA:0,_RINvXs4_NvXs0_NvXNvNtNtNtCs7b1zZ6GD7vQ_21jito_restaking_client9generated8accounts3ncns_1__NtBh_3NcnNtNtCsdCf1W31ya0G_5serde2de11Deserialize11deserializeNtBc_9___VisitorNtB1B_7Visitor9visit_seqNtB6_s4_17___DeserializeWithB1z_11deserializepEBn_
FNDA:0,_RNCINvXs0_NvXNvNtNtNtCs7b1zZ6GD7vQ_21jito_restaking_client9generated8accounts3ncns_1__NtBd_3NcnNtNtCsdCf1W31ya0G_5serde2de11Deserialize11deserializeNtB8_9___VisitorNtB1x_7Visitor9visit_seqpEs4_0Bj_
FNDA:0,_RINvXs5_NvXs0_NvXNvNtNtNtCs7b1zZ6GD7vQ_21jito_restaking_client9generated8accounts3ncns_1__NtBh_3NcnNtNtCsdCf1W31ya0G_5serde2de11Deserialize11deserializeNtBc_9___VisitorNtB1B_7Visitor9visit_seqNtB6_s5_17___DeserializeWithB1z_11deserializepEBn_
FNDA:0,_RNCINvXs0_NvXNvNtNtNtCs7b1zZ6GD7vQ_21jito_restaking_client9generated8accounts3ncns_1__NtBd_3NcnNtNtCsdCf1W31ya0G_5serde2de11Deserialize11deserializeNtB8_9___VisitorNtB1x_7Visitor9visit_seqpEs5_0Bj_
FNDA:0,_RINvXs6_NvXs0_NvXNvNtNtNtCs7b1zZ6GD7vQ_21jito_restaking_client9generated8accounts3ncns_1__NtBh_3NcnNtNtCsdCf1W31ya0G_5serde2de11Deserialize11deserializeNtBc_9___VisitorNtB1B_7Visitor9visit_seqNtB6_s6_17___DeserializeWithB1z_11deserializepEBn_
FNDA:0,_RNCINvXs0_NvXNvNtNtNtCs7b1zZ6GD7vQ_21jito_restaking_client9generated8accounts3ncns_1__NtBd_3NcnNtNtCsdCf1W31ya0G_5serde2de11Deserialize11deserializeNtB8_9___VisitorNtB1x_7Visitor9visit_seqpEs6_0Bj_
FNDA:0,_RINvXs7_NvXs0_NvXNvNtNtNtCs7b1zZ6GD7vQ_21jito_restaking_client9generated8accounts3ncns_1__NtBh_3NcnNtNtCsdCf1W31ya0G_5serde2de11Deserialize11deserializeNtBc_9___VisitorNtB1B_7Visitor9visit_seqNtB6_s7_17___DeserializeWithB1z_11deserializepEBn_
FNDA:0,_RNCINvXs0_NvXNvNtNtNtCs7b1zZ6GD7vQ_21jito_restaking_client9generated8accounts3ncns_1__NtBd_3NcnNtNtCsdCf1W31ya0G_5serde2de11Deserialize11deserializeNtB8_9___VisitorNtB1x_7Visitor9visit_seqpEs7_0Bj_
FNDA:0,_RINvXs0_NvXNvNtNtNtCs7b1zZ6GD7vQ_21jito_restaking_client9generated8accounts3ncns_1__NtBb_3NcnNtNtCsdCf1W31ya0G_5serde2de11Deserialize11deserializeNtB6_9___VisitorNtB1v_7Visitor9visit_mappEBh_
FNDA:0,_RINvXNvXs0_NvXNvNtNtNtCs7b1zZ6GD7vQ_21jito_restaking_client9generated8accounts3ncns_1__NtBe_3NcnNtNtCsdCf1W31ya0G_5serde2de11Deserialize11deserializeNtB9_9___VisitorNtB1y_7Visitor9visit_mapNtB3_17___DeserializeWithB1w_11deserializepEBk_
FNDA:0,_RINvXs_NvXs0_NvXNvNtNtNtCs7b1zZ6GD7vQ_21jito_restaking_client9generated8accounts3ncns_1__NtBg_3NcnNtNtCsdCf1W31ya0G_5serde2de11Deserialize11deserializeNtBb_9___VisitorNtB1A_7Visitor9visit_mapNtB5_s_17___DeserializeWithB1y_11deserializepEBm_
FNDA:0,_RINvXs0_NvXs0_NvXNvNtNtNtCs7b1zZ6GD7vQ_21jito_restaking_client9generated8accounts3ncns_1__NtBh_3NcnNtNtCsdCf1W31ya0G_5serde2de11Deserialize11deserializeNtBc_9___VisitorNtB1B_7Visitor9visit_mapNtB6_s0_17___DeserializeWithB1z_11deserializepEBn_
FNDA:0,_RINvXs1_NvXs0_NvXNvNtNtNtCs7b1zZ6GD7vQ_21jito_restaking_client9generated8accounts3ncns_1__NtBh_3NcnNtNtCsdCf1W31ya0G_5serde2de11Deserialize11deserializeNtBc_9___VisitorNtB1B_7Visitor9visit_mapNtB6_s1_17___DeserializeWithB1z_11deserializepEBn_
FNDA:0,_RINvXs2_NvXs0_NvXNvNtNtNtCs7b1zZ6GD7vQ_21jito_restaking_client9generated8accounts3ncns_1__NtBh_3NcnNtNtCsdCf1W31ya0G_5serde2de11Deserialize11deserializeNtBc_9___VisitorNtB1B_7Visitor9visit_mapNtB6_s2_17___DeserializeWithB1z_11deserializepEBn_
FNDA:0,_RINvXs3_NvXs0_NvXNvNtNtNtCs7b1zZ6GD7vQ_21jito_restaking_client9generated8accounts3ncns_1__NtBh_3NcnNtNtCsdCf1W31ya0G_5serde2de11Deserialize11deserializeNtBc_9___VisitorNtB1B_7Visitor9visit_mapNtB6_s3_17___DeserializeWithB1z_11deserializepEBn_
FNDA:0,_RINvXs4_NvXs0_NvXNvNtNtNtCs7b1zZ6GD7vQ_21jito_restaking_client9generated8accounts3ncns_1__NtBh_3NcnNtNtCsdCf1W31ya0G_5serde2de11Deserialize11deserializeNtBc_9___VisitorNtB1B_7Visitor9visit_mapNtB6_s4_17___DeserializeWithB1z_11deserializepEBn_
FNDA:0,_RINvXs5_NvXs0_NvXNvNtNtNtCs7b1zZ6GD7vQ_21jito_restaking_client9generated8accounts3ncns_1__NtBh_3NcnNtNtCsdCf1W31ya0G_5serde2de11Deserialize11deserializeNtBc_9___VisitorNtB1B_7Visitor9visit_mapNtB6_s5_17___DeserializeWithB1z_11deserializepEBn_
FNDA:0,_RINvXs6_NvXs0_NvXNvNtNtNtCs7b1zZ6GD7vQ_21jito_restaking_client9generated8accounts3ncns_1__NtBh_3NcnNtNtCsdCf1W31ya0G_5serde2de11Deserialize11deserializeNtBc_9___VisitorNtB1B_7Visitor9visit_mapNtB6_s6_17___DeserializeWithB1z_11deserializepEBn_
FNDA:0,_RINvXs7_NvXs0_NvXNvNtNtNtCs7b1zZ6GD7vQ_21jito_restaking_client9generated8accounts3ncns_1__NtBh_3NcnNtNtCsdCf1W31ya0G_5serde2de11Deserialize11deserializeNtBc_9___VisitorNtB1B_7Visitor9visit_mapNtB6_s7_17___DeserializeWithB1z_11deserializepEBn_
FNDA:0,_RINvXs5_NtNtNtCs7b1zZ6GD7vQ_21jito_restaking_client9generated8accounts3ncnNtB6_3NcnNtNtCs7MwDlaQ6RmC_5borsh3ser14BorshSerialize9serializepEBc_
FNDA:0,_RINvXs6_NtNtNtCs7b1zZ6GD7vQ_21jito_restaking_client9generated8accounts3ncnNtB6_3NcnNtNtCs7MwDlaQ6RmC_5borsh2de16BorshDeserialize18deserialize_readerpEBc_
FNDA:0,_RNvMNtNtNtCs7b1zZ6GD7vQ_21jito_restaking_client9generated8accounts3ncnNtB2_3Ncn10from_bytes
FNDA:0,_RNvXs_NtNtNtCs7b1zZ6GD7vQ_21jito_restaking_client9generated8accounts3ncnNtB4_3NcnINtNtCs2ke5FKHNm4X_4core7convert7TryFromRNtNtCs1DZodUYCwtV_14solana_program12account_info11AccountInfoE8try_from
FNDA:0,_RNvXs0_NtNtNtCs7b1zZ6GD7vQ_21jito_restaking_client9generated8accounts3ncnNtB5_3NcnNtCse5yC2j32InA_11anchor_lang18AccountDeserialize25try_deserialize_unchecked
FNDA:0,_RNvXs2_NtNtNtCs7b1zZ6GD7vQ_21jito_restaking_client9generated8accounts3ncnNtB5_3NcnNtCse5yC2j32InA_11anchor_lang5Owner5owner
FNF:8
FNH:0
DA:10,0
DA:11,0
DA:70,0
DA:71,0
DA:72,0
DA:73,0
DA:79,0
DA:80,0
DA:81,0
DA:82,0
DA:83,0
DA:84,0
DA:89,0
DA:90,0
DA:91,0
DA:99,0
DA:100,0
DA:101,0
BRF:0
BRH:0
LF:20
LH:0
end_of_record
SF:/Users/coach/Documents/Jito/restaking/clients/rust/restaking_client/src/generated/accounts/ncn_operator_state.rs
FN:13,_RINvXNvXNvNtNtNtCs7b1zZ6GD7vQ_21jito_restaking_client9generated8accounts18ncn_operator_state1__NtB8_16NcnOperatorStateNtNtCsdCf1W31ya0G_5serde3ser9Serialize9serializeNtB3_15___SerializeWithB1S_9serializepEBe_
FN:13,_RINvXs_NvXNvNtNtNtCs7b1zZ6GD7vQ_21jito_restaking_client9generated8accounts18ncn_operator_state1__NtBa_16NcnOperatorStateNtNtCsdCf1W31ya0G_5serde3ser9Serialize9serializeNtB5_s_15___SerializeWithB1U_9serializepEBg_
FN:13,_RINvXs0_NvXNvNtNtNtCs7b1zZ6GD7vQ_21jito_restaking_client9generated8accounts18ncn_operator_state1__NtBb_16NcnOperatorStateNtNtCsdCf1W31ya0G_5serde3ser9Serialize9serializeNtB6_s0_15___SerializeWithB1V_9serializepEBh_
FN:13,_RNvXNvXNvNtNtNtCs7b1zZ6GD7vQ_21jito_restaking_client9generated8accounts18ncn_operator_states_1__NtB7_16NcnOperatorStateNtNtCsdCf1W31ya0G_5serde2de11Deserialize11deserializeNtB2_14___FieldVisitorNtB1V_7Visitor9expecting
FN:13,_RINvXNvXNvNtNtNtCs7b1zZ6GD7vQ_21jito_restaking_client9generated8accounts18ncn_operator_states_1__NtB8_16NcnOperatorStateNtNtCsdCf1W31ya0G_5serde2de11Deserialize11deserializeNtB3_14___FieldVisitorNtB1W_7Visitor9visit_u64pEBe_
FN:13,_RINvXNvXNvNtNtNtCs7b1zZ6GD7vQ_21jito_restaking_client9generated8accounts18ncn_operator_states_1__NtB8_16NcnOperatorStateNtNtCsdCf1W31ya0G_5serde2de11Deserialize11deserializeNtB3_14___FieldVisitorNtB1W_7Visitor9visit_strpEBe_
FN:13,_RINvXNvXNvNtNtNtCs7b1zZ6GD7vQ_21jito_restaking_client9generated8accounts18ncn_operator_states_1__NtB8_16NcnOperatorStateNtNtCsdCf1W31ya0G_5serde2de11Deserialize11deserializeNtB3_14___FieldVisitorNtB1W_7Visitor11visit_bytespEBe_
FN:13,_RINvXs_NvXNvNtNtNtCs7b1zZ6GD7vQ_21jito_restaking_client9generated8accounts18ncn_operator_states_1__NtBa_16NcnOperatorStateNtNtCsdCf1W31ya0G_5serde2de11Deserialize11deserializeNtB5_7___FieldB1W_11deserializepEBg_
FN:13,_RNvXs0_NvXNvNtNtNtCs7b1zZ6GD7vQ_21jito_restaking_client9generated8accounts18ncn_operator_states_1__NtBa_16NcnOperatorStateNtNtCsdCf1W31ya0G_5serde2de11Deserialize11deserializeNtB5_9___VisitorNtB1Y_7Visitor9expecting
FN:13,_RINvXs0_NvXNvNtNtNtCs7b1zZ6GD7vQ_21jito_restaking_client9generated8accounts18ncn_operator_states_1__NtBb_16NcnOperatorStateNtNtCsdCf1W31ya0G_5serde2de11Deserialize11deserializeNtB6_9___VisitorNtB1Z_7Visitor9visit_seqpEBh_
FN:13,_RINvXNvXs0_NvXNvNtNtNtCs7b1zZ6GD7vQ_21jito_restaking_client9generated8accounts18ncn_operator_states_1__NtBe_16NcnOperatorStateNtNtCsdCf1W31ya0G_5serde2de11Deserialize11deserializeNtB9_9___VisitorNtB22_7Visitor9visit_seqNtB3_17___DeserializeWithB20_11deserializepEBk_
FN:13,_RNCINvXs0_NvXNvNtNtNtCs7b1zZ6GD7vQ_21jito_restaking_client9generated8accounts18ncn_operator_states_1__NtBd_16NcnOperatorStateNtNtCsdCf1W31ya0G_5serde2de11Deserialize11deserializeNtB8_9___VisitorNtB21_7Visitor9visit_seqpE0Bj_
FN:13,_RINvXs_NvXs0_NvXNvNtNtNtCs7b1zZ6GD7vQ_21jito_restaking_client9generated8accounts18ncn_operator_states_1__NtBg_16NcnOperatorStateNtNtCsdCf1W31ya0G_5serde2de11Deserialize11deserializeNtBb_9___VisitorNtB24_7Visitor9visit_seqNtB5_s_17___DeserializeWithB22_11deserializepEBm_
FN:13,_RNCINvXs0_NvXNvNtNtNtCs7b1zZ6GD7vQ_21jito_restaking_client9generated8accounts18ncn_operator_states_1__NtBd_16NcnOperatorStateNtNtCsdCf1W31ya0G_5serde2de11Deserialize11deserializeNtB8_9___VisitorNtB21_7Visitor9visit_seqpEs_0Bj_
FN:13,_RINvXs0_NvXs0_NvXNvNtNtNtCs7b1zZ6GD7vQ_21jito_restaking_client9generated8accounts18ncn_operator_states_1__NtBh_16NcnOperatorStateNtNtCsdCf1W31ya0G_5serde2de11Deserialize11deserializeNtBc_9___VisitorNtB25_7Visitor9visit_seqNtB6_s0_17___DeserializeWithB23_11deserializepEBn_
FN:13,_RNCINvXs0_NvXNvNtNtNtCs7b1zZ6GD7vQ_21jito_restaking_client9generated8accounts18ncn_operator_states_1__NtBd_16NcnOperatorStateNtNtCsdCf1W31ya0G_5serde2de11Deserialize11deserializeNtB8_9___VisitorNtB21_7Visitor9visit_seqpEs0_0Bj_
FN:13,_RINvXs0_NvXNvNtNtNtCs7b1zZ6GD7vQ_21jito_restaking_client9generated8accounts18ncn_operator_states_1__NtBb_16NcnOperatorStateNtNtCsdCf1W31ya0G_5serde2de11Deserialize11deserializeNtB6_9___VisitorNtB1Z_7Visitor9visit_mappEBh_
FN:13,_RINvXNvXs0_NvXNvNtNtNtCs7b1zZ6GD7vQ_21jito_restaking_client9generated8accounts18ncn_operator_states_1__NtBe_16NcnOperatorStateNtNtCsdCf1W31ya0G_5serde2de11Deserialize11deserializeNtB9_9___VisitorNtB22_7Visitor9visit_mapNtB3_17___DeserializeWithB20_11deserializepEBk_
FN:13,_RINvXs_NvXs0_NvXNvNtNtNtCs7b1zZ6GD7vQ_21jito_restaking_client9generated8accounts18ncn_operator_states_1__NtBg_16NcnOperatorStateNtNtCsdCf1W31ya0G_5serde2de11Deserialize11deserializeNtBb_9___VisitorNtB24_7Visitor9visit_mapNtB5_s_17___DeserializeWithB22_11deserializepEBm_
FN:13,_RINvXs0_NvXs0_NvXNvNtNtNtCs7b1zZ6GD7vQ_21jito_restaking_client9generated8accounts18ncn_operator_states_1__NtBh_16NcnOperatorStateNtNtCsdCf1W31ya0G_5serde2de11Deserialize11deserializeNtBc_9___VisitorNtB25_7Visitor9visit_mapNtB6_s0_17___DeserializeWithB23_11deserializepEBn_
FN:12,_RINvXs5_NtNtNtCs7b1zZ6GD7vQ_21jito_restaking_client9generated8accounts18ncn_operator_stateNtB6_16NcnOperatorStateNtNtCs7MwDlaQ6RmC_5borsh3ser14BorshSerialize9serializepEBc_
FN:12,_RINvXs6_NtNtNtCs7b1zZ6GD7vQ_21jito_restaking_client9generated8accounts18ncn_operator_stateNtB6_16NcnOperatorStateNtNtCs7MwDlaQ6RmC_5borsh2de16BorshDeserialize18deserialize_readerpEBc_
FN:36,_RNvMNtNtNtCs7b1zZ6GD7vQ_21jito_restaking_client9generated8accounts18ncn_operator_stateNtB2_16NcnOperatorState10from_bytes
FN:45,_RNvXs_NtNtNtCs7b1zZ6GD7vQ_21jito_restaking_client9generated8accounts18ncn_operator_stateNtB4_16NcnOperatorStateINtNtCs2ke5FKHNm4X_4core7convert7TryFromRNtNtCs1DZodUYCwtV_14solana_program12account_info11AccountInfoE8try_from
FN:55,_RNvXs0_NtNtNtCs7b1zZ6GD7vQ_21jito_restaking_client9generated8accounts18ncn_operator_stateNtB5_16NcnOperatorStateNtCse5yC2j32InA_11anchor_lang18AccountDeserialize25try_deserialize_unchecked
FN:65,_RNvXs2_NtNtNtCs7b1zZ6GD7vQ_21jito_restaking_client9generated8accounts18ncn_operator_stateNtB5_16NcnOperatorStateNtCse5yC2j32InA_11anchor_lang5Owner5owner
FNDA:0,_RINvXNvXNvNtNtNtCs7b1zZ6GD7vQ_21jito_restaking_client9generated8accounts18ncn_operator_state1__NtB8_16NcnOperatorStateNtNtCsdCf1W31ya0G_5serde3ser9Serialize9serializeNtB3_15___SerializeWithB1S_9serializepEBe_
FNDA:0,_RINvXs_NvXNvNtNtNtCs7b1zZ6GD7vQ_21jito_restaking_client9generated8accounts18ncn_operator_state1__NtBa_16NcnOperatorStateNtNtCsdCf1W31ya0G_5serde3ser9Serialize9serializeNtB5_s_15___SerializeWithB1U_9serializepEBg_
FNDA:0,_RINvXs0_NvXNvNtNtNtCs7b1zZ6GD7vQ_21jito_restaking_client9generated8accounts18ncn_operator_state1__NtBb_16NcnOperatorStateNtNtCsdCf1W31ya0G_5serde3ser9Serialize9serializeNtB6_s0_15___SerializeWithB1V_9serializepEBh_
FNDA:0,_RNvXNvXNvNtNtNtCs7b1zZ6GD7vQ_21jito_restaking_client9generated8accounts18ncn_operator_states_1__NtB7_16NcnOperatorStateNtNtCsdCf1W31ya0G_5serde2de11Deserialize11deserializeNtB2_14___FieldVisitorNtB1V_7Visitor9expecting
FNDA:0,_RINvXNvXNvNtNtNtCs7b1zZ6GD7vQ_21jito_restaking_client9generated8accounts18ncn_operator_states_1__NtB8_16NcnOperatorStateNtNtCsdCf1W31ya0G_5serde2de11Deserialize11deserializeNtB3_14___FieldVisitorNtB1W_7Visitor9visit_u64pEBe_
FNDA:0,_RINvXNvXNvNtNtNtCs7b1zZ6GD7vQ_21jito_restaking_client9generated8accounts18ncn_operator_states_1__NtB8_16NcnOperatorStateNtNtCsdCf1W31ya0G_5serde2de11Deserialize11deserializeNtB3_14___FieldVisitorNtB1W_7Visitor9visit_strpEBe_
FNDA:0,_RINvXNvXNvNtNtNtCs7b1zZ6GD7vQ_21jito_restaking_client9generated8accounts18ncn_operator_states_1__NtB8_16NcnOperatorStateNtNtCsdCf1W31ya0G_5serde2de11Deserialize11deserializeNtB3_14___FieldVisitorNtB1W_7Visitor11visit_bytespEBe_
FNDA:0,_RINvXs_NvXNvNtNtNtCs7b1zZ6GD7vQ_21jito_restaking_client9generated8accounts18ncn_operator_states_1__NtBa_16NcnOperatorStateNtNtCsdCf1W31ya0G_5serde2de11Deserialize11deserializeNtB5_7___FieldB1W_11deserializepEBg_
FNDA:0,_RNvXs0_NvXNvNtNtNtCs7b1zZ6GD7vQ_21jito_restaking_client9generated8accounts18ncn_operator_states_1__NtBa_16NcnOperatorStateNtNtCsdCf1W31ya0G_5serde2de11Deserialize11deserializeNtB5_9___VisitorNtB1Y_7Visitor9expecting
FNDA:0,_RINvXs0_NvXNvNtNtNtCs7b1zZ6GD7vQ_21jito_restaking_client9generated8accounts18ncn_operator_states_1__NtBb_16NcnOperatorStateNtNtCsdCf1W31ya0G_5serde2de11Deserialize11deserializeNtB6_9___VisitorNtB1Z_7Visitor9visit_seqpEBh_
FNDA:0,_RINvXNvXs0_NvXNvNtNtNtCs7b1zZ6GD7vQ_21jito_restaking_client9generated8accounts18ncn_operator_states_1__NtBe_16NcnOperatorStateNtNtCsdCf1W31ya0G_5serde2de11Deserialize11deserializeNtB9_9___VisitorNtB22_7Visitor9visit_seqNtB3_17___DeserializeWithB20_11deserializepEBk_
FNDA:0,_RNCINvXs0_NvXNvNtNtNtCs7b1zZ6GD7vQ_21jito_restaking_client9generated8accounts18ncn_operator_states_1__NtBd_16NcnOperatorStateNtNtCsdCf1W31ya0G_5serde2de11Deserialize11deserializeNtB8_9___VisitorNtB21_7Visitor9visit_seqpE0Bj_
FNDA:0,_RINvXs_NvXs0_NvXNvNtNtNtCs7b1zZ6GD7vQ_21jito_restaking_client9generated8accounts18ncn_operator_states_1__NtBg_16NcnOperatorStateNtNtCsdCf1W31ya0G_5serde2de11Deserialize11deserializeNtBb_9___VisitorNtB24_7Visitor9visit_seqNtB5_s_17___DeserializeWithB22_11deserializepEBm_
FNDA:0,_RNCINvXs0_NvXNvNtNtNtCs7b1zZ6GD7vQ_21jito_restaking_client9generated8accounts18ncn_operator_states_1__NtBd_16NcnOperatorStateNtNtCsdCf1W31ya0G_5serde2de11Deserialize11deserializeNtB8_9___VisitorNtB21_7Visitor9visit_seqpEs_0Bj_
FNDA:0,_RINvXs0_NvXs0_NvXNvNtNtNtCs7b1zZ6GD7vQ_21jito_restaking_client9generated8accounts18ncn_operator_states_1__NtBh_16NcnOperatorStateNtNtCsdCf1W31ya0G_5serde2de11Deserialize11deserializeNtBc_9___VisitorNtB25_7Visitor9visit_seqNtB6_s0_17___DeserializeWithB23_11deserializepEBn_
FNDA:0,_RNCINvXs0_NvXNvNtNtNtCs7b1zZ6GD7vQ_21jito_restaking_client9generated8accounts18ncn_operator_states_1__NtBd_16NcnOperatorStateNtNtCsdCf1W31ya0G_5serde2de11Deserialize11deserializeNtB8_9___VisitorNtB21_7Visitor9visit_seqpEs0_0Bj_
FNDA:0,_RINvXs0_NvXNvNtNtNtCs7b1zZ6GD7vQ_21jito_restaking_client9generated8accounts18ncn_operator_states_1__NtBb_16NcnOperatorStateNtNtCsdCf1W31ya0G_5serde2de11Deserialize11deserializeNtB6_9___VisitorNtB1Z_7Visitor9visit_mappEBh_
FNDA:0,_RINvXNvXs0_NvXNvNtNtNtCs7b1zZ6GD7vQ_21jito_restaking_client9generated8accounts18ncn_operator_states_1__NtBe_16NcnOperatorStateNtNtCsdCf1W31ya0G_5serde2de11Deserialize11deserializeNtB9_9___VisitorNtB22_7Visitor9visit_mapNtB3_17___DeserializeWithB20_11deserializepEBk_
FNDA:0,_RINvXs_NvXs0_NvXNvNtNtNtCs7b1zZ6GD7vQ_21jito_restaking_client9generated8accounts18ncn_operator_states_1__NtBg_16NcnOperatorStateNtNtCsdCf1W31ya0G_5serde2de11Deserialize11deserializeNtBb_9___VisitorNtB24_7Visitor9visit_mapNtB5_s_17___DeserializeWithB22_11deserializepEBm_
FNDA:0,_RINvXs0_NvXs0_NvXNvNtNtNtCs7b1zZ6GD7vQ_21jito_restaking_client9generated8accounts18ncn_operator_states_1__NtBh_16NcnOperatorStateNtNtCsdCf1W31ya0G_5serde2de11Deserialize11deserializeNtBc_9___VisitorNtB25_7Visitor9visit_mapNtB6_s0_17___DeserializeWithB23_11deserializepEBn_
FNDA:0,_RINvXs5_NtNtNtCs7b1zZ6GD7vQ_21jito_restaking_client9generated8accounts18ncn_operator_stateNtB6_16NcnOperatorStateNtNtCs7MwDlaQ6RmC_5borsh3ser14BorshSerialize9serializepEBc_
FNDA:0,_RINvXs6_NtNtNtCs7b1zZ6GD7vQ_21jito_restaking_client9generated8accounts18ncn_operator_stateNtB6_16NcnOperatorStateNtNtCs7MwDlaQ6RmC_5borsh2de16BorshDeserialize18deserialize_readerpEBc_
FNDA:0,_RNvMNtNtNtCs7b1zZ6GD7vQ_21jito_restaking_client9generated8accounts18ncn_operator_stateNtB2_16NcnOperatorState10from_bytes
FNDA:0,_RNvXs_NtNtNtCs7b1zZ6GD7vQ_21jito_restaking_client9generated8accounts18ncn_operator_stateNtB4_16NcnOperatorStateINtNtCs2ke5FKHNm4X_4core7convert7TryFromRNtNtCs1DZodUYCwtV_14solana_program12account_info11AccountInfoE8try_from
FNDA:0,_RNvXs0_NtNtNtCs7b1zZ6GD7vQ_21jito_restaking_client9generated8accounts18ncn_operator_stateNtB5_16NcnOperatorStateNtCse5yC2j32InA_11anchor_lang18AccountDeserialize25try_deserialize_unchecked
FNDA:0,_RNvXs2_NtNtNtCs7b1zZ6GD7vQ_21jito_restaking_client9generated8accounts18ncn_operator_stateNtB5_16NcnOperatorStateNtCse5yC2j32InA_11anchor_lang5Owner5owner
FNF:8
FNH:0
DA:12,0
DA:13,0
DA:36,0
DA:37,0
DA:38,0
DA:39,0
DA:45,0
DA:46,0
DA:47,0
DA:48,0
DA:49,0
DA:50,0
DA:55,0
DA:56,0
DA:57,0
DA:65,0
DA:66,0
DA:67,0
BRF:0
BRH:0
LF:20
LH:0
end_of_record
SF:/Users/coach/Documents/Jito/restaking/clients/rust/restaking_client/src/generated/accounts/ncn_vault_slasher_ticket.rs
FN:13,_RINvXNvXNvNtNtNtCs7b1zZ6GD7vQ_21jito_restaking_client9generated8accounts24ncn_vault_slasher_ticket1__NtB8_21NcnVaultSlasherTicketNtNtCsdCf1W31ya0G_5serde3ser9Serialize9serializeNtB3_15___SerializeWithB23_9serializepEBe_
FN:13,_RINvXs_NvXNvNtNtNtCs7b1zZ6GD7vQ_21jito_restaking_client9generated8accounts24ncn_vault_slasher_ticket1__NtBa_21NcnVaultSlasherTicketNtNtCsdCf1W31ya0G_5serde3ser9Serialize9serializeNtB5_s_15___SerializeWithB25_9serializepEBg_
FN:13,_RINvXs0_NvXNvNtNtNtCs7b1zZ6GD7vQ_21jito_restaking_client9generated8accounts24ncn_vault_slasher_ticket1__NtBb_21NcnVaultSlasherTicketNtNtCsdCf1W31ya0G_5serde3ser9Serialize9serializeNtB6_s0_15___SerializeWithB26_9serializepEBh_
FN:13,_RINvXs1_NvXNvNtNtNtCs7b1zZ6GD7vQ_21jito_restaking_client9generated8accounts24ncn_vault_slasher_ticket1__NtBb_21NcnVaultSlasherTicketNtNtCsdCf1W31ya0G_5serde3ser9Serialize9serializeNtB6_s1_15___SerializeWithB26_9serializepEBh_
FN:13,_RNvXNvXNvNtNtNtCs7b1zZ6GD7vQ_21jito_restaking_client9generated8accounts24ncn_vault_slasher_tickets_1__NtB7_21NcnVaultSlasherTicketNtNtCsdCf1W31ya0G_5serde2de11Deserialize11deserializeNtB2_14___FieldVisitorNtB26_7Visitor9expecting
FN:13,_RINvXNvXNvNtNtNtCs7b1zZ6GD7vQ_21jito_restaking_client9generated8accounts24ncn_vault_slasher_tickets_1__NtB8_21NcnVaultSlasherTicketNtNtCsdCf1W31ya0G_5serde2de11Deserialize11deserializeNtB3_14___FieldVisitorNtB27_7Visitor9visit_u64pEBe_
FN:13,_RINvXNvXNvNtNtNtCs7b1zZ6GD7vQ_21jito_restaking_client9generated8accounts24ncn_vault_slasher_tickets_1__NtB8_21NcnVaultSlasherTicketNtNtCsdCf1W31ya0G_5serde2de11Deserialize11deserializeNtB3_14___FieldVisitorNtB27_7Visitor9visit_strpEBe_
FN:13,_RINvXNvXNvNtNtNtCs7b1zZ6GD7vQ_21jito_restaking_client9generated8accounts24ncn_vault_slasher_tickets_1__NtB8_21NcnVaultSlasherTicketNtNtCsdCf1W31ya0G_5serde2de11Deserialize11deserializeNtB3_14___FieldVisitorNtB27_7Visitor11visit_bytespEBe_
FN:13,_RINvXs_NvXNvNtNtNtCs7b1zZ6GD7vQ_21jito_restaking_client9generated8accounts24ncn_vault_slasher_tickets_1__NtBa_21NcnVaultSlasherTicketNtNtCsdCf1W31ya0G_5serde2de11Deserialize11deserializeNtB5_7___FieldB27_11deserializepEBg_
FN:13,_RNvXs0_NvXNvNtNtNtCs7b1zZ6GD7vQ_21jito_restaking_client9generated8accounts24ncn_vault_slasher_tickets_1__NtBa_21NcnVaultSlasherTicketNtNtCsdCf1W31ya0G_5serde2de11Deserialize11deserializeNtB5_9___VisitorNtB29_7Visitor9expecting
FN:13,_RINvXs0_NvXNvNtNtNtCs7b1zZ6GD7vQ_21jito_restaking_client9generated8accounts24ncn_vault_slasher_tickets_1__NtBb_21NcnVaultSlasherTicketNtNtCsdCf1W31ya0G_5serde2de11Deserialize11deserializeNtB6_9___VisitorNtB2a_7Visitor9visit_seqpEBh_
FN:13,_RINvXNvXs0_NvXNvNtNtNtCs7b1zZ6GD7vQ_21jito_restaking_client9generated8accounts24ncn_vault_slasher_tickets_1__NtBe_21NcnVaultSlasherTicketNtNtCsdCf1W31ya0G_5serde2de11Deserialize11deserializeNtB9_9___VisitorNtB2d_7Visitor9visit_seqNtB3_17___DeserializeWithB2b_11deserializepEBk_
FN:13,_RNCINvXs0_NvXNvNtNtNtCs7b1zZ6GD7vQ_21jito_restaking_client9generated8accounts24ncn_vault_slasher_tickets_1__NtBd_21NcnVaultSlasherTicketNtNtCsdCf1W31ya0G_5serde2de11Deserialize11deserializeNtB8_9___VisitorNtB2c_7Visitor9visit_seqpE0Bj_
FN:13,_RINvXs_NvXs0_NvXNvNtNtNtCs7b1zZ6GD7vQ_21jito_restaking_client9generated8accounts24ncn_vault_slasher_tickets_1__NtBg_21NcnVaultSlasherTicketNtNtCsdCf1W31ya0G_5serde2de11Deserialize11deserializeNtBb_9___VisitorNtB2f_7Visitor9visit_seqNtB5_s_17___DeserializeWithB2d_11deserializepEBm_
FN:13,_RNCINvXs0_NvXNvNtNtNtCs7b1zZ6GD7vQ_21jito_restaking_client9generated8accounts24ncn_vault_slasher_tickets_1__NtBd_21NcnVaultSlasherTicketNtNtCsdCf1W31ya0G_5serde2de11Deserialize11deserializeNtB8_9___VisitorNtB2c_7Visitor9visit_seqpEs_0Bj_
FN:13,_RINvXs0_NvXs0_NvXNvNtNtNtCs7b1zZ6GD7vQ_21jito_restaking_client9generated8accounts24ncn_vault_slasher_tickets_1__NtBh_21NcnVaultSlasherTicketNtNtCsdCf1W31ya0G_5serde2de11Deserialize11deserializeNtBc_9___VisitorNtB2g_7Visitor9visit_seqNtB6_s0_17___DeserializeWithB2e_11deserializepEBn_
FN:13,_RNCINvXs0_NvXNvNtNtNtCs7b1zZ6GD7vQ_21jito_restaking_client9generated8accounts24ncn_vault_slasher_tickets_1__NtBd_21NcnVaultSlasherTicketNtNtCsdCf1W31ya0G_5serde2de11Deserialize11deserializeNtB8_9___VisitorNtB2c_7Visitor9visit_seqpEs0_0Bj_
FN:13,_RINvXs1_NvXs0_NvXNvNtNtNtCs7b1zZ6GD7vQ_21jito_restaking_client9generated8accounts24ncn_vault_slasher_tickets_1__NtBh_21NcnVaultSlasherTicketNtNtCsdCf1W31ya0G_5serde2de11Deserialize11deserializeNtBc_9___VisitorNtB2g_7Visitor9visit_seqNtB6_s1_17___DeserializeWithB2e_11deserializepEBn_
FN:13,_RNCINvXs0_NvXNvNtNtNtCs7b1zZ6GD7vQ_21jito_restaking_client9generated8accounts24ncn_vault_slasher_tickets_1__NtBd_21NcnVaultSlasherTicketNtNtCsdCf1W31ya0G_5serde2de11Deserialize11deserializeNtB8_9___VisitorNtB2c_7Visitor9visit_seqpEs1_0Bj_
FN:13,_RINvXs0_NvXNvNtNtNtCs7b1zZ6GD7vQ_21jito_restaking_client9generated8accounts24ncn_vault_slasher_tickets_1__NtBb_21NcnVaultSlasherTicketNtNtCsdCf1W31ya0G_5serde2de11Deserialize11deserializeNtB6_9___VisitorNtB2a_7Visitor9visit_mappEBh_
FN:13,_RINvXNvXs0_NvXNvNtNtNtCs7b1zZ6GD7vQ_21jito_restaking_client9generated8accounts24ncn_vault_slasher_tickets_1__NtBe_21NcnVaultSlasherTicketNtNtCsdCf1W31ya0G_5serde2de11Deserialize11deserializeNtB9_9___VisitorNtB2d_7Visitor9visit_mapNtB3_17___DeserializeWithB2b_11deserializepEBk_
FN:13,_RINvXs_NvXs0_NvXNvNtNtNtCs7b1zZ6GD7vQ_21jito_restaking_client9generated8accounts24ncn_vault_slasher_tickets_1__NtBg_21NcnVaultSlasherTicketNtNtCsdCf1W31ya0G_5serde2de11Deserialize11deserializeNtBb_9___VisitorNtB2f_7Visitor9visit_mapNtB5_s_17___DeserializeWithB2d_11deserializepEBm_
FN:13,_RINvXs0_NvXs0_NvXNvNtNtNtCs7b1zZ6GD7vQ_21jito_restaking_client9generated8accounts24ncn_vault_slasher_tickets_1__NtBh_21NcnVaultSlasherTicketNtNtCsdCf1W31ya0G_5serde2de11Deserialize11deserializeNtBc_9___VisitorNtB2g_7Visitor9visit_mapNtB6_s0_17___DeserializeWithB2e_11deserializepEBn_
FN:13,_RINvXs1_NvXs0_NvXNvNtNtNtCs7b1zZ6GD7vQ_21jito_restaking_client9generated8accounts24ncn_vault_slasher_tickets_1__NtBh_21NcnVaultSlasherTicketNtNtCsdCf1W31ya0G_5serde2de11Deserialize11deserializeNtBc_9___VisitorNtB2g_7Visitor9visit_mapNtB6_s1_17___DeserializeWithB2e_11deserializepEBn_
FN:12,_RINvXs5_NtNtNtCs7b1zZ6GD7vQ_21jito_restaking_client9generated8accounts24ncn_vault_slasher_ticketNtB6_21NcnVaultSlasherTicketNtNtCs7MwDlaQ6RmC_5borsh3ser14BorshSerialize9serializepEBc_
FN:12,_RINvXs6_NtNtNtCs7b1zZ6GD7vQ_21jito_restaking_client9generated8accounts24ncn_vault_slasher_ticketNtB6_21NcnVaultSlasherTicketNtNtCs7MwDlaQ6RmC_5borsh2de16BorshDeserialize18deserialize_readerpEBc_
FN:41,_RNvMNtNtNtCs7b1zZ6GD7vQ_21jito_restaking_client9generated8accounts24ncn_vault_slasher_ticketNtB2_21NcnVaultSlasherTicket10from_bytes
FN:50,_RNvXs_NtNtNtCs7b1zZ6GD7vQ_21jito_restaking_client9generated8accounts24ncn_vault_slasher_ticketNtB4_21NcnVaultSlasherTicketINtNtCs2ke5FKHNm4X_4core7convert7TryFromRNtNtCs1DZodUYCwtV_14solana_program12account_info11AccountInfoE8try_from
FN:60,_RNvXs0_NtNtNtCs7b1zZ6GD7vQ_21jito_restaking_client9generated8accounts24ncn_vault_slasher_ticketNtB5_21NcnVaultSlasherTicketNtCse5yC2j32InA_11anchor_lang18AccountDeserialize25try_deserialize_unchecked
FN:70,_RNvXs2_NtNtNtCs7b1zZ6GD7vQ_21jito_restaking_client9generated8accounts24ncn_vault_slasher_ticketNtB5_21NcnVaultSlasherTicketNtCse5yC2j32InA_11anchor_lang5Owner5owner
FNDA:0,_RINvXNvXNvNtNtNtCs7b1zZ6GD7vQ_21jito_restaking_client9generated8accounts24ncn_vault_slasher_ticket1__NtB8_21NcnVaultSlasherTicketNtNtCsdCf1W31ya0G_5serde3ser9Serialize9serializeNtB3_15___SerializeWithB23_9serializepEBe_
FNDA:0,_RINvXs_NvXNvNtNtNtCs7b1zZ6GD7vQ_21jito_restaking_client9generated8accounts24ncn_vault_slasher_ticket1__NtBa_21NcnVaultSlasherTicketNtNtCsdCf1W31ya0G_5serde3ser9Serialize9serializeNtB5_s_15___SerializeWithB25_9serializepEBg_
FNDA:0,_RINvXs0_NvXNvNtNtNtCs7b1zZ6GD7vQ_21jito_restaking_client9generated8accounts24ncn_vault_slasher_ticket1__NtBb_21NcnVaultSlasherTicketNtNtCsdCf1W31ya0G_5serde3ser9Serialize9serializeNtB6_s0_15___SerializeWithB26_9serializepEBh_
FNDA:0,_RINvXs1_NvXNvNtNtNtCs7b1zZ6GD7vQ_21jito_restaking_client9generated8accounts24ncn_vault_slasher_ticket1__NtBb_21NcnVaultSlasherTicketNtNtCsdCf1W31ya0G_5serde3ser9Serialize9serializeNtB6_s1_15___SerializeWithB26_9serializepEBh_
FNDA:0,_RNvXNvXNvNtNtNtCs7b1zZ6GD7vQ_21jito_restaking_client9generated8accounts24ncn_vault_slasher_tickets_1__NtB7_21NcnVaultSlasherTicketNtNtCsdCf1W31ya0G_5serde2de11Deserialize11deserializeNtB2_14___FieldVisitorNtB26_7Visitor9expecting
FNDA:0,_RINvXNvXNvNtNtNtCs7b1zZ6GD7vQ_21jito_restaking_client9generated8accounts24ncn_vault_slasher_tickets_1__NtB8_21NcnVaultSlasherTicketNtNtCsdCf1W31ya0G_5serde2de11Deserialize11deserializeNtB3_14___FieldVisitorNtB27_7Visitor9visit_u64pEBe_
FNDA:0,_RINvXNvXNvNtNtNtCs7b1zZ6GD7vQ_21jito_restaking_client9generated8accounts24ncn_vault_slasher_tickets_1__NtB8_21NcnVaultSlasherTicketNtNtCsdCf1W31ya0G_5serde2de11Deserialize11deserializeNtB3_14___FieldVisitorNtB27_7Visitor9visit_strpEBe_
FNDA:0,_RINvXNvXNvNtNtNtCs7b1zZ6GD7vQ_21jito_restaking_client9generated8accounts24ncn_vault_slasher_tickets_1__NtB8_21NcnVaultSlasherTicketNtNtCsdCf1W31ya0G_5serde2de11Deserialize11deserializeNtB3_14___FieldVisitorNtB27_7Visitor11visit_bytespEBe_
FNDA:0,_RINvXs_NvXNvNtNtNtCs7b1zZ6GD7vQ_21jito_restaking_client9generated8accounts24ncn_vault_slasher_tickets_1__NtBa_21NcnVaultSlasherTicketNtNtCsdCf1W31ya0G_5serde2de11Deserialize11deserializeNtB5_7___FieldB27_11deserializepEBg_
FNDA:0,_RNvXs0_NvXNvNtNtNtCs7b1zZ6GD7vQ_21jito_restaking_client9generated8accounts24ncn_vault_slasher_tickets_1__NtBa_21NcnVaultSlasherTicketNtNtCsdCf1W31ya0G_5serde2de11Deserialize11deserializeNtB5_9___VisitorNtB29_7Visitor9expecting
FNDA:0,_RINvXs0_NvXNvNtNtNtCs7b1zZ6GD7vQ_21jito_restaking_client9generated8accounts24ncn_vault_slasher_tickets_1__NtBb_21NcnVaultSlasherTicketNtNtCsdCf1W31ya0G_5serde2de11Deserialize11deserializeNtB6_9___VisitorNtB2a_7Visitor9visit_seqpEBh_
FNDA:0,_RINvXNvXs0_NvXNvNtNtNtCs7b1zZ6GD7vQ_21jito_restaking_client9generated8accounts24ncn_vault_slasher_tickets_1__NtBe_21NcnVaultSlasherTicketNtNtCsdCf1W31ya0G_5serde2de11Deserialize11deserializeNtB9_9___VisitorNtB2d_7Visitor9visit_seqNtB3_17___DeserializeWithB2b_11deserializepEBk_
FNDA:0,_RNCINvXs0_NvXNvNtNtNtCs7b1zZ6GD7vQ_21jito_restaking_client9generated8accounts24ncn_vault_slasher_tickets_1__NtBd_21NcnVaultSlasherTicketNtNtCsdCf1W31ya0G_5serde2de11Deserialize11deserializeNtB8_9___VisitorNtB2c_7Visitor9visit_seqpE0Bj_
FNDA:0,_RINvXs_NvXs0_NvXNvNtNtNtCs7b1zZ6GD7vQ_21jito_restaking_client9generated8accounts24ncn_vault_slasher_tickets_1__NtBg_21NcnVaultSlasherTicketNtNtCsdCf1W31ya0G_5serde2de11Deserialize11deserializeNtBb_9___VisitorNtB2f_7Visitor9visit_seqNtB5_s_17___DeserializeWithB2d_11deserializepEBm_
FNDA:0,_RNCINvXs0_NvXNvNtNtNtCs7b1zZ6GD7vQ_21jito_restaking_client9generated8accounts24ncn_vault_slasher_tickets_1__NtBd_21NcnVaultSlasherTicketNtNtCsdCf1W31ya0G_5serde2de11Deserialize11deserializeNtB8_9___VisitorNtB2c_7Visitor9visit_seqpEs_0Bj_
FNDA:0,_RINvXs0_NvXs0_NvXNvNtNtNtCs7b1zZ6GD7vQ_21jito_restaking_client9generated8accounts24ncn_vault_slasher_tickets_1__NtBh_21NcnVaultSlasherTicketNtNtCsdCf1W31ya0G_5serde2de11Deserialize11deserializeNtBc_9___VisitorNtB2g_7Visitor9visit_seqNtB6_s0_17___DeserializeWithB2e_11deserializepEBn_
FNDA:0,_RNCINvXs0_NvXNvNtNtNtCs7b1zZ6GD7vQ_21jito_restaking_client9generated8accounts24ncn_vault_slasher_tickets_1__NtBd_21NcnVaultSlasherTicketNtNtCsdCf1W31ya0G_5serde2de11Deserialize11deserializeNtB8_9___VisitorNtB2c_7Visitor9visit_seqpEs0_0Bj_
FNDA:0,_RINvXs1_NvXs0_NvXNvNtNtNtCs7b1zZ6GD7vQ_21jito_restaking_client9generated8accounts24ncn_vault_slasher_tickets_1__NtBh_21NcnVaultSlasherTicketNtNtCsdCf1W31ya0G_5serde2de11Deserialize11deserializeNtBc_9___VisitorNtB2g_7Visitor9visit_seqNtB6_s1_17___DeserializeWithB2e_11deserializepEBn_
FNDA:0,_RNCINvXs0_NvXNvNtNtNtCs7b1zZ6GD7vQ_21jito_restaking_client9generated8accounts24ncn_vault_slasher_tickets_1__NtBd_21NcnVaultSlasherTicketNtNtCsdCf1W31ya0G_5serde2de11Deserialize11deserializeNtB8_9___VisitorNtB2c_7Visitor9visit_seqpEs1_0Bj_
FNDA:0,_RINvXs0_NvXNvNtNtNtCs7b1zZ6GD7vQ_21jito_restaking_client9generated8accounts24ncn_vault_slasher_tickets_1__NtBb_21NcnVaultSlasherTicketNtNtCsdCf1W31ya0G_5serde2de11Deserialize11deserializeNtB6_9___VisitorNtB2a_7Visitor9visit_mappEBh_
FNDA:0,_RINvXNvXs0_NvXNvNtNtNtCs7b1zZ6GD7vQ_21jito_restaking_client9generated8accounts24ncn_vault_slasher_tickets_1__NtBe_21NcnVaultSlasherTicketNtNtCsdCf1W31ya0G_5serde2de11Deserialize11deserializeNtB9_9___VisitorNtB2d_7Visitor9visit_mapNtB3_17___DeserializeWithB2b_11deserializepEBk_
FNDA:0,_RINvXs_NvXs0_NvXNvNtNtNtCs7b1zZ6GD7vQ_21jito_restaking_client9generated8accounts24ncn_vault_slasher_tickets_1__NtBg_21NcnVaultSlasherTicketNtNtCsdCf1W31ya0G_5serde2de11Deserialize11deserializeNtBb_9___VisitorNtB2f_7Visitor9visit_mapNtB5_s_17___DeserializeWithB2d_11deserializepEBm_
FNDA:0,_RINvXs0_NvXs0_NvXNvNtNtNtCs7b1zZ6GD7vQ_21jito_restaking_client9generated8accounts24ncn_vault_slasher_tickets_1__NtBh_21NcnVaultSlasherTicketNtNtCsdCf1W31ya0G_5serde2de11Deserialize11deserializeNtBc_9___VisitorNtB2g_7Visitor9visit_mapNtB6_s0_17___DeserializeWithB2e_11deserializepEBn_
FNDA:0,_RINvXs1_NvXs0_NvXNvNtNtNtCs7b1zZ6GD7vQ_21jito_restaking_client9generated8accounts24ncn_vault_slasher_tickets_1__NtBh_21NcnVaultSlasherTicketNtNtCsdCf1W31ya0G_5serde2de11Deserialize11deserializeNtBc_9___VisitorNtB2g_7Visitor9visit_mapNtB6_s1_17___DeserializeWithB2e_11deserializepEBn_
FNDA:0,_RINvXs5_NtNtNtCs7b1zZ6GD7vQ_21jito_restaking_client9generated8accounts24ncn_vault_slasher_ticketNtB6_21NcnVaultSlasherTicketNtNtCs7MwDlaQ6RmC_5borsh3ser14BorshSerialize9serializepEBc_
FNDA:0,_RINvXs6_NtNtNtCs7b1zZ6GD7vQ_21jito_restaking_client9generated8accounts24ncn_vault_slasher_ticketNtB6_21NcnVaultSlasherTicketNtNtCs7MwDlaQ6RmC_5borsh2de16BorshDeserialize18deserialize_readerpEBc_
FNDA:0,_RNvMNtNtNtCs7b1zZ6GD7vQ_21jito_restaking_client9generated8accounts24ncn_vault_slasher_ticketNtB2_21NcnVaultSlasherTicket10from_bytes
FNDA:0,_RNvXs_NtNtNtCs7b1zZ6GD7vQ_21jito_restaking_client9generated8accounts24ncn_vault_slasher_ticketNtB4_21NcnVaultSlasherTicketINtNtCs2ke5FKHNm4X_4core7convert7TryFromRNtNtCs1DZodUYCwtV_14solana_program12account_info11AccountInfoE8try_from
FNDA:0,_RNvXs0_NtNtNtCs7b1zZ6GD7vQ_21jito_restaking_client9generated8accounts24ncn_vault_slasher_ticketNtB5_21NcnVaultSlasherTicketNtCse5yC2j32InA_11anchor_lang18AccountDeserialize25try_deserialize_unchecked
FNDA:0,_RNvXs2_NtNtNtCs7b1zZ6GD7vQ_21jito_restaking_client9generated8accounts24ncn_vault_slasher_ticketNtB5_21NcnVaultSlasherTicketNtCse5yC2j32InA_11anchor_lang5Owner5owner
FNF:8
FNH:0
DA:12,0
DA:13,0
DA:41,0
DA:42,0
DA:43,0
DA:44,0
DA:50,0
DA:51,0
DA:52,0
DA:53,0
DA:54,0
DA:55,0
DA:60,0
DA:61,0
DA:62,0
DA:70,0
DA:71,0
DA:72,0
BRF:0
BRH:0
LF:20
LH:0
end_of_record
SF:/Users/coach/Documents/Jito/restaking/clients/rust/restaking_client/src/generated/accounts/ncn_vault_ticket.rs
FN:13,_RINvXNvXNvNtNtNtCs7b1zZ6GD7vQ_21jito_restaking_client9generated8accounts16ncn_vault_ticket1__NtB8_14NcnVaultTicketNtNtCsdCf1W31ya0G_5serde3ser9Serialize9serializeNtB3_15___SerializeWithB1O_9serializepEBe_
FN:13,_RINvXs_NvXNvNtNtNtCs7b1zZ6GD7vQ_21jito_restaking_client9generated8accounts16ncn_vault_ticket1__NtBa_14NcnVaultTicketNtNtCsdCf1W31ya0G_5serde3ser9Serialize9serializeNtB5_s_15___SerializeWithB1Q_9serializepEBg_
FN:13,_RINvXs0_NvXNvNtNtNtCs7b1zZ6GD7vQ_21jito_restaking_client9generated8accounts16ncn_vault_ticket1__NtBb_14NcnVaultTicketNtNtCsdCf1W31ya0G_5serde3ser9Serialize9serializeNtB6_s0_15___SerializeWithB1R_9serializepEBh_
FN:13,_RNvXNvXNvNtNtNtCs7b1zZ6GD7vQ_21jito_restaking_client9generated8accounts16ncn_vault_tickets_1__NtB7_14NcnVaultTicketNtNtCsdCf1W31ya0G_5serde2de11Deserialize11deserializeNtB2_14___FieldVisitorNtB1R_7Visitor9expecting
FN:13,_RINvXNvXNvNtNtNtCs7b1zZ6GD7vQ_21jito_restaking_client9generated8accounts16ncn_vault_tickets_1__NtB8_14NcnVaultTicketNtNtCsdCf1W31ya0G_5serde2de11Deserialize11deserializeNtB3_14___FieldVisitorNtB1S_7Visitor9visit_u64pEBe_
FN:13,_RINvXNvXNvNtNtNtCs7b1zZ6GD7vQ_21jito_restaking_client9generated8accounts16ncn_vault_tickets_1__NtB8_14NcnVaultTicketNtNtCsdCf1W31ya0G_5serde2de11Deserialize11deserializeNtB3_14___FieldVisitorNtB1S_7Visitor9visit_strpEBe_
FN:13,_RINvXNvXNvNtNtNtCs7b1zZ6GD7vQ_21jito_restaking_client9generated8accounts16ncn_vault_tickets_1__NtB8_14NcnVaultTicketNtNtCsdCf1W31ya0G_5serde2de11Deserialize11deserializeNtB3_14___FieldVisitorNtB1S_7Visitor11visit_bytespEBe_
FN:13,_RINvXs_NvXNvNtNtNtCs7b1zZ6GD7vQ_21jito_restaking_client9generated8accounts16ncn_vault_tickets_1__NtBa_14NcnVaultTicketNtNtCsdCf1W31ya0G_5serde2de11Deserialize11deserializeNtB5_7___FieldB1S_11deserializepEBg_
FN:13,_RNvXs0_NvXNvNtNtNtCs7b1zZ6GD7vQ_21jito_restaking_client9generated8accounts16ncn_vault_tickets_1__NtBa_14NcnVaultTicketNtNtCsdCf1W31ya0G_5serde2de11Deserialize11deserializeNtB5_9___VisitorNtB1U_7Visitor9expecting
FN:13,_RINvXs0_NvXNvNtNtNtCs7b1zZ6GD7vQ_21jito_restaking_client9generated8accounts16ncn_vault_tickets_1__NtBb_14NcnVaultTicketNtNtCsdCf1W31ya0G_5serde2de11Deserialize11deserializeNtB6_9___VisitorNtB1V_7Visitor9visit_seqpEBh_
FN:13,_RINvXNvXs0_NvXNvNtNtNtCs7b1zZ6GD7vQ_21jito_restaking_client9generated8accounts16ncn_vault_tickets_1__NtBe_14NcnVaultTicketNtNtCsdCf1W31ya0G_5serde2de11Deserialize11deserializeNtB9_9___VisitorNtB1Y_7Visitor9visit_seqNtB3_17___DeserializeWithB1W_11deserializepEBk_
FN:13,_RNCINvXs0_NvXNvNtNtNtCs7b1zZ6GD7vQ_21jito_restaking_client9generated8accounts16ncn_vault_tickets_1__NtBd_14NcnVaultTicketNtNtCsdCf1W31ya0G_5serde2de11Deserialize11deserializeNtB8_9___VisitorNtB1X_7Visitor9visit_seqpE0Bj_
FN:13,_RINvXs_NvXs0_NvXNvNtNtNtCs7b1zZ6GD7vQ_21jito_restaking_client9generated8accounts16ncn_vault_tickets_1__NtBg_14NcnVaultTicketNtNtCsdCf1W31ya0G_5serde2de11Deserialize11deserializeNtBb_9___VisitorNtB20_7Visitor9visit_seqNtB5_s_17___DeserializeWithB1Y_11deserializepEBm_
FN:13,_RNCINvXs0_NvXNvNtNtNtCs7b1zZ6GD7vQ_21jito_restaking_client9generated8accounts16ncn_vault_tickets_1__NtBd_14NcnVaultTicketNtNtCsdCf1W31ya0G_5serde2de11Deserialize11deserializeNtB8_9___VisitorNtB1X_7Visitor9visit_seqpEs_0Bj_
FN:13,_RINvXs0_NvXs0_NvXNvNtNtNtCs7b1zZ6GD7vQ_21jito_restaking_client9generated8accounts16ncn_vault_tickets_1__NtBh_14NcnVaultTicketNtNtCsdCf1W31ya0G_5serde2de11Deserialize11deserializeNtBc_9___VisitorNtB21_7Visitor9visit_seqNtB6_s0_17___DeserializeWithB1Z_11deserializepEBn_
FN:13,_RNCINvXs0_NvXNvNtNtNtCs7b1zZ6GD7vQ_21jito_restaking_client9generated8accounts16ncn_vault_tickets_1__NtBd_14NcnVaultTicketNtNtCsdCf1W31ya0G_5serde2de11Deserialize11deserializeNtB8_9___VisitorNtB1X_7Visitor9visit_seqpEs0_0Bj_
FN:13,_RINvXs0_NvXNvNtNtNtCs7b1zZ6GD7vQ_21jito_restaking_client9generated8accounts16ncn_vault_tickets_1__NtBb_14NcnVaultTicketNtNtCsdCf1W31ya0G_5serde2de11Deserialize11deserializeNtB6_9___VisitorNtB1V_7Visitor9visit_mappEBh_
FN:13,_RINvXNvXs0_NvXNvNtNtNtCs7b1zZ6GD7vQ_21jito_restaking_client9generated8accounts16ncn_vault_tickets_1__NtBe_14NcnVaultTicketNtNtCsdCf1W31ya0G_5serde2de11Deserialize11deserializeNtB9_9___VisitorNtB1Y_7Visitor9visit_mapNtB3_17___DeserializeWithB1W_11deserializepEBk_
FN:13,_RINvXs_NvXs0_NvXNvNtNtNtCs7b1zZ6GD7vQ_21jito_restaking_client9generated8accounts16ncn_vault_tickets_1__NtBg_14NcnVaultTicketNtNtCsdCf1W31ya0G_5serde2de11Deserialize11deserializeNtBb_9___VisitorNtB20_7Visitor9visit_mapNtB5_s_17___DeserializeWithB1Y_11deserializepEBm_
FN:13,_RINvXs0_NvXs0_NvXNvNtNtNtCs7b1zZ6GD7vQ_21jito_restaking_client9generated8accounts16ncn_vault_tickets_1__NtBh_14NcnVaultTicketNtNtCsdCf1W31ya0G_5serde2de11Deserialize11deserializeNtBc_9___VisitorNtB21_7Visitor9visit_mapNtB6_s0_17___DeserializeWithB1Z_11deserializepEBn_
FN:12,_RINvXs5_NtNtNtCs7b1zZ6GD7vQ_21jito_restaking_client9generated8accounts16ncn_vault_ticketNtB6_14NcnVaultTicketNtNtCs7MwDlaQ6RmC_5borsh3ser14BorshSerialize9serializepEBc_
FN:12,_RINvXs6_NtNtNtCs7b1zZ6GD7vQ_21jito_restaking_client9generated8accounts16ncn_vault_ticketNtB6_14NcnVaultTicketNtNtCs7MwDlaQ6RmC_5borsh2de16BorshDeserialize18deserialize_readerpEBc_
FN:35,_RNvMNtNtNtCs7b1zZ6GD7vQ_21jito_restaking_client9generated8accounts16ncn_vault_ticketNtB2_14NcnVaultTicket10from_bytes
FN:44,_RNvXs_NtNtNtCs7b1zZ6GD7vQ_21jito_restaking_client9generated8accounts16ncn_vault_ticketNtB4_14NcnVaultTicketINtNtCs2ke5FKHNm4X_4core7convert7TryFromRNtNtCs1DZodUYCwtV_14solana_program12account_info11AccountInfoE8try_from
FN:54,_RNvXs0_NtNtNtCs7b1zZ6GD7vQ_21jito_restaking_client9generated8accounts16ncn_vault_ticketNtB5_14NcnVaultTicketNtCse5yC2j32InA_11anchor_lang18AccountDeserialize25try_deserialize_unchecked
FN:64,_RNvXs2_NtNtNtCs7b1zZ6GD7vQ_21jito_restaking_client9generated8accounts16ncn_vault_ticketNtB5_14NcnVaultTicketNtCse5yC2j32InA_11anchor_lang5Owner5owner
FNDA:0,_RINvXNvXNvNtNtNtCs7b1zZ6GD7vQ_21jito_restaking_client9generated8accounts16ncn_vault_ticket1__NtB8_14NcnVaultTicketNtNtCsdCf1W31ya0G_5serde3ser9Serialize9serializeNtB3_15___SerializeWithB1O_9serializepEBe_
FNDA:0,_RINvXs_NvXNvNtNtNtCs7b1zZ6GD7vQ_21jito_restaking_client9generated8accounts16ncn_vault_ticket1__NtBa_14NcnVaultTicketNtNtCsdCf1W31ya0G_5serde3ser9Serialize9serializeNtB5_s_15___SerializeWithB1Q_9serializepEBg_
FNDA:0,_RINvXs0_NvXNvNtNtNtCs7b1zZ6GD7vQ_21jito_restaking_client9generated8accounts16ncn_vault_ticket1__NtBb_14NcnVaultTicketNtNtCsdCf1W31ya0G_5serde3ser9Serialize9serializeNtB6_s0_15___SerializeWithB1R_9serializepEBh_
FNDA:0,_RNvXNvXNvNtNtNtCs7b1zZ6GD7vQ_21jito_restaking_client9generated8accounts16ncn_vault_tickets_1__NtB7_14NcnVaultTicketNtNtCsdCf1W31ya0G_5serde2de11Deserialize11deserializeNtB2_14___FieldVisitorNtB1R_7Visitor9expecting
FNDA:0,_RINvXNvXNvNtNtNtCs7b1zZ6GD7vQ_21jito_restaking_client9generated8accounts16ncn_vault_tickets_1__NtB8_14NcnVaultTicketNtNtCsdCf1W31ya0G_5serde2de11Deserialize11deserializeNtB3_14___FieldVisitorNtB1S_7Visitor9visit_u64pEBe_
FNDA:0,_RINvXNvXNvNtNtNtCs7b1zZ6GD7vQ_21jito_restaking_client9generated8accounts16ncn_vault_tickets_1__NtB8_14NcnVaultTicketNtNtCsdCf1W31ya0G_5serde2de11Deserialize11deserializeNtB3_14___FieldVisitorNtB1S_7Visitor9visit_strpEBe_
FNDA:0,_RINvXNvXNvNtNtNtCs7b1zZ6GD7vQ_21jito_restaking_client9generated8accounts16ncn_vault_tickets_1__NtB8_14NcnVaultTicketNtNtCsdCf1W31ya0G_5serde2de11Deserialize11deserializeNtB3_14___FieldVisitorNtB1S_7Visitor11visit_bytespEBe_
FNDA:0,_RINvXs_NvXNvNtNtNtCs7b1zZ6GD7vQ_21jito_restaking_client9generated8accounts16ncn_vault_tickets_1__NtBa_14NcnVaultTicketNtNtCsdCf1W31ya0G_5serde2de11Deserialize11deserializeNtB5_7___FieldB1S_11deserializepEBg_
FNDA:0,_RNvXs0_NvXNvNtNtNtCs7b1zZ6GD7vQ_21jito_restaking_client9generated8accounts16ncn_vault_tickets_1__NtBa_14NcnVaultTicketNtNtCsdCf1W31ya0G_5serde2de11Deserialize11deserializeNtB5_9___VisitorNtB1U_7Visitor9expecting
FNDA:0,_RINvXs0_NvXNvNtNtNtCs7b1zZ6GD7vQ_21jito_restaking_client9generated8accounts16ncn_vault_tickets_1__NtBb_14NcnVaultTicketNtNtCsdCf1W31ya0G_5serde2de11Deserialize11deserializeNtB6_9___VisitorNtB1V_7Visitor9visit_seqpEBh_
FNDA:0,_RINvXNvXs0_NvXNvNtNtNtCs7b1zZ6GD7vQ_21jito_restaking_client9generated8accounts16ncn_vault_tickets_1__NtBe_14NcnVaultTicketNtNtCsdCf1W31ya0G_5serde2de11Deserialize11deserializeNtB9_9___VisitorNtB1Y_7Visitor9visit_seqNtB3_17___DeserializeWithB1W_11deserializepEBk_
FNDA:0,_RNCINvXs0_NvXNvNtNtNtCs7b1zZ6GD7vQ_21jito_restaking_client9generated8accounts16ncn_vault_tickets_1__NtBd_14NcnVaultTicketNtNtCsdCf1W31ya0G_5serde2de11Deserialize11deserializeNtB8_9___VisitorNtB1X_7Visitor9visit_seqpE0Bj_
FNDA:0,_RINvXs_NvXs0_NvXNvNtNtNtCs7b1zZ6GD7vQ_21jito_restaking_client9generated8accounts16ncn_vault_tickets_1__NtBg_14NcnVaultTicketNtNtCsdCf1W31ya0G_5serde2de11Deserialize11deserializeNtBb_9___VisitorNtB20_7Visitor9visit_seqNtB5_s_17___DeserializeWithB1Y_11deserializepEBm_
FNDA:0,_RNCINvXs0_NvXNvNtNtNtCs7b1zZ6GD7vQ_21jito_restaking_client9generated8accounts16ncn_vault_tickets_1__NtBd_14NcnVaultTicketNtNtCsdCf1W31ya0G_5serde2de11Deserialize11deserializeNtB8_9___VisitorNtB1X_7Visitor9visit_seqpEs_0Bj_
FNDA:0,_RINvXs0_NvXs0_NvXNvNtNtNtCs7b1zZ6GD7vQ_21jito_restaking_client9generated8accounts16ncn_vault_tickets_1__NtBh_14NcnVaultTicketNtNtCsdCf1W31ya0G_5serde2de11Deserialize11deserializeNtBc_9___VisitorNtB21_7Visitor9visit_seqNtB6_s0_17___DeserializeWithB1Z_11deserializepEBn_
FNDA:0,_RNCINvXs0_NvXNvNtNtNtCs7b1zZ6GD7vQ_21jito_restaking_client9generated8accounts16ncn_vault_tickets_1__NtBd_14NcnVaultTicketNtNtCsdCf1W31ya0G_5serde2de11Deserialize11deserializeNtB8_9___VisitorNtB1X_7Visitor9visit_seqpEs0_0Bj_
FNDA:0,_RINvXs0_NvXNvNtNtNtCs7b1zZ6GD7vQ_21jito_restaking_client9generated8accounts16ncn_vault_tickets_1__NtBb_14NcnVaultTicketNtNtCsdCf1W31ya0G_5serde2de11Deserialize11deserializeNtB6_9___VisitorNtB1V_7Visitor9visit_mappEBh_
FNDA:0,_RINvXNvXs0_NvXNvNtNtNtCs7b1zZ6GD7vQ_21jito_restaking_client9generated8accounts16ncn_vault_tickets_1__NtBe_14NcnVaultTicketNtNtCsdCf1W31ya0G_5serde2de11Deserialize11deserializeNtB9_9___VisitorNtB1Y_7Visitor9visit_mapNtB3_17___DeserializeWithB1W_11deserializepEBk_
FNDA:0,_RINvXs_NvXs0_NvXNvNtNtNtCs7b1zZ6GD7vQ_21jito_restaking_client9generated8accounts16ncn_vault_tickets_1__NtBg_14NcnVaultTicketNtNtCsdCf1W31ya0G_5serde2de11Deserialize11deserializeNtBb_9___VisitorNtB20_7Visitor9visit_mapNtB5_s_17___DeserializeWithB1Y_11deserializepEBm_
FNDA:0,_RINvXs0_NvXs0_NvXNvNtNtNtCs7b1zZ6GD7vQ_21jito_restaking_client9generated8accounts16ncn_vault_tickets_1__NtBh_14NcnVaultTicketNtNtCsdCf1W31ya0G_5serde2de11Deserialize11deserializeNtBc_9___VisitorNtB21_7Visitor9visit_mapNtB6_s0_17___DeserializeWithB1Z_11deserializepEBn_
FNDA:0,_RINvXs5_NtNtNtCs7b1zZ6GD7vQ_21jito_restaking_client9generated8accounts16ncn_vault_ticketNtB6_14NcnVaultTicketNtNtCs7MwDlaQ6RmC_5borsh3ser14BorshSerialize9serializepEBc_
FNDA:0,_RINvXs6_NtNtNtCs7b1zZ6GD7vQ_21jito_restaking_client9generated8accounts16ncn_vault_ticketNtB6_14NcnVaultTicketNtNtCs7MwDlaQ6RmC_5borsh2de16BorshDeserialize18deserialize_readerpEBc_
FNDA:0,_RNvMNtNtNtCs7b1zZ6GD7vQ_21jito_restaking_client9generated8accounts16ncn_vault_ticketNtB2_14NcnVaultTicket10from_bytes
FNDA:0,_RNvXs_NtNtNtCs7b1zZ6GD7vQ_21jito_restaking_client9generated8accounts16ncn_vault_ticketNtB4_14NcnVaultTicketINtNtCs2ke5FKHNm4X_4core7convert7TryFromRNtNtCs1DZodUYCwtV_14solana_program12account_info11AccountInfoE8try_from
FNDA:0,_RNvXs0_NtNtNtCs7b1zZ6GD7vQ_21jito_restaking_client9generated8accounts16ncn_vault_ticketNtB5_14NcnVaultTicketNtCse5yC2j32InA_11anchor_lang18AccountDeserialize25try_deserialize_unchecked
FNDA:0,_RNvXs2_NtNtNtCs7b1zZ6GD7vQ_21jito_restaking_client9generated8accounts16ncn_vault_ticketNtB5_14NcnVaultTicketNtCse5yC2j32InA_11anchor_lang5Owner5owner
FNF:8
FNH:0
DA:12,0
DA:13,0
DA:35,0
DA:36,0
DA:37,0
DA:38,0
DA:44,0
DA:45,0
DA:46,0
DA:47,0
DA:48,0
DA:49,0
DA:54,0
DA:55,0
DA:56,0
DA:64,0
DA:65,0
DA:66,0
BRF:0
BRH:0
LF:20
LH:0
end_of_record
SF:/Users/coach/Documents/Jito/restaking/clients/rust/restaking_client/src/generated/accounts/operator.rs
FN:11,_RINvXNvXNvNtNtNtCs7b1zZ6GD7vQ_21jito_restaking_client9generated8accounts8operator1__NtB8_8OperatorNtNtCsdCf1W31ya0G_5serde3ser9Serialize9serializeNtB3_15___SerializeWithB1y_9serializepEBe_
FN:11,_RINvXs_NvXNvNtNtNtCs7b1zZ6GD7vQ_21jito_restaking_client9generated8accounts8operator1__NtBa_8OperatorNtNtCsdCf1W31ya0G_5serde3ser9Serialize9serializeNtB5_s_15___SerializeWithB1A_9serializepEBg_
FN:11,_RINvXs0_NvXNvNtNtNtCs7b1zZ6GD7vQ_21jito_restaking_client9generated8accounts8operator1__NtBb_8OperatorNtNtCsdCf1W31ya0G_5serde3ser9Serialize9serializeNtB6_s0_15___SerializeWithB1B_9serializepEBh_
FN:11,_RINvXs1_NvXNvNtNtNtCs7b1zZ6GD7vQ_21jito_restaking_client9generated8accounts8operator1__NtBb_8OperatorNtNtCsdCf1W31ya0G_5serde3ser9Serialize9serializeNtB6_s1_15___SerializeWithB1B_9serializepEBh_
FN:11,_RINvXs2_NvXNvNtNtNtCs7b1zZ6GD7vQ_21jito_restaking_client9generated8accounts8operator1__NtBb_8OperatorNtNtCsdCf1W31ya0G_5serde3ser9Serialize9serializeNtB6_s2_15___SerializeWithB1B_9serializepEBh_
FN:11,_RINvXs3_NvXNvNtNtNtCs7b1zZ6GD7vQ_21jito_restaking_client9generated8accounts8operator1__NtBb_8OperatorNtNtCsdCf1W31ya0G_5serde3ser9Serialize9serializeNtB6_s3_15___SerializeWithB1B_9serializepEBh_
FN:11,_RINvXs4_NvXNvNtNtNtCs7b1zZ6GD7vQ_21jito_restaking_client9generated8accounts8operator1__NtBb_8OperatorNtNtCsdCf1W31ya0G_5serde3ser9Serialize9serializeNtB6_s4_15___SerializeWithB1B_9serializepEBh_
FN:11,_RINvXs5_NvXNvNtNtNtCs7b1zZ6GD7vQ_21jito_restaking_client9generated8accounts8operator1__NtBb_8OperatorNtNtCsdCf1W31ya0G_5serde3ser9Serialize9serializeNtB6_s5_15___SerializeWithB1B_9serializepEBh_
FN:11,_RNvXNvXNvNtNtNtCs7b1zZ6GD7vQ_21jito_restaking_client9generated8accounts8operators_1__NtB7_8OperatorNtNtCsdCf1W31ya0G_5serde2de11Deserialize11deserializeNtB2_14___FieldVisitorNtB1B_7Visitor9expecting
FN:11,_RINvXNvXNvNtNtNtCs7b1zZ6GD7vQ_21jito_restaking_client9generated8accounts8operators_1__NtB8_8OperatorNtNtCsdCf1W31ya0G_5serde2de11Deserialize11deserializeNtB3_14___FieldVisitorNtB1C_7Visitor9visit_u64pEBe_
FN:11,_RINvXNvXNvNtNtNtCs7b1zZ6GD7vQ_21jito_restaking_client9generated8accounts8operators_1__NtB8_8OperatorNtNtCsdCf1W31ya0G_5serde2de11Deserialize11deserializeNtB3_14___FieldVisitorNtB1C_7Visitor9visit_strpEBe_
FN:11,_RINvXNvXNvNtNtNtCs7b1zZ6GD7vQ_21jito_restaking_client9generated8accounts8operators_1__NtB8_8OperatorNtNtCsdCf1W31ya0G_5serde2de11Deserialize11deserializeNtB3_14___FieldVisitorNtB1C_7Visitor11visit_bytespEBe_
FN:11,_RINvXs_NvXNvNtNtNtCs7b1zZ6GD7vQ_21jito_restaking_client9generated8accounts8operators_1__NtBa_8OperatorNtNtCsdCf1W31ya0G_5serde2de11Deserialize11deserializeNtB5_7___FieldB1C_11deserializepEBg_
FN:11,_RNvXs0_NvXNvNtNtNtCs7b1zZ6GD7vQ_21jito_restaking_client9generated8accounts8operators_1__NtBa_8OperatorNtNtCsdCf1W31ya0G_5serde2de11Deserialize11deserializeNtB5_9___VisitorNtB1E_7Visitor9expecting
FN:11,_RINvXs0_NvXNvNtNtNtCs7b1zZ6GD7vQ_21jito_restaking_client9generated8accounts8operators_1__NtBb_8OperatorNtNtCsdCf1W31ya0G_5serde2de11Deserialize11deserializeNtB6_9___VisitorNtB1F_7Visitor9visit_seqpEBh_
FN:11,_RINvXNvXs0_NvXNvNtNtNtCs7b1zZ6GD7vQ_21jito_restaking_client9generated8accounts8operators_1__NtBe_8OperatorNtNtCsdCf1W31ya0G_5serde2de11Deserialize11deserializeNtB9_9___VisitorNtB1I_7Visitor9visit_seqNtB3_17___DeserializeWithB1G_11deserializepEBk_
FN:11,_RNCINvXs0_NvXNvNtNtNtCs7b1zZ6GD7vQ_21jito_restaking_client9generated8accounts8operators_1__NtBd_8OperatorNtNtCsdCf1W31ya0G_5serde2de11Deserialize11deserializeNtB8_9___VisitorNtB1H_7Visitor9visit_seqpE0Bj_
FN:11,_RINvXs_NvXs0_NvXNvNtNtNtCs7b1zZ6GD7vQ_21jito_restaking_client9generated8accounts8operators_1__NtBg_8OperatorNtNtCsdCf1W31ya0G_5serde2de11Deserialize11deserializeNtBb_9___VisitorNtB1K_7Visitor9visit_seqNtB5_s_17___DeserializeWithB1I_11deserializepEBm_
FN:11,_RNCINvXs0_NvXNvNtNtNtCs7b1zZ6GD7vQ_21jito_restaking_client9generated8accounts8operators_1__NtBd_8OperatorNtNtCsdCf1W31ya0G_5serde2de11Deserialize11deserializeNtB8_9___VisitorNtB1H_7Visitor9visit_seqpEs_0Bj_
FN:11,_RINvXs0_NvXs0_NvXNvNtNtNtCs7b1zZ6GD7vQ_21jito_restaking_client9generated8accounts8operators_1__NtBh_8OperatorNtNtCsdCf1W31ya0G_5serde2de11Deserialize11deserializeNtBc_9___VisitorNtB1L_7Visitor9visit_seqNtB6_s0_17___DeserializeWithB1J_11deserializepEBn_
FN:11,_RNCINvXs0_NvXNvNtNtNtCs7b1zZ6GD7vQ_21jito_restaking_client9generated8accounts8operators_1__NtBd_8OperatorNtNtCsdCf1W31ya0G_5serde2de11Deserialize11deserializeNtB8_9___VisitorNtB1H_7Visitor9visit_seqpEs0_0Bj_
FN:11,_RINvXs1_NvXs0_NvXNvNtNtNtCs7b1zZ6GD7vQ_21jito_restaking_client9generated8accounts8operators_1__NtBh_8OperatorNtNtCsdCf1W31ya0G_5serde2de11Deserialize11deserializeNtBc_9___VisitorNtB1L_7Visitor9visit_seqNtB6_s1_17___DeserializeWithB1J_11deserializepEBn_
FN:11,_RNCINvXs0_NvXNvNtNtNtCs7b1zZ6GD7vQ_21jito_restaking_client9generated8accounts8operators_1__NtBd_8OperatorNtNtCsdCf1W31ya0G_5serde2de11Deserialize11deserializeNtB8_9___VisitorNtB1H_7Visitor9visit_seqpEs1_0Bj_
FN:11,_RINvXs2_NvXs0_NvXNvNtNtNtCs7b1zZ6GD7vQ_21jito_restaking_client9generated8accounts8operators_1__NtBh_8OperatorNtNtCsdCf1W31ya0G_5serde2de11Deserialize11deserializeNtBc_9___VisitorNtB1L_7Visitor9visit_seqNtB6_s2_17___DeserializeWithB1J_11deserializepEBn_
FN:11,_RNCINvXs0_NvXNvNtNtNtCs7b1zZ6GD7vQ_21jito_restaking_client9generated8accounts8operators_1__NtBd_8OperatorNtNtCsdCf1W31ya0G_5serde2de11Deserialize11deserializeNtB8_9___VisitorNtB1H_7Visitor9visit_seqpEs2_0Bj_
FN:11,_RINvXs3_NvXs0_NvXNvNtNtNtCs7b1zZ6GD7vQ_21jito_restaking_client9generated8accounts8operators_1__NtBh_8OperatorNtNtCsdCf1W31ya0G_5serde2de11Deserialize11deserializeNtBc_9___VisitorNtB1L_7Visitor9visit_seqNtB6_s3_17___DeserializeWithB1J_11deserializepEBn_
FN:11,_RNCINvXs0_NvXNvNtNtNtCs7b1zZ6GD7vQ_21jito_restaking_client9generated8accounts8operators_1__NtBd_8OperatorNtNtCsdCf1W31ya0G_5serde2de11Deserialize11deserializeNtB8_9___VisitorNtB1H_7Visitor9visit_seqpEs3_0Bj_
FN:11,_RINvXs4_NvXs0_NvXNvNtNtNtCs7b1zZ6GD7vQ_21jito_restaking_client9generated8accounts8operators_1__NtBh_8OperatorNtNtCsdCf1W31ya0G_5serde2de11Deserialize11deserializeNtBc_9___VisitorNtB1L_7Visitor9visit_seqNtB6_s4_17___DeserializeWithB1J_11deserializepEBn_
FN:11,_RNCINvXs0_NvXNvNtNtNtCs7b1zZ6GD7vQ_21jito_restaking_client9generated8accounts8operators_1__NtBd_8OperatorNtNtCsdCf1W31ya0G_5serde2de11Deserialize11deserializeNtB8_9___VisitorNtB1H_7Visitor9visit_seqpEs4_0Bj_
FN:11,_RINvXs5_NvXs0_NvXNvNtNtNtCs7b1zZ6GD7vQ_21jito_restaking_client9generated8accounts8operators_1__NtBh_8OperatorNtNtCsdCf1W31ya0G_5serde2de11Deserialize11deserializeNtBc_9___VisitorNtB1L_7Visitor9visit_seqNtB6_s5_17___DeserializeWithB1J_11deserializepEBn_
FN:11,_RNCINvXs0_NvXNvNtNtNtCs7b1zZ6GD7vQ_21jito_restaking_client9generated8accounts8operators_1__NtBd_8OperatorNtNtCsdCf1W31ya0G_5serde2de11Deserialize11deserializeNtB8_9___VisitorNtB1H_7Visitor9visit_seqpEs5_0Bj_
FN:11,_RINvXs0_NvXNvNtNtNtCs7b1zZ6GD7vQ_21jito_restaking_client9generated8accounts8operators_1__NtBb_8OperatorNtNtCsdCf1W31ya0G_5serde2de11Deserialize11deserializeNtB6_9___VisitorNtB1F_7Visitor9visit_mappEBh_
FN:11,_RINvXNvXs0_NvXNvNtNtNtCs7b1zZ6GD7vQ_21jito_restaking_client9generated8accounts8operators_1__NtBe_8OperatorNtNtCsdCf1W31ya0G_5serde2de11Deserialize11deserializeNtB9_9___VisitorNtB1I_7Visitor9visit_mapNtB3_17___DeserializeWithB1G_11deserializepEBk_
FN:11,_RINvXs_NvXs0_NvXNvNtNtNtCs7b1zZ6GD7vQ_21jito_restaking_client9generated8accounts8operators_1__NtBg_8OperatorNtNtCsdCf1W31ya0G_5serde2de11Deserialize11deserializeNtBb_9___VisitorNtB1K_7Visitor9visit_mapNtB5_s_17___DeserializeWithB1I_11deserializepEBm_
FN:11,_RINvXs0_NvXs0_NvXNvNtNtNtCs7b1zZ6GD7vQ_21jito_restaking_client9generated8accounts8operators_1__NtBh_8OperatorNtNtCsdCf1W31ya0G_5serde2de11Deserialize11deserializeNtBc_9___VisitorNtB1L_7Visitor9visit_mapNtB6_s0_17___DeserializeWithB1J_11deserializepEBn_
FN:11,_RINvXs1_NvXs0_NvXNvNtNtNtCs7b1zZ6GD7vQ_21jito_restaking_client9generated8accounts8operators_1__NtBh_8OperatorNtNtCsdCf1W31ya0G_5serde2de11Deserialize11deserializeNtBc_9___VisitorNtB1L_7Visitor9visit_mapNtB6_s1_17___DeserializeWithB1J_11deserializepEBn_
FN:11,_RINvXs2_NvXs0_NvXNvNtNtNtCs7b1zZ6GD7vQ_21jito_restaking_client9generated8accounts8operators_1__NtBh_8OperatorNtNtCsdCf1W31ya0G_5serde2de11Deserialize11deserializeNtBc_9___VisitorNtB1L_7Visitor9visit_mapNtB6_s2_17___DeserializeWithB1J_11deserializepEBn_
FN:11,_RINvXs3_NvXs0_NvXNvNtNtNtCs7b1zZ6GD7vQ_21jito_restaking_client9generated8accounts8operators_1__NtBh_8OperatorNtNtCsdCf1W31ya0G_5serde2de11Deserialize11deserializeNtBc_9___VisitorNtB1L_7Visitor9visit_mapNtB6_s3_17___DeserializeWithB1J_11deserializepEBn_
FN:11,_RINvXs4_NvXs0_NvXNvNtNtNtCs7b1zZ6GD7vQ_21jito_restaking_client9generated8accounts8operators_1__NtBh_8OperatorNtNtCsdCf1W31ya0G_5serde2de11Deserialize11deserializeNtBc_9___VisitorNtB1L_7Visitor9visit_mapNtB6_s4_17___DeserializeWithB1J_11deserializepEBn_
FN:11,_RINvXs5_NvXs0_NvXNvNtNtNtCs7b1zZ6GD7vQ_21jito_restaking_client9generated8accounts8operators_1__NtBh_8OperatorNtNtCsdCf1W31ya0G_5serde2de11Deserialize11deserializeNtBc_9___VisitorNtB1L_7Visitor9visit_mapNtB6_s5_17___DeserializeWithB1J_11deserializepEBn_
FN:10,_RINvXs5_NtNtNtCs7b1zZ6GD7vQ_21jito_restaking_client9generated8accounts8operatorNtB6_8OperatorNtNtCs7MwDlaQ6RmC_5borsh3ser14BorshSerialize9serializepEBc_
FN:10,_RINvXs6_NtNtNtCs7b1zZ6GD7vQ_21jito_restaking_client9generated8accounts8operatorNtB6_8OperatorNtNtCs7MwDlaQ6RmC_5borsh2de16BorshDeserialize18deserialize_readerpEBc_
FN:60,_RNvMNtNtNtCs7b1zZ6GD7vQ_21jito_restaking_client9generated8accounts8operatorNtB2_8Operator10from_bytes
FN:69,_RNvXs_NtNtNtCs7b1zZ6GD7vQ_21jito_restaking_client9generated8accounts8operatorNtB4_8OperatorINtNtCs2ke5FKHNm4X_4core7convert7TryFromRNtNtCs1DZodUYCwtV_14solana_program12account_info11AccountInfoE8try_from
FN:79,_RNvXs0_NtNtNtCs7b1zZ6GD7vQ_21jito_restaking_client9generated8accounts8operatorNtB5_8OperatorNtCse5yC2j32InA_11anchor_lang18AccountDeserialize25try_deserialize_unchecked
FN:89,_RNvXs2_NtNtNtCs7b1zZ6GD7vQ_21jito_restaking_client9generated8accounts8operatorNtB5_8OperatorNtCse5yC2j32InA_11anchor_lang5Owner5owner
FNDA:0,_RINvXNvXNvNtNtNtCs7b1zZ6GD7vQ_21jito_restaking_client9generated8accounts8operator1__NtB8_8OperatorNtNtCsdCf1W31ya0G_5serde3ser9Serialize9serializeNtB3_15___SerializeWithB1y_9serializepEBe_
FNDA:0,_RINvXs_NvXNvNtNtNtCs7b1zZ6GD7vQ_21jito_restaking_client9generated8accounts8operator1__NtBa_8OperatorNtNtCsdCf1W31ya0G_5serde3ser9Serialize9serializeNtB5_s_15___SerializeWithB1A_9serializepEBg_
FNDA:0,_RINvXs0_NvXNvNtNtNtCs7b1zZ6GD7vQ_21jito_restaking_client9generated8accounts8operator1__NtBb_8OperatorNtNtCsdCf1W31ya0G_5serde3ser9Serialize9serializeNtB6_s0_15___SerializeWithB1B_9serializepEBh_
FNDA:0,_RINvXs1_NvXNvNtNtNtCs7b1zZ6GD7vQ_21jito_restaking_client9generated8accounts8operator1__NtBb_8OperatorNtNtCsdCf1W31ya0G_5serde3ser9Serialize9serializeNtB6_s1_15___SerializeWithB1B_9serializepEBh_
FNDA:0,_RINvXs2_NvXNvNtNtNtCs7b1zZ6GD7vQ_21jito_restaking_client9generated8accounts8operator1__NtBb_8OperatorNtNtCsdCf1W31ya0G_5serde3ser9Serialize9serializeNtB6_s2_15___SerializeWithB1B_9serializepEBh_
FNDA:0,_RINvXs3_NvXNvNtNtNtCs7b1zZ6GD7vQ_21jito_restaking_client9generated8accounts8operator1__NtBb_8OperatorNtNtCsdCf1W31ya0G_5serde3ser9Serialize9serializeNtB6_s3_15___SerializeWithB1B_9serializepEBh_
FNDA:0,_RINvXs4_NvXNvNtNtNtCs7b1zZ6GD7vQ_21jito_restaking_client9generated8accounts8operator1__NtBb_8OperatorNtNtCsdCf1W31ya0G_5serde3ser9Serialize9serializeNtB6_s4_15___SerializeWithB1B_9serializepEBh_
FNDA:0,_RINvXs5_NvXNvNtNtNtCs7b1zZ6GD7vQ_21jito_restaking_client9generated8accounts8operator1__NtBb_8OperatorNtNtCsdCf1W31ya0G_5serde3ser9Serialize9serializeNtB6_s5_15___SerializeWithB1B_9serializepEBh_
FNDA:0,_RNvXNvXNvNtNtNtCs7b1zZ6GD7vQ_21jito_restaking_client9generated8accounts8operators_1__NtB7_8OperatorNtNtCsdCf1W31ya0G_5serde2de11Deserialize11deserializeNtB2_14___FieldVisitorNtB1B_7Visitor9expecting
FNDA:0,_RINvXNvXNvNtNtNtCs7b1zZ6GD7vQ_21jito_restaking_client9generated8accounts8operators_1__NtB8_8OperatorNtNtCsdCf1W31ya0G_5serde2de11Deserialize11deserializeNtB3_14___FieldVisitorNtB1C_7Visitor9visit_u64pEBe_
FNDA:0,_RINvXNvXNvNtNtNtCs7b1zZ6GD7vQ_21jito_restaking_client9generated8accounts8operators_1__NtB8_8OperatorNtNtCsdCf1W31ya0G_5serde2de11Deserialize11deserializeNtB3_14___FieldVisitorNtB1C_7Visitor9visit_strpEBe_
FNDA:0,_RINvXNvXNvNtNtNtCs7b1zZ6GD7vQ_21jito_restaking_client9generated8accounts8operators_1__NtB8_8OperatorNtNtCsdCf1W31ya0G_5serde2de11Deserialize11deserializeNtB3_14___FieldVisitorNtB1C_7Visitor11visit_bytespEBe_
FNDA:0,_RINvXs_NvXNvNtNtNtCs7b1zZ6GD7vQ_21jito_restaking_client9generated8accounts8operators_1__NtBa_8OperatorNtNtCsdCf1W31ya0G_5serde2de11Deserialize11deserializeNtB5_7___FieldB1C_11deserializepEBg_
FNDA:0,_RNvXs0_NvXNvNtNtNtCs7b1zZ6GD7vQ_21jito_restaking_client9generated8accounts8operators_1__NtBa_8OperatorNtNtCsdCf1W31ya0G_5serde2de11Deserialize11deserializeNtB5_9___VisitorNtB1E_7Visitor9expecting
FNDA:0,_RINvXs0_NvXNvNtNtNtCs7b1zZ6GD7vQ_21jito_restaking_client9generated8accounts8operators_1__NtBb_8OperatorNtNtCsdCf1W31ya0G_5serde2de11Deserialize11deserializeNtB6_9___VisitorNtB1F_7Visitor9visit_seqpEBh_
FNDA:0,_RINvXNvXs0_NvXNvNtNtNtCs7b1zZ6GD7vQ_21jito_restaking_client9generated8accounts8operators_1__NtBe_8OperatorNtNtCsdCf1W31ya0G_5serde2de11Deserialize11deserializeNtB9_9___VisitorNtB1I_7Visitor9visit_seqNtB3_17___DeserializeWithB1G_11deserializepEBk_
FNDA:0,_RNCINvXs0_NvXNvNtNtNtCs7b1zZ6GD7vQ_21jito_restaking_client9generated8accounts8operators_1__NtBd_8OperatorNtNtCsdCf1W31ya0G_5serde2de11Deserialize11deserializeNtB8_9___VisitorNtB1H_7Visitor9visit_seqpE0Bj_
FNDA:0,_RINvXs_NvXs0_NvXNvNtNtNtCs7b1zZ6GD7vQ_21jito_restaking_client9generated8accounts8operators_1__NtBg_8OperatorNtNtCsdCf1W31ya0G_5serde2de11Deserialize11deserializeNtBb_9___VisitorNtB1K_7Visitor9visit_seqNtB5_s_17___DeserializeWithB1I_11deserializepEBm_
FNDA:0,_RNCINvXs0_NvXNvNtNtNtCs7b1zZ6GD7vQ_21jito_restaking_client9generated8accounts8operators_1__NtBd_8OperatorNtNtCsdCf1W31ya0G_5serde2de11Deserialize11deserializeNtB8_9___VisitorNtB1H_7Visitor9visit_seqpEs_0Bj_
FNDA:0,_RINvXs0_NvXs0_NvXNvNtNtNtCs7b1zZ6GD7vQ_21jito_restaking_client9generated8accounts8operators_1__NtBh_8OperatorNtNtCsdCf1W31ya0G_5serde2de11Deserialize11deserializeNtBc_9___VisitorNtB1L_7Visitor9visit_seqNtB6_s0_17___DeserializeWithB1J_11deserializepEBn_
FNDA:0,_RNCINvXs0_NvXNvNtNtNtCs7b1zZ6GD7vQ_21jito_restaking_client9generated8accounts8operators_1__NtBd_8OperatorNtNtCsdCf1W31ya0G_5serde2de11Deserialize11deserializeNtB8_9___VisitorNtB1H_7Visitor9visit_seqpEs0_0Bj_
FNDA:0,_RINvXs1_NvXs0_NvXNvNtNtNtCs7b1zZ6GD7vQ_21jito_restaking_client9generated8accounts8operators_1__NtBh_8OperatorNtNtCsdCf1W31ya0G_5serde2de11Deserialize11deserializeNtBc_9___VisitorNtB1L_7Visitor9visit_seqNtB6_s1_17___DeserializeWithB1J_11deserializepEBn_
FNDA:0,_RNCINvXs0_NvXNvNtNtNtCs7b1zZ6GD7vQ_21jito_restaking_client9generated8accounts8operators_1__NtBd_8OperatorNtNtCsdCf1W31ya0G_5serde2de11Deserialize11deserializeNtB8_9___VisitorNtB1H_7Visitor9visit_seqpEs1_0Bj_
FNDA:0,_RINvXs2_NvXs0_NvXNvNtNtNtCs7b1zZ6GD7vQ_21jito_restaking_client9generated8accounts8operators_1__NtBh_8OperatorNtNtCsdCf1W31ya0G_5serde2de11Deserialize11deserializeNtBc_9___VisitorNtB1L_7Visitor9visit_seqNtB6_s2_17___DeserializeWithB1J_11deserializepEBn_
FNDA:0,_RNCINvXs0_NvXNvNtNtNtCs7b1zZ6GD7vQ_21jito_restaking_client9generated8accounts8operators_1__NtBd_8OperatorNtNtCsdCf1W31ya0G_5serde2de11Deserialize11deserializeNtB8_9___VisitorNtB1H_7Visitor9visit_seqpEs2_0Bj_
FNDA:0,_RINvXs3_NvXs0_NvXNvNtNtNtCs7b1zZ6GD7vQ_21jito_restaking_client9generated8accounts8operators_1__NtBh_8OperatorNtNtCsdCf1W31ya0G_5serde2de11Deserialize11deserializeNtBc_9___VisitorNtB1L_7Visitor9visit_seqNtB6_s3_17___DeserializeWithB1J_11deserializepEBn_
FNDA:0,_RNCINvXs0_NvXNvNtNtNtCs7b1zZ6GD7vQ_21jito_restaking_client9generated8accounts8operators_1__NtBd_8OperatorNtNtCsdCf1W31ya0G_5serde2de11Deserialize11deserializeNtB8_9___VisitorNtB1H_7Visitor9visit_seqpEs3_0Bj_
FNDA:0,_RINvXs4_NvXs0_NvXNvNtNtNtCs7b1zZ6GD7vQ_21jito_restaking_client9generated8accounts8operators_1__NtBh_8OperatorNtNtCsdCf1W31ya0G_5serde2de11Deserialize11deserializeNtBc_9___VisitorNtB1L_7Visitor9visit_seqNtB6_s4_17___DeserializeWithB1J_11deserializepEBn_
FNDA:0,_RNCINvXs0_NvXNvNtNtNtCs7b1zZ6GD7vQ_21jito_restaking_client9generated8accounts8operators_1__NtBd_8OperatorNtNtCsdCf1W31ya0G_5serde2de11Deserialize11deserializeNtB8_9___VisitorNtB1H_7Visitor9visit_seqpEs4_0Bj_
FNDA:0,_RINvXs5_NvXs0_NvXNvNtNtNtCs7b1zZ6GD7vQ_21jito_restaking_client9generated8accounts8operators_1__NtBh_8OperatorNtNtCsdCf1W31ya0G_5serde2de11Deserialize11deserializeNtBc_9___VisitorNtB1L_7Visitor9visit_seqNtB6_s5_17___DeserializeWithB1J_11deserializepEBn_
FNDA:0,_RNCINvXs0_NvXNvNtNtNtCs7b1zZ6GD7vQ_21jito_restaking_client9generated8accounts8operators_1__NtBd_8OperatorNtNtCsdCf1W31ya0G_5serde2de11Deserialize11deserializeNtB8_9___VisitorNtB1H_7Visitor9visit_seqpEs5_0Bj_
FNDA:0,_RINvXs0_NvXNvNtNtNtCs7b1zZ6GD7vQ_21jito_restaking_client9generated8accounts8operators_1__NtBb_8OperatorNtNtCsdCf1W31ya0G_5serde2de11Deserialize11deserializeNtB6_9___VisitorNtB1F_7Visitor9visit_mappEBh_
FNDA:0,_RINvXNvXs0_NvXNvNtNtNtCs7b1zZ6GD7vQ_21jito_restaking_client9generated8accounts8operators_1__NtBe_8OperatorNtNtCsdCf1W31ya0G_5serde2de11Deserialize11deserializeNtB9_9___VisitorNtB1I_7Visitor9visit_mapNtB3_17___DeserializeWithB1G_11deserializepEBk_
FNDA:0,_RINvXs_NvXs0_NvXNvNtNtNtCs7b1zZ6GD7vQ_21jito_restaking_client9generated8accounts8operators_1__NtBg_8OperatorNtNtCsdCf1W31ya0G_5serde2de11Deserialize11deserializeNtBb_9___VisitorNtB1K_7Visitor9visit_mapNtB5_s_17___DeserializeWithB1I_11deserializepEBm_
FNDA:0,_RINvXs0_NvXs0_NvXNvNtNtNtCs7b1zZ6GD7vQ_21jito_restaking_client9generated8accounts8operators_1__NtBh_8OperatorNtNtCsdCf1W31ya0G_5serde2de11Deserialize11deserializeNtBc_9___VisitorNtB1L_7Visitor9visit_mapNtB6_s0_17___DeserializeWithB1J_11deserializepEBn_
FNDA:0,_RINvXs1_NvXs0_NvXNvNtNtNtCs7b1zZ6GD7vQ_21jito_restaking_client9generated8accounts8operators_1__NtBh_8OperatorNtNtCsdCf1W31ya0G_5serde2de11Deserialize11deserializeNtBc_9___VisitorNtB1L_7Visitor9visit_mapNtB6_s1_17___DeserializeWithB1J_11deserializepEBn_
FNDA:0,_RINvXs2_NvXs0_NvXNvNtNtNtCs7b1zZ6GD7vQ_21jito_restaking_client9generated8accounts8operators_1__NtBh_8OperatorNtNtCsdCf1W31ya0G_5serde2de11Deserialize11deserializeNtBc_9___VisitorNtB1L_7Visitor9visit_mapNtB6_s2_17___DeserializeWithB1J_11deserializepEBn_
FNDA:0,_RINvXs3_NvXs0_NvXNvNtNtNtCs7b1zZ6GD7vQ_21jito_restaking_client9generated8accounts8operators_1__NtBh_8OperatorNtNtCsdCf1W31ya0G_5serde2de11Deserialize11deserializeNtBc_9___VisitorNtB1L_7Visitor9visit_mapNtB6_s3_17___DeserializeWithB1J_11deserializepEBn_
FNDA:0,_RINvXs4_NvXs0_NvXNvNtNtNtCs7b1zZ6GD7vQ_21jito_restaking_client9generated8accounts8operators_1__NtBh_8OperatorNtNtCsdCf1W31ya0G_5serde2de11Deserialize11deserializeNtBc_9___VisitorNtB1L_7Visitor9visit_mapNtB6_s4_17___DeserializeWithB1J_11deserializepEBn_
FNDA:0,_RINvXs5_NvXs0_NvXNvNtNtNtCs7b1zZ6GD7vQ_21jito_restaking_client9generated8accounts8operators_1__NtBh_8OperatorNtNtCsdCf1W31ya0G_5serde2de11Deserialize11deserializeNtBc_9___VisitorNtB1L_7Visitor9visit_mapNtB6_s5_17___DeserializeWithB1J_11deserializepEBn_
FNDA:0,_RINvXs5_NtNtNtCs7b1zZ6GD7vQ_21jito_restaking_client9generated8accounts8operatorNtB6_8OperatorNtNtCs7MwDlaQ6RmC_5borsh3ser14BorshSerialize9serializepEBc_
FNDA:0,_RINvXs6_NtNtNtCs7b1zZ6GD7vQ_21jito_restaking_client9generated8accounts8operatorNtB6_8OperatorNtNtCs7MwDlaQ6RmC_5borsh2de16BorshDeserialize18deserialize_readerpEBc_
FNDA:0,_RNvMNtNtNtCs7b1zZ6GD7vQ_21jito_restaking_client9generated8accounts8operatorNtB2_8Operator10from_bytes
FNDA:0,_RNvXs_NtNtNtCs7b1zZ6GD7vQ_21jito_restaking_client9generated8accounts8operatorNtB4_8OperatorINtNtCs2ke5FKHNm4X_4core7convert7TryFromRNtNtCs1DZodUYCwtV_14solana_program12account_info11AccountInfoE8try_from
FNDA:0,_RNvXs0_NtNtNtCs7b1zZ6GD7vQ_21jito_restaking_client9generated8accounts8operatorNtB5_8OperatorNtCse5yC2j32InA_11anchor_lang18AccountDeserialize25try_deserialize_unchecked
FNDA:0,_RNvXs2_NtNtNtCs7b1zZ6GD7vQ_21jito_restaking_client9generated8accounts8operatorNtB5_8OperatorNtCse5yC2j32InA_11anchor_lang5Owner5owner
FNF:8
FNH:0
DA:10,0
DA:11,0
DA:60,0
DA:61,0
DA:62,0
DA:63,0
DA:69,0
DA:70,0
DA:71,0
DA:72,0
DA:73,0
DA:74,0
DA:79,0
DA:80,0
DA:81,0
DA:89,0
DA:90,0
DA:91,0
BRF:0
BRH:0
LF:20
LH:0
end_of_record
SF:/Users/coach/Documents/Jito/restaking/clients/rust/restaking_client/src/generated/accounts/operator_vault_ticket.rs
FN:13,_RINvXNvXNvNtNtNtCs7b1zZ6GD7vQ_21jito_restaking_client9generated8accounts21operator_vault_ticket1__NtB8_19OperatorVaultTicketNtNtCsdCf1W31ya0G_5serde3ser9Serialize9serializeNtB3_15___SerializeWithB1Y_9serializepEBe_
FN:13,_RINvXs_NvXNvNtNtNtCs7b1zZ6GD7vQ_21jito_restaking_client9generated8accounts21operator_vault_ticket1__NtBa_19OperatorVaultTicketNtNtCsdCf1W31ya0G_5serde3ser9Serialize9serializeNtB5_s_15___SerializeWithB20_9serializepEBg_
FN:13,_RINvXs0_NvXNvNtNtNtCs7b1zZ6GD7vQ_21jito_restaking_client9generated8accounts21operator_vault_ticket1__NtBb_19OperatorVaultTicketNtNtCsdCf1W31ya0G_5serde3ser9Serialize9serializeNtB6_s0_15___SerializeWithB21_9serializepEBh_
FN:13,_RNvXNvXNvNtNtNtCs7b1zZ6GD7vQ_21jito_restaking_client9generated8accounts21operator_vault_tickets_1__NtB7_19OperatorVaultTicketNtNtCsdCf1W31ya0G_5serde2de11Deserialize11deserializeNtB2_14___FieldVisitorNtB21_7Visitor9expecting
FN:13,_RINvXNvXNvNtNtNtCs7b1zZ6GD7vQ_21jito_restaking_client9generated8accounts21operator_vault_tickets_1__NtB8_19OperatorVaultTicketNtNtCsdCf1W31ya0G_5serde2de11Deserialize11deserializeNtB3_14___FieldVisitorNtB22_7Visitor9visit_u64pEBe_
FN:13,_RINvXNvXNvNtNtNtCs7b1zZ6GD7vQ_21jito_restaking_client9generated8accounts21operator_vault_tickets_1__NtB8_19OperatorVaultTicketNtNtCsdCf1W31ya0G_5serde2de11Deserialize11deserializeNtB3_14___FieldVisitorNtB22_7Visitor9visit_strpEBe_
FN:13,_RINvXNvXNvNtNtNtCs7b1zZ6GD7vQ_21jito_restaking_client9generated8accounts21operator_vault_tickets_1__NtB8_19OperatorVaultTicketNtNtCsdCf1W31ya0G_5serde2de11Deserialize11deserializeNtB3_14___FieldVisitorNtB22_7Visitor11visit_bytespEBe_
FN:13,_RINvXs_NvXNvNtNtNtCs7b1zZ6GD7vQ_21jito_restaking_client9generated8accounts21operator_vault_tickets_1__NtBa_19OperatorVaultTicketNtNtCsdCf1W31ya0G_5serde2de11Deserialize11deserializeNtB5_7___FieldB22_11deserializepEBg_
FN:13,_RNvXs0_NvXNvNtNtNtCs7b1zZ6GD7vQ_21jito_restaking_client9generated8accounts21operator_vault_tickets_1__NtBa_19OperatorVaultTicketNtNtCsdCf1W31ya0G_5serde2de11Deserialize11deserializeNtB5_9___VisitorNtB24_7Visitor9expecting
FN:13,_RINvXs0_NvXNvNtNtNtCs7b1zZ6GD7vQ_21jito_restaking_client9generated8accounts21operator_vault_tickets_1__NtBb_19OperatorVaultTicketNtNtCsdCf1W31ya0G_5serde2de11Deserialize11deserializeNtB6_9___VisitorNtB25_7Visitor9visit_seqpEBh_
FN:13,_RINvXNvXs0_NvXNvNtNtNtCs7b1zZ6GD7vQ_21jito_restaking_client9generated8accounts21operator_vault_tickets_1__NtBe_19OperatorVaultTicketNtNtCsdCf1W31ya0G_5serde2de11Deserialize11deserializeNtB9_9___VisitorNtB28_7Visitor9visit_seqNtB3_17___DeserializeWithB26_11deserializepEBk_
FN:13,_RNCINvXs0_NvXNvNtNtNtCs7b1zZ6GD7vQ_21jito_restaking_client9generated8accounts21operator_vault_tickets_1__NtBd_19OperatorVaultTicketNtNtCsdCf1W31ya0G_5serde2de11Deserialize11deserializeNtB8_9___VisitorNtB27_7Visitor9visit_seqpE0Bj_
FN:13,_RINvXs_NvXs0_NvXNvNtNtNtCs7b1zZ6GD7vQ_21jito_restaking_client9generated8accounts21operator_vault_tickets_1__NtBg_19OperatorVaultTicketNtNtCsdCf1W31ya0G_5serde2de11Deserialize11deserializeNtBb_9___VisitorNtB2a_7Visitor9visit_seqNtB5_s_17___DeserializeWithB28_11deserializepEBm_
FN:13,_RNCINvXs0_NvXNvNtNtNtCs7b1zZ6GD7vQ_21jito_restaking_client9generated8accounts21operator_vault_tickets_1__NtBd_19OperatorVaultTicketNtNtCsdCf1W31ya0G_5serde2de11Deserialize11deserializeNtB8_9___VisitorNtB27_7Visitor9visit_seqpEs_0Bj_
FN:13,_RINvXs0_NvXs0_NvXNvNtNtNtCs7b1zZ6GD7vQ_21jito_restaking_client9generated8accounts21operator_vault_tickets_1__NtBh_19OperatorVaultTicketNtNtCsdCf1W31ya0G_5serde2de11Deserialize11deserializeNtBc_9___VisitorNtB2b_7Visitor9visit_seqNtB6_s0_17___DeserializeWithB29_11deserializepEBn_
FN:13,_RNCINvXs0_NvXNvNtNtNtCs7b1zZ6GD7vQ_21jito_restaking_client9generated8accounts21operator_vault_tickets_1__NtBd_19OperatorVaultTicketNtNtCsdCf1W31ya0G_5serde2de11Deserialize11deserializeNtB8_9___VisitorNtB27_7Visitor9visit_seqpEs0_0Bj_
FN:13,_RINvXs0_NvXNvNtNtNtCs7b1zZ6GD7vQ_21jito_restaking_client9generated8accounts21operator_vault_tickets_1__NtBb_19OperatorVaultTicketNtNtCsdCf1W31ya0G_5serde2de11Deserialize11deserializeNtB6_9___VisitorNtB25_7Visitor9visit_mappEBh_
FN:13,_RINvXNvXs0_NvXNvNtNtNtCs7b1zZ6GD7vQ_21jito_restaking_client9generated8accounts21operator_vault_tickets_1__NtBe_19OperatorVaultTicketNtNtCsdCf1W31ya0G_5serde2de11Deserialize11deserializeNtB9_9___VisitorNtB28_7Visitor9visit_mapNtB3_17___DeserializeWithB26_11deserializepEBk_
FN:13,_RINvXs_NvXs0_NvXNvNtNtNtCs7b1zZ6GD7vQ_21jito_restaking_client9generated8accounts21operator_vault_tickets_1__NtBg_19OperatorVaultTicketNtNtCsdCf1W31ya0G_5serde2de11Deserialize11deserializeNtBb_9___VisitorNtB2a_7Visitor9visit_mapNtB5_s_17___DeserializeWithB28_11deserializepEBm_
FN:13,_RINvXs0_NvXs0_NvXNvNtNtNtCs7b1zZ6GD7vQ_21jito_restaking_client9generated8accounts21operator_vault_tickets_1__NtBh_19OperatorVaultTicketNtNtCsdCf1W31ya0G_5serde2de11Deserialize11deserializeNtBc_9___VisitorNtB2b_7Visitor9visit_mapNtB6_s0_17___DeserializeWithB29_11deserializepEBn_
FN:12,_RINvXs5_NtNtNtCs7b1zZ6GD7vQ_21jito_restaking_client9generated8accounts21operator_vault_ticketNtB6_19OperatorVaultTicketNtNtCs7MwDlaQ6RmC_5borsh3ser14BorshSerialize9serializepEBc_
FN:12,_RINvXs6_NtNtNtCs7b1zZ6GD7vQ_21jito_restaking_client9generated8accounts21operator_vault_ticketNtB6_19OperatorVaultTicketNtNtCs7MwDlaQ6RmC_5borsh2de16BorshDeserialize18deserialize_readerpEBc_
FN:35,_RNvMNtNtNtCs7b1zZ6GD7vQ_21jito_restaking_client9generated8accounts21operator_vault_ticketNtB2_19OperatorVaultTicket10from_bytes
FN:44,_RNvXs_NtNtNtCs7b1zZ6GD7vQ_21jito_restaking_client9generated8accounts21operator_vault_ticketNtB4_19OperatorVaultTicketINtNtCs2ke5FKHNm4X_4core7convert7TryFromRNtNtCs1DZodUYCwtV_14solana_program12account_info11AccountInfoE8try_from
FN:54,_RNvXs0_NtNtNtCs7b1zZ6GD7vQ_21jito_restaking_client9generated8accounts21operator_vault_ticketNtB5_19OperatorVaultTicketNtCse5yC2j32InA_11anchor_lang18AccountDeserialize25try_deserialize_unchecked
FN:64,_RNvXs2_NtNtNtCs7b1zZ6GD7vQ_21jito_restaking_client9generated8accounts21operator_vault_ticketNtB5_19OperatorVaultTicketNtCse5yC2j32InA_11anchor_lang5Owner5owner
FNDA:0,_RINvXNvXNvNtNtNtCs7b1zZ6GD7vQ_21jito_restaking_client9generated8accounts21operator_vault_ticket1__NtB8_19OperatorVaultTicketNtNtCsdCf1W31ya0G_5serde3ser9Serialize9serializeNtB3_15___SerializeWithB1Y_9serializepEBe_
FNDA:0,_RINvXs_NvXNvNtNtNtCs7b1zZ6GD7vQ_21jito_restaking_client9generated8accounts21operator_vault_ticket1__NtBa_19OperatorVaultTicketNtNtCsdCf1W31ya0G_5serde3ser9Serialize9serializeNtB5_s_15___SerializeWithB20_9serializepEBg_
FNDA:0,_RINvXs0_NvXNvNtNtNtCs7b1zZ6GD7vQ_21jito_restaking_client9generated8accounts21operator_vault_ticket1__NtBb_19OperatorVaultTicketNtNtCsdCf1W31ya0G_5serde3ser9Serialize9serializeNtB6_s0_15___SerializeWithB21_9serializepEBh_
FNDA:0,_RNvXNvXNvNtNtNtCs7b1zZ6GD7vQ_21jito_restaking_client9generated8accounts21operator_vault_tickets_1__NtB7_19OperatorVaultTicketNtNtCsdCf1W31ya0G_5serde2de11Deserialize11deserializeNtB2_14___FieldVisitorNtB21_7Visitor9expecting
FNDA:0,_RINvXNvXNvNtNtNtCs7b1zZ6GD7vQ_21jito_restaking_client9generated8accounts21operator_vault_tickets_1__NtB8_19OperatorVaultTicketNtNtCsdCf1W31ya0G_5serde2de11Deserialize11deserializeNtB3_14___FieldVisitorNtB22_7Visitor9visit_u64pEBe_
FNDA:0,_RINvXNvXNvNtNtNtCs7b1zZ6GD7vQ_21jito_restaking_client9generated8accounts21operator_vault_tickets_1__NtB8_19OperatorVaultTicketNtNtCsdCf1W31ya0G_5serde2de11Deserialize11deserializeNtB3_14___FieldVisitorNtB22_7Visitor9visit_strpEBe_
FNDA:0,_RINvXNvXNvNtNtNtCs7b1zZ6GD7vQ_21jito_restaking_client9generated8accounts21operator_vault_tickets_1__NtB8_19OperatorVaultTicketNtNtCsdCf1W31ya0G_5serde2de11Deserialize11deserializeNtB3_14___FieldVisitorNtB22_7Visitor11visit_bytespEBe_
FNDA:0,_RINvXs_NvXNvNtNtNtCs7b1zZ6GD7vQ_21jito_restaking_client9generated8accounts21operator_vault_tickets_1__NtBa_19OperatorVaultTicketNtNtCsdCf1W31ya0G_5serde2de11Deserialize11deserializeNtB5_7___FieldB22_11deserializepEBg_
FNDA:0,_RNvXs0_NvXNvNtNtNtCs7b1zZ6GD7vQ_21jito_restaking_client9generated8accounts21operator_vault_tickets_1__NtBa_19OperatorVaultTicketNtNtCsdCf1W31ya0G_5serde2de11Deserialize11deserializeNtB5_9___VisitorNtB24_7Visitor9expecting
FNDA:0,_RINvXs0_NvXNvNtNtNtCs7b1zZ6GD7vQ_21jito_restaking_client9generated8accounts21operator_vault_tickets_1__NtBb_19OperatorVaultTicketNtNtCsdCf1W31ya0G_5serde2de11Deserialize11deserializeNtB6_9___VisitorNtB25_7Visitor9visit_seqpEBh_
FNDA:0,_RINvXNvXs0_NvXNvNtNtNtCs7b1zZ6GD7vQ_21jito_restaking_client9generated8accounts21operator_vault_tickets_1__NtBe_19OperatorVaultTicketNtNtCsdCf1W31ya0G_5serde2de11Deserialize11deserializeNtB9_9___VisitorNtB28_7Visitor9visit_seqNtB3_17___DeserializeWithB26_11deserializepEBk_
FNDA:0,_RNCINvXs0_NvXNvNtNtNtCs7b1zZ6GD7vQ_21jito_restaking_client9generated8accounts21operator_vault_tickets_1__NtBd_19OperatorVaultTicketNtNtCsdCf1W31ya0G_5serde2de11Deserialize11deserializeNtB8_9___VisitorNtB27_7Visitor9visit_seqpE0Bj_
FNDA:0,_RINvXs_NvXs0_NvXNvNtNtNtCs7b1zZ6GD7vQ_21jito_restaking_client9generated8accounts21operator_vault_tickets_1__NtBg_19OperatorVaultTicketNtNtCsdCf1W31ya0G_5serde2de11Deserialize11deserializeNtBb_9___VisitorNtB2a_7Visitor9visit_seqNtB5_s_17___DeserializeWithB28_11deserializepEBm_
FNDA:0,_RNCINvXs0_NvXNvNtNtNtCs7b1zZ6GD7vQ_21jito_restaking_client9generated8accounts21operator_vault_tickets_1__NtBd_19OperatorVaultTicketNtNtCsdCf1W31ya0G_5serde2de11Deserialize11deserializeNtB8_9___VisitorNtB27_7Visitor9visit_seqpEs_0Bj_
FNDA:0,_RINvXs0_NvXs0_NvXNvNtNtNtCs7b1zZ6GD7vQ_21jito_restaking_client9generated8accounts21operator_vault_tickets_1__NtBh_19OperatorVaultTicketNtNtCsdCf1W31ya0G_5serde2de11Deserialize11deserializeNtBc_9___VisitorNtB2b_7Visitor9visit_seqNtB6_s0_17___DeserializeWithB29_11deserializepEBn_
FNDA:0,_RNCINvXs0_NvXNvNtNtNtCs7b1zZ6GD7vQ_21jito_restaking_client9generated8accounts21operator_vault_tickets_1__NtBd_19OperatorVaultTicketNtNtCsdCf1W31ya0G_5serde2de11Deserialize11deserializeNtB8_9___VisitorNtB27_7Visitor9visit_seqpEs0_0Bj_
FNDA:0,_RINvXs0_NvXNvNtNtNtCs7b1zZ6GD7vQ_21jito_restaking_client9generated8accounts21operator_vault_tickets_1__NtBb_19OperatorVaultTicketNtNtCsdCf1W31ya0G_5serde2de11Deserialize11deserializeNtB6_9___VisitorNtB25_7Visitor9visit_mappEBh_
FNDA:0,_RINvXNvXs0_NvXNvNtNtNtCs7b1zZ6GD7vQ_21jito_restaking_client9generated8accounts21operator_vault_tickets_1__NtBe_19OperatorVaultTicketNtNtCsdCf1W31ya0G_5serde2de11Deserialize11deserializeNtB9_9___VisitorNtB28_7Visitor9visit_mapNtB3_17___DeserializeWithB26_11deserializepEBk_
FNDA:0,_RINvXs_NvXs0_NvXNvNtNtNtCs7b1zZ6GD7vQ_21jito_restaking_client9generated8accounts21operator_vault_tickets_1__NtBg_19OperatorVaultTicketNtNtCsdCf1W31ya0G_5serde2de11Deserialize11deserializeNtBb_9___VisitorNtB2a_7Visitor9visit_mapNtB5_s_17___DeserializeWithB28_11deserializepEBm_
FNDA:0,_RINvXs0_NvXs0_NvXNvNtNtNtCs7b1zZ6GD7vQ_21jito_restaking_client9generated8accounts21operator_vault_tickets_1__NtBh_19OperatorVaultTicketNtNtCsdCf1W31ya0G_5serde2de11Deserialize11deserializeNtBc_9___VisitorNtB2b_7Visitor9visit_mapNtB6_s0_17___DeserializeWithB29_11deserializepEBn_
FNDA:0,_RINvXs5_NtNtNtCs7b1zZ6GD7vQ_21jito_restaking_client9generated8accounts21operator_vault_ticketNtB6_19OperatorVaultTicketNtNtCs7MwDlaQ6RmC_5borsh3ser14BorshSerialize9serializepEBc_
FNDA:0,_RINvXs6_NtNtNtCs7b1zZ6GD7vQ_21jito_restaking_client9generated8accounts21operator_vault_ticketNtB6_19OperatorVaultTicketNtNtCs7MwDlaQ6RmC_5borsh2de16BorshDeserialize18deserialize_readerpEBc_
FNDA:0,_RNvMNtNtNtCs7b1zZ6GD7vQ_21jito_restaking_client9generated8accounts21operator_vault_ticketNtB2_19OperatorVaultTicket10from_bytes
FNDA:0,_RNvXs_NtNtNtCs7b1zZ6GD7vQ_21jito_restaking_client9generated8accounts21operator_vault_ticketNtB4_19OperatorVaultTicketINtNtCs2ke5FKHNm4X_4core7convert7TryFromRNtNtCs1DZodUYCwtV_14solana_program12account_info11AccountInfoE8try_from
FNDA:0,_RNvXs0_NtNtNtCs7b1zZ6GD7vQ_21jito_restaking_client9generated8accounts21operator_vault_ticketNtB5_19OperatorVaultTicketNtCse5yC2j32InA_11anchor_lang18AccountDeserialize25try_deserialize_unchecked
FNDA:0,_RNvXs2_NtNtNtCs7b1zZ6GD7vQ_21jito_restaking_client9generated8accounts21operator_vault_ticketNtB5_19OperatorVaultTicketNtCse5yC2j32InA_11anchor_lang5Owner5owner
FNF:8
FNH:0
DA:12,0
DA:13,0
DA:35,0
DA:36,0
DA:37,0
DA:38,0
DA:44,0
DA:45,0
DA:46,0
DA:47,0
DA:48,0
DA:49,0
DA:54,0
DA:55,0
DA:56,0
DA:64,0
DA:65,0
DA:66,0
BRF:0
BRH:0
LF:20
LH:0
end_of_record
SF:/Users/coach/Documents/Jito/restaking/clients/rust/restaking_client/src/generated/errors/jito_restaking.rs
FN:10,_RNvXs3_NtNtNtCs7b1zZ6GD7vQ_21jito_restaking_client9generated6errors14jito_restakingNtB5_18JitoRestakingErrorNtNtCs2ke5FKHNm4X_4core3fmt7Display3fmt
FN:10,_RNvXNvNtNtNtCs7b1zZ6GD7vQ_21jito_restaking_client9generated6errors14jito_restaking1__NtB4_18JitoRestakingErrorNtNtCsb5SqzaMFmSc_10num_traits4cast13FromPrimitive8from_i64Ba_
FN:10,_RNvXNvNtNtNtCs7b1zZ6GD7vQ_21jito_restaking_client9generated6errors14jito_restaking1__NtB4_18JitoRestakingErrorNtNtCsb5SqzaMFmSc_10num_traits4cast13FromPrimitive8from_u64Ba_
FN:102,_RINvXNtNtNtCs7b1zZ6GD7vQ_21jito_restaking_client9generated6errors14jito_restakingNtB3_18JitoRestakingErrorNtNtCs1DZodUYCwtV_14solana_program13program_error17PrintProgramError5printpEB9_
FNDA:0,_RNvXs3_NtNtNtCs7b1zZ6GD7vQ_21jito_restaking_client9generated6errors14jito_restakingNtB5_18JitoRestakingErrorNtNtCs2ke5FKHNm4X_4core3fmt7Display3fmt
FNDA:0,_RNvXNvNtNtNtCs7b1zZ6GD7vQ_21jito_restaking_client9generated6errors14jito_restaking1__NtB4_18JitoRestakingErrorNtNtCsb5SqzaMFmSc_10num_traits4cast13FromPrimitive8from_i64Ba_
FNDA:0,_RNvXNvNtNtNtCs7b1zZ6GD7vQ_21jito_restaking_client9generated6errors14jito_restaking1__NtB4_18JitoRestakingErrorNtNtCsb5SqzaMFmSc_10num_traits4cast13FromPrimitive8from_u64Ba_
FNDA:0,_RINvXNtNtNtCs7b1zZ6GD7vQ_21jito_restaking_client9generated6errors14jito_restakingNtB3_18JitoRestakingErrorNtNtCs1DZodUYCwtV_14solana_program13program_error17PrintProgramError5printpEB9_
FNF:3
FNH:0
DA:10,0
DA:102,0
DA:103,0
DA:104,0
BRF:0
BRH:0
LF:5
LH:0
end_of_record
SF:/Users/coach/Documents/Jito/restaking/clients/rust/restaking_client/src/generated/instructions/cooldown_ncn_vault_slasher_ticket.rs
FN:25,_RNvMNtNtNtCs7b1zZ6GD7vQ_21jito_restaking_client9generated12instructions33cooldown_ncn_vault_slasher_ticketNtB2_29CooldownNcnVaultSlasherTicket11instruction
FN:29,_RNvMNtNtNtCs7b1zZ6GD7vQ_21jito_restaking_client9generated12instructions33cooldown_ncn_vault_slasher_ticketNtB2_29CooldownNcnVaultSlasherTicket35instruction_with_remaining_accounts
FN:68,_RINvXs4_NtNtNtCs7b1zZ6GD7vQ_21jito_restaking_client9generated12instructions33cooldown_ncn_vault_slasher_ticketNtB6_44CooldownNcnVaultSlasherTicketInstructionDataNtNtCs7MwDlaQ6RmC_5borsh2de16BorshDeserialize18deserialize_readerpEBc_
FN:68,_RINvXs5_NtNtNtCs7b1zZ6GD7vQ_21jito_restaking_client9generated12instructions33cooldown_ncn_vault_slasher_ticketNtB6_44CooldownNcnVaultSlasherTicketInstructionDataNtNtCs7MwDlaQ6RmC_5borsh3ser14BorshSerialize9serializepEBc_
FN:74,_RNvMs_NtNtNtCs7b1zZ6GD7vQ_21jito_restaking_client9generated12instructions33cooldown_ncn_vault_slasher_ticketNtB4_44CooldownNcnVaultSlasherTicketInstructionData3new
FN:80,_RNvXs0_NtNtNtCs7b1zZ6GD7vQ_21jito_restaking_client9generated12instructions33cooldown_ncn_vault_slasher_ticketNtB5_44CooldownNcnVaultSlasherTicketInstructionDataNtNtCs2ke5FKHNm4X_4core7default7Default7default
FN:107,_RNvMs1_NtNtNtCs7b1zZ6GD7vQ_21jito_restaking_client9generated12instructions33cooldown_ncn_vault_slasher_ticketNtB5_36CooldownNcnVaultSlasherTicketBuilder3new
FN:111,_RNvMs1_NtNtNtCs7b1zZ6GD7vQ_21jito_restaking_client9generated12instructions33cooldown_ncn_vault_slasher_ticketNtB5_36CooldownNcnVaultSlasherTicketBuilder6config
FN:116,_RNvMs1_NtNtNtCs7b1zZ6GD7vQ_21jito_restaking_client9generated12instructions33cooldown_ncn_vault_slasher_ticketNtB5_36CooldownNcnVaultSlasherTicketBuilder3ncn
FN:121,_RNvMs1_NtNtNtCs7b1zZ6GD7vQ_21jito_restaking_client9generated12instructions33cooldown_ncn_vault_slasher_ticketNtB5_36CooldownNcnVaultSlasherTicketBuilder5vault
FN:126,_RNvMs1_NtNtNtCs7b1zZ6GD7vQ_21jito_restaking_client9generated12instructions33cooldown_ncn_vault_slasher_ticketNtB5_36CooldownNcnVaultSlasherTicketBuilder7slasher
FN:131,_RNvMs1_NtNtNtCs7b1zZ6GD7vQ_21jito_restaking_client9generated12instructions33cooldown_ncn_vault_slasher_ticketNtB5_36CooldownNcnVaultSlasherTicketBuilder24ncn_vault_slasher_ticket
FN:139,_RNvMs1_NtNtNtCs7b1zZ6GD7vQ_21jito_restaking_client9generated12instructions33cooldown_ncn_vault_slasher_ticketNtB5_36CooldownNcnVaultSlasherTicketBuilder5admin
FN:145,_RNvMs1_NtNtNtCs7b1zZ6GD7vQ_21jito_restaking_client9generated12instructions33cooldown_ncn_vault_slasher_ticketNtB5_36CooldownNcnVaultSlasherTicketBuilder21add_remaining_account
FN:154,_RNvMs1_NtNtNtCs7b1zZ6GD7vQ_21jito_restaking_client9generated12instructions33cooldown_ncn_vault_slasher_ticketNtB5_36CooldownNcnVaultSlasherTicketBuilder22add_remaining_accounts
FN:162,_RNvMs1_NtNtNtCs7b1zZ6GD7vQ_21jito_restaking_client9generated12instructions33cooldown_ncn_vault_slasher_ticketNtB5_36CooldownNcnVaultSlasherTicketBuilder11instruction
FN:212,_RNvMs2_NtNtNtCs7b1zZ6GD7vQ_21jito_restaking_client9generated12instructions33cooldown_ncn_vault_slasher_ticketNtB5_32CooldownNcnVaultSlasherTicketCpi3new
FN:227,_RNvMs2_NtNtNtCs7b1zZ6GD7vQ_21jito_restaking_client9generated12instructions33cooldown_ncn_vault_slasher_ticketNtB5_32CooldownNcnVaultSlasherTicketCpi6invoke
FN:231,_RNvMs2_NtNtNtCs7b1zZ6GD7vQ_21jito_restaking_client9generated12instructions33cooldown_ncn_vault_slasher_ticketNtB5_32CooldownNcnVaultSlasherTicketCpi30invoke_with_remaining_accounts
FN:242,_RNvMs2_NtNtNtCs7b1zZ6GD7vQ_21jito_restaking_client9generated12instructions33cooldown_ncn_vault_slasher_ticketNtB5_32CooldownNcnVaultSlasherTicketCpi13invoke_signed
FN:250,_RNvMs2_NtNtNtCs7b1zZ6GD7vQ_21jito_restaking_client9generated12instructions33cooldown_ncn_vault_slasher_ticketNtB5_32CooldownNcnVaultSlasherTicketCpi37invoke_signed_with_remaining_accounts
FN:284,_RNCNvMs2_NtNtNtCs7b1zZ6GD7vQ_21jito_restaking_client9generated12instructions33cooldown_ncn_vault_slasher_ticketNtB7_32CooldownNcnVaultSlasherTicketCpi37invoke_signed_with_remaining_accounts0Bd_
FN:310,_RNCNvMs2_NtNtNtCs7b1zZ6GD7vQ_21jito_restaking_client9generated12instructions33cooldown_ncn_vault_slasher_ticketNtB7_32CooldownNcnVaultSlasherTicketCpi37invoke_signed_with_remaining_accountss_0Bd_
FN:336,_RNvMs3_NtNtNtCs7b1zZ6GD7vQ_21jito_restaking_client9generated12instructions33cooldown_ncn_vault_slasher_ticketNtB5_39CooldownNcnVaultSlasherTicketCpiBuilder3new
FN:350,_RNvMs3_NtNtNtCs7b1zZ6GD7vQ_21jito_restaking_client9generated12instructions33cooldown_ncn_vault_slasher_ticketNtB5_39CooldownNcnVaultSlasherTicketCpiBuilder6config
FN:358,_RNvMs3_NtNtNtCs7b1zZ6GD7vQ_21jito_restaking_client9generated12instructions33cooldown_ncn_vault_slasher_ticketNtB5_39CooldownNcnVaultSlasherTicketCpiBuilder3ncn
FN:363,_RNvMs3_NtNtNtCs7b1zZ6GD7vQ_21jito_restaking_client9generated12instructions33cooldown_ncn_vault_slasher_ticketNtB5_39CooldownNcnVaultSlasherTicketCpiBuilder5vault
FN:368,_RNvMs3_NtNtNtCs7b1zZ6GD7vQ_21jito_restaking_client9generated12instructions33cooldown_ncn_vault_slasher_ticketNtB5_39CooldownNcnVaultSlasherTicketCpiBuilder7slasher
FN:376,_RNvMs3_NtNtNtCs7b1zZ6GD7vQ_21jito_restaking_client9generated12instructions33cooldown_ncn_vault_slasher_ticketNtB5_39CooldownNcnVaultSlasherTicketCpiBuilder24ncn_vault_slasher_ticket
FN:384,_RNvMs3_NtNtNtCs7b1zZ6GD7vQ_21jito_restaking_client9generated12instructions33cooldown_ncn_vault_slasher_ticketNtB5_39CooldownNcnVaultSlasherTicketCpiBuilder5admin
FN:390,_RNvMs3_NtNtNtCs7b1zZ6GD7vQ_21jito_restaking_client9generated12instructions33cooldown_ncn_vault_slasher_ticketNtB5_39CooldownNcnVaultSlasherTicketCpiBuilder21add_remaining_account
FN:406,_RNvMs3_NtNtNtCs7b1zZ6GD7vQ_21jito_restaking_client9generated12instructions33cooldown_ncn_vault_slasher_ticketNtB5_39CooldownNcnVaultSlasherTicketCpiBuilder22add_remaining_accounts
FN:420,_RNvMs3_NtNtNtCs7b1zZ6GD7vQ_21jito_restaking_client9generated12instructions33cooldown_ncn_vault_slasher_ticketNtB5_39CooldownNcnVaultSlasherTicketCpiBuilder6invoke
FN:425,_RNvMs3_NtNtNtCs7b1zZ6GD7vQ_21jito_restaking_client9generated12instructions33cooldown_ncn_vault_slasher_ticketNtB5_39CooldownNcnVaultSlasherTicketCpiBuilder13invoke_signed
FNDA:0,_RNvMNtNtNtCs7b1zZ6GD7vQ_21jito_restaking_client9generated12instructions33cooldown_ncn_vault_slasher_ticketNtB2_29CooldownNcnVaultSlasherTicket11instruction
FNDA:0,_RNvMNtNtNtCs7b1zZ6GD7vQ_21jito_restaking_client9generated12instructions33cooldown_ncn_vault_slasher_ticketNtB2_29CooldownNcnVaultSlasherTicket35instruction_with_remaining_accounts
FNDA:0,_RINvXs4_NtNtNtCs7b1zZ6GD7vQ_21jito_restaking_client9generated12instructions33cooldown_ncn_vault_slasher_ticketNtB6_44CooldownNcnVaultSlasherTicketInstructionDataNtNtCs7MwDlaQ6RmC_5borsh2de16BorshDeserialize18deserialize_readerpEBc_
FNDA:0,_RINvXs5_NtNtNtCs7b1zZ6GD7vQ_21jito_restaking_client9generated12instructions33cooldown_ncn_vault_slasher_ticketNtB6_44CooldownNcnVaultSlasherTicketInstructionDataNtNtCs7MwDlaQ6RmC_5borsh3ser14BorshSerialize9serializepEBc_
FNDA:0,_RNvMs_NtNtNtCs7b1zZ6GD7vQ_21jito_restaking_client9generated12instructions33cooldown_ncn_vault_slasher_ticketNtB4_44CooldownNcnVaultSlasherTicketInstructionData3new
FNDA:0,_RNvXs0_NtNtNtCs7b1zZ6GD7vQ_21jito_restaking_client9generated12instructions33cooldown_ncn_vault_slasher_ticketNtB5_44CooldownNcnVaultSlasherTicketInstructionDataNtNtCs2ke5FKHNm4X_4core7default7Default7default
FNDA:0,_RNvMs1_NtNtNtCs7b1zZ6GD7vQ_21jito_restaking_client9generated12instructions33cooldown_ncn_vault_slasher_ticketNtB5_36CooldownNcnVaultSlasherTicketBuilder3new
FNDA:0,_RNvMs1_NtNtNtCs7b1zZ6GD7vQ_21jito_restaking_client9generated12instructions33cooldown_ncn_vault_slasher_ticketNtB5_36CooldownNcnVaultSlasherTicketBuilder6config
FNDA:0,_RNvMs1_NtNtNtCs7b1zZ6GD7vQ_21jito_restaking_client9generated12instructions33cooldown_ncn_vault_slasher_ticketNtB5_36CooldownNcnVaultSlasherTicketBuilder3ncn
FNDA:0,_RNvMs1_NtNtNtCs7b1zZ6GD7vQ_21jito_restaking_client9generated12instructions33cooldown_ncn_vault_slasher_ticketNtB5_36CooldownNcnVaultSlasherTicketBuilder5vault
FNDA:0,_RNvMs1_NtNtNtCs7b1zZ6GD7vQ_21jito_restaking_client9generated12instructions33cooldown_ncn_vault_slasher_ticketNtB5_36CooldownNcnVaultSlasherTicketBuilder7slasher
FNDA:0,_RNvMs1_NtNtNtCs7b1zZ6GD7vQ_21jito_restaking_client9generated12instructions33cooldown_ncn_vault_slasher_ticketNtB5_36CooldownNcnVaultSlasherTicketBuilder24ncn_vault_slasher_ticket
FNDA:0,_RNvMs1_NtNtNtCs7b1zZ6GD7vQ_21jito_restaking_client9generated12instructions33cooldown_ncn_vault_slasher_ticketNtB5_36CooldownNcnVaultSlasherTicketBuilder5admin
FNDA:0,_RNvMs1_NtNtNtCs7b1zZ6GD7vQ_21jito_restaking_client9generated12instructions33cooldown_ncn_vault_slasher_ticketNtB5_36CooldownNcnVaultSlasherTicketBuilder21add_remaining_account
FNDA:0,_RNvMs1_NtNtNtCs7b1zZ6GD7vQ_21jito_restaking_client9generated12instructions33cooldown_ncn_vault_slasher_ticketNtB5_36CooldownNcnVaultSlasherTicketBuilder22add_remaining_accounts
FNDA:0,_RNvMs1_NtNtNtCs7b1zZ6GD7vQ_21jito_restaking_client9generated12instructions33cooldown_ncn_vault_slasher_ticketNtB5_36CooldownNcnVaultSlasherTicketBuilder11instruction
FNDA:0,_RNvMs2_NtNtNtCs7b1zZ6GD7vQ_21jito_restaking_client9generated12instructions33cooldown_ncn_vault_slasher_ticketNtB5_32CooldownNcnVaultSlasherTicketCpi3new
FNDA:0,_RNvMs2_NtNtNtCs7b1zZ6GD7vQ_21jito_restaking_client9generated12instructions33cooldown_ncn_vault_slasher_ticketNtB5_32CooldownNcnVaultSlasherTicketCpi6invoke
FNDA:0,_RNvMs2_NtNtNtCs7b1zZ6GD7vQ_21jito_restaking_client9generated12instructions33cooldown_ncn_vault_slasher_ticketNtB5_32CooldownNcnVaultSlasherTicketCpi30invoke_with_remaining_accounts
FNDA:0,_RNvMs2_NtNtNtCs7b1zZ6GD7vQ_21jito_restaking_client9generated12instructions33cooldown_ncn_vault_slasher_ticketNtB5_32CooldownNcnVaultSlasherTicketCpi13invoke_signed
FNDA:0,_RNvMs2_NtNtNtCs7b1zZ6GD7vQ_21jito_restaking_client9generated12instructions33cooldown_ncn_vault_slasher_ticketNtB5_32CooldownNcnVaultSlasherTicketCpi37invoke_signed_with_remaining_accounts
FNDA:0,_RNCNvMs2_NtNtNtCs7b1zZ6GD7vQ_21jito_restaking_client9generated12instructions33cooldown_ncn_vault_slasher_ticketNtB7_32CooldownNcnVaultSlasherTicketCpi37invoke_signed_with_remaining_accounts0Bd_
FNDA:0,_RNCNvMs2_NtNtNtCs7b1zZ6GD7vQ_21jito_restaking_client9generated12instructions33cooldown_ncn_vault_slasher_ticketNtB7_32CooldownNcnVaultSlasherTicketCpi37invoke_signed_with_remaining_accountss_0Bd_
FNDA:0,_RNvMs3_NtNtNtCs7b1zZ6GD7vQ_21jito_restaking_client9generated12instructions33cooldown_ncn_vault_slasher_ticketNtB5_39CooldownNcnVaultSlasherTicketCpiBuilder3new
FNDA:0,_RNvMs3_NtNtNtCs7b1zZ6GD7vQ_21jito_restaking_client9generated12instructions33cooldown_ncn_vault_slasher_ticketNtB5_39CooldownNcnVaultSlasherTicketCpiBuilder6config
FNDA:0,_RNvMs3_NtNtNtCs7b1zZ6GD7vQ_21jito_restaking_client9generated12instructions33cooldown_ncn_vault_slasher_ticketNtB5_39CooldownNcnVaultSlasherTicketCpiBuilder3ncn
FNDA:0,_RNvMs3_NtNtNtCs7b1zZ6GD7vQ_21jito_restaking_client9generated12instructions33cooldown_ncn_vault_slasher_ticketNtB5_39CooldownNcnVaultSlasherTicketCpiBuilder5vault
FNDA:0,_RNvMs3_NtNtNtCs7b1zZ6GD7vQ_21jito_restaking_client9generated12instructions33cooldown_ncn_vault_slasher_ticketNtB5_39CooldownNcnVaultSlasherTicketCpiBuilder7slasher
FNDA:0,_RNvMs3_NtNtNtCs7b1zZ6GD7vQ_21jito_restaking_client9generated12instructions33cooldown_ncn_vault_slasher_ticketNtB5_39CooldownNcnVaultSlasherTicketCpiBuilder24ncn_vault_slasher_ticket
FNDA:0,_RNvMs3_NtNtNtCs7b1zZ6GD7vQ_21jito_restaking_client9generated12instructions33cooldown_ncn_vault_slasher_ticketNtB5_39CooldownNcnVaultSlasherTicketCpiBuilder5admin
FNDA:0,_RNvMs3_NtNtNtCs7b1zZ6GD7vQ_21jito_restaking_client9generated12instructions33cooldown_ncn_vault_slasher_ticketNtB5_39CooldownNcnVaultSlasherTicketCpiBuilder21add_remaining_account
FNDA:0,_RNvMs3_NtNtNtCs7b1zZ6GD7vQ_21jito_restaking_client9generated12instructions33cooldown_ncn_vault_slasher_ticketNtB5_39CooldownNcnVaultSlasherTicketCpiBuilder22add_remaining_accounts
FNDA:0,_RNvMs3_NtNtNtCs7b1zZ6GD7vQ_21jito_restaking_client9generated12instructions33cooldown_ncn_vault_slasher_ticketNtB5_39CooldownNcnVaultSlasherTicketCpiBuilder6invoke
FNDA:0,_RNvMs3_NtNtNtCs7b1zZ6GD7vQ_21jito_restaking_client9generated12instructions33cooldown_ncn_vault_slasher_ticketNtB5_39CooldownNcnVaultSlasherTicketCpiBuilder13invoke_signed
FNF:34
FNH:0
DA:25,0
DA:26,0
DA:27,0
DA:29,0
DA:30,0
DA:31,0
DA:32,0
DA:33,0
DA:34,0
DA:35,0
DA:36,0
DA:37,0
DA:38,0
DA:39,0
DA:40,0
DA:41,0
DA:42,0
DA:43,0
DA:44,0
DA:45,0
DA:46,0
DA:47,0
DA:48,0
DA:49,0
DA:50,0
DA:51,0
DA:52,0
DA:53,0
DA:54,0
DA:55,0
DA:56,0
DA:57,0
DA:58,0
DA:59,0
DA:60,0
DA:61,0
DA:62,0
DA:63,0
DA:64,0
DA:65,0
DA:68,0
DA:74,0
DA:75,0
DA:76,0
DA:80,0
DA:81,0
DA:82,0
DA:107,0
DA:108,0
DA:109,0
DA:111,0
DA:112,0
DA:113,0
DA:114,0
DA:116,0
DA:117,0
DA:118,0
DA:119,0
DA:121,0
DA:122,0
DA:123,0
DA:124,0
DA:126,0
DA:127,0
DA:128,0
DA:129,0
DA:131,0
DA:132,0
DA:133,0
DA:134,0
DA:135,0
DA:136,0
DA:137,0
DA:139,0
DA:140,0
DA:141,0
DA:142,0
DA:145,0
DA:146,0
DA:147,0
DA:148,0
DA:149,0
DA:150,0
DA:151,0
DA:154,0
DA:155,0
DA:156,0
DA:157,0
DA:158,0
DA:159,0
DA:160,0
DA:162,0
DA:163,0
DA:164,0
DA:165,0
DA:166,0
DA:167,0
DA:168,0
DA:169,0
DA:170,0
DA:171,0
DA:172,0
DA:173,0
DA:174,0
DA:175,0
DA:212,0
DA:213,0
DA:214,0
DA:215,0
DA:216,0
DA:217,0
DA:218,0
DA:219,0
DA:220,0
DA:221,0
DA:222,0
DA:223,0
DA:224,0
DA:225,0
DA:227,0
DA:228,0
DA:229,0
DA:231,0
DA:232,0
DA:233,0
DA:234,0
DA:235,0
DA:236,0
DA:237,0
DA:238,0
DA:239,0
DA:240,0
DA:242,0
DA:243,0
DA:244,0
DA:245,0
DA:246,0
DA:247,0
DA:250,0
DA:251,0
DA:252,0
DA:253,0
DA:254,0
DA:255,0
DA:256,0
DA:257,0
DA:258,0
DA:259,0
DA:260,0
DA:261,0
DA:262,0
DA:263,0
DA:264,0
DA:265,0
DA:266,0
DA:267,0
DA:268,0
DA:269,0
DA:270,0
DA:271,0
DA:272,0
DA:273,0
DA:274,0
DA:275,0
DA:276,0
DA:277,0
DA:278,0
DA:279,0
DA:280,0
DA:281,0
DA:282,0
DA:283,0
DA:284,0
DA:285,0
DA:286,0
DA:287,0
DA:288,0
DA:289,0
DA:290,0
DA:291,0
DA:292,0
DA:293,0
DA:294,0
DA:295,0
DA:296,0
DA:297,0
DA:298,0
DA:299,0
DA:300,0
DA:301,0
DA:302,0
DA:303,0
DA:304,0
DA:305,0
DA:306,0
DA:307,0
DA:308,0
DA:309,0
DA:310,0
DA:311,0
DA:312,0
DA:313,0
DA:315,0
DA:317,0
DA:336,0
DA:337,0
DA:338,0
DA:339,0
DA:340,0
DA:341,0
DA:342,0
DA:343,0
DA:344,0
DA:345,0
DA:346,0
DA:347,0
DA:348,0
DA:350,0
DA:351,0
DA:352,0
DA:353,0
DA:354,0
DA:355,0
DA:356,0
DA:358,0
DA:359,0
DA:360,0
DA:361,0
DA:363,0
DA:364,0
DA:365,0
DA:366,0
DA:368,0
DA:369,0
DA:370,0
DA:371,0
DA:372,0
DA:373,0
DA:374,0
DA:376,0
DA:377,0
DA:378,0
DA:379,0
DA:380,0
DA:381,0
DA:382,0
DA:384,0
DA:385,0
DA:386,0
DA:387,0
DA:390,0
DA:391,0
DA:392,0
DA:393,0
DA:394,0
DA:395,0
DA:396,0
DA:397,0
DA:398,0
DA:399,0
DA:400,0
DA:406,0
DA:407,0
DA:408,0
DA:409,0
DA:410,0
DA:411,0
DA:412,0
DA:413,0
DA:414,0
DA:415,0
DA:416,0
DA:417,0
DA:418,0
DA:420,0
DA:421,0
DA:422,0
DA:425,0
DA:426,0
DA:427,0
DA:428,0
DA:429,0
DA:430,0
DA:431,0
DA:432,0
DA:433,0
DA:434,0
DA:435,0
DA:436,0
DA:437,0
DA:438,0
DA:439,0
DA:440,0
DA:441,0
DA:442,0
DA:443,0
DA:444,0
DA:445,0
DA:446,0
DA:447,0
DA:448,0
DA:449,0
DA:450,0
DA:451,0
BRF:0
BRH:0
LF:308
LH:0
end_of_record
SF:/Users/coach/Documents/Jito/restaking/clients/rust/restaking_client/src/generated/instructions/cooldown_ncn_vault_ticket.rs
FN:23,_RNvMNtNtNtCs7b1zZ6GD7vQ_21jito_restaking_client9generated12instructions25cooldown_ncn_vault_ticketNtB2_22CooldownNcnVaultTicket11instruction
FN:27,_RNvMNtNtNtCs7b1zZ6GD7vQ_21jito_restaking_client9generated12instructions25cooldown_ncn_vault_ticketNtB2_22CooldownNcnVaultTicket35instruction_with_remaining_accounts
FN:62,_RINvXs4_NtNtNtCs7b1zZ6GD7vQ_21jito_restaking_client9generated12instructions25cooldown_ncn_vault_ticketNtB6_37CooldownNcnVaultTicketInstructionDataNtNtCs7MwDlaQ6RmC_5borsh2de16BorshDeserialize18deserialize_readerpEBc_
FN:62,_RINvXs5_NtNtNtCs7b1zZ6GD7vQ_21jito_restaking_client9generated12instructions25cooldown_ncn_vault_ticketNtB6_37CooldownNcnVaultTicketInstructionDataNtNtCs7MwDlaQ6RmC_5borsh3ser14BorshSerialize9serializepEBc_
FN:68,_RNvMs_NtNtNtCs7b1zZ6GD7vQ_21jito_restaking_client9generated12instructions25cooldown_ncn_vault_ticketNtB4_37CooldownNcnVaultTicketInstructionData3new
FN:74,_RNvXs0_NtNtNtCs7b1zZ6GD7vQ_21jito_restaking_client9generated12instructions25cooldown_ncn_vault_ticketNtB5_37CooldownNcnVaultTicketInstructionDataNtNtCs2ke5FKHNm4X_4core7default7Default7default
FN:99,_RNvMs1_NtNtNtCs7b1zZ6GD7vQ_21jito_restaking_client9generated12instructions25cooldown_ncn_vault_ticketNtB5_29CooldownNcnVaultTicketBuilder3new
FN:103,_RNvMs1_NtNtNtCs7b1zZ6GD7vQ_21jito_restaking_client9generated12instructions25cooldown_ncn_vault_ticketNtB5_29CooldownNcnVaultTicketBuilder6config
FN:108,_RNvMs1_NtNtNtCs7b1zZ6GD7vQ_21jito_restaking_client9generated12instructions25cooldown_ncn_vault_ticketNtB5_29CooldownNcnVaultTicketBuilder3ncn
FN:113,_RNvMs1_NtNtNtCs7b1zZ6GD7vQ_21jito_restaking_client9generated12instructions25cooldown_ncn_vault_ticketNtB5_29CooldownNcnVaultTicketBuilder5vault
FN:118,_RNvMs1_NtNtNtCs7b1zZ6GD7vQ_21jito_restaking_client9generated12instructions25cooldown_ncn_vault_ticketNtB5_29CooldownNcnVaultTicketBuilder16ncn_vault_ticket
FN:126,_RNvMs1_NtNtNtCs7b1zZ6GD7vQ_21jito_restaking_client9generated12instructions25cooldown_ncn_vault_ticketNtB5_29CooldownNcnVaultTicketBuilder5admin
FN:132,_RNvMs1_NtNtNtCs7b1zZ6GD7vQ_21jito_restaking_client9generated12instructions25cooldown_ncn_vault_ticketNtB5_29CooldownNcnVaultTicketBuilder21add_remaining_account
FN:141,_RNvMs1_NtNtNtCs7b1zZ6GD7vQ_21jito_restaking_client9generated12instructions25cooldown_ncn_vault_ticketNtB5_29CooldownNcnVaultTicketBuilder22add_remaining_accounts
FN:149,_RNvMs1_NtNtNtCs7b1zZ6GD7vQ_21jito_restaking_client9generated12instructions25cooldown_ncn_vault_ticketNtB5_29CooldownNcnVaultTicketBuilder11instruction
FN:192,_RNvMs2_NtNtNtCs7b1zZ6GD7vQ_21jito_restaking_client9generated12instructions25cooldown_ncn_vault_ticketNtB5_25CooldownNcnVaultTicketCpi3new
FN:206,_RNvMs2_NtNtNtCs7b1zZ6GD7vQ_21jito_restaking_client9generated12instructions25cooldown_ncn_vault_ticketNtB5_25CooldownNcnVaultTicketCpi6invoke
FN:210,_RNvMs2_NtNtNtCs7b1zZ6GD7vQ_21jito_restaking_client9generated12instructions25cooldown_ncn_vault_ticketNtB5_25CooldownNcnVaultTicketCpi30invoke_with_remaining_accounts
FN:221,_RNvMs2_NtNtNtCs7b1zZ6GD7vQ_21jito_restaking_client9generated12instructions25cooldown_ncn_vault_ticketNtB5_25CooldownNcnVaultTicketCpi13invoke_signed
FN:229,_RNvMs2_NtNtNtCs7b1zZ6GD7vQ_21jito_restaking_client9generated12instructions25cooldown_ncn_vault_ticketNtB5_25CooldownNcnVaultTicketCpi37invoke_signed_with_remaining_accounts
FN:259,_RNCNvMs2_NtNtNtCs7b1zZ6GD7vQ_21jito_restaking_client9generated12instructions25cooldown_ncn_vault_ticketNtB7_25CooldownNcnVaultTicketCpi37invoke_signed_with_remaining_accounts0Bd_
FN:284,_RNCNvMs2_NtNtNtCs7b1zZ6GD7vQ_21jito_restaking_client9generated12instructions25cooldown_ncn_vault_ticketNtB7_25CooldownNcnVaultTicketCpi37invoke_signed_with_remaining_accountss_0Bd_
FN:309,_RNvMs3_NtNtNtCs7b1zZ6GD7vQ_21jito_restaking_client9generated12instructions25cooldown_ncn_vault_ticketNtB5_32CooldownNcnVaultTicketCpiBuilder3new
FN:322,_RNvMs3_NtNtNtCs7b1zZ6GD7vQ_21jito_restaking_client9generated12instructions25cooldown_ncn_vault_ticketNtB5_32CooldownNcnVaultTicketCpiBuilder6config
FN:330,_RNvMs3_NtNtNtCs7b1zZ6GD7vQ_21jito_restaking_client9generated12instructions25cooldown_ncn_vault_ticketNtB5_32CooldownNcnVaultTicketCpiBuilder3ncn
FN:335,_RNvMs3_NtNtNtCs7b1zZ6GD7vQ_21jito_restaking_client9generated12instructions25cooldown_ncn_vault_ticketNtB5_32CooldownNcnVaultTicketCpiBuilder5vault
FN:340,_RNvMs3_NtNtNtCs7b1zZ6GD7vQ_21jito_restaking_client9generated12instructions25cooldown_ncn_vault_ticketNtB5_32CooldownNcnVaultTicketCpiBuilder16ncn_vault_ticket
FN:348,_RNvMs3_NtNtNtCs7b1zZ6GD7vQ_21jito_restaking_client9generated12instructions25cooldown_ncn_vault_ticketNtB5_32CooldownNcnVaultTicketCpiBuilder5admin
FN:354,_RNvMs3_NtNtNtCs7b1zZ6GD7vQ_21jito_restaking_client9generated12instructions25cooldown_ncn_vault_ticketNtB5_32CooldownNcnVaultTicketCpiBuilder21add_remaining_account
FN:370,_RNvMs3_NtNtNtCs7b1zZ6GD7vQ_21jito_restaking_client9generated12instructions25cooldown_ncn_vault_ticketNtB5_32CooldownNcnVaultTicketCpiBuilder22add_remaining_accounts
FN:384,_RNvMs3_NtNtNtCs7b1zZ6GD7vQ_21jito_restaking_client9generated12instructions25cooldown_ncn_vault_ticketNtB5_32CooldownNcnVaultTicketCpiBuilder6invoke
FN:389,_RNvMs3_NtNtNtCs7b1zZ6GD7vQ_21jito_restaking_client9generated12instructions25cooldown_ncn_vault_ticketNtB5_32CooldownNcnVaultTicketCpiBuilder13invoke_signed
FNDA:0,_RNvMNtNtNtCs7b1zZ6GD7vQ_21jito_restaking_client9generated12instructions25cooldown_ncn_vault_ticketNtB2_22CooldownNcnVaultTicket11instruction
FNDA:0,_RNvMNtNtNtCs7b1zZ6GD7vQ_21jito_restaking_client9generated12instructions25cooldown_ncn_vault_ticketNtB2_22CooldownNcnVaultTicket35instruction_with_remaining_accounts
FNDA:0,_RINvXs4_NtNtNtCs7b1zZ6GD7vQ_21jito_restaking_client9generated12instructions25cooldown_ncn_vault_ticketNtB6_37CooldownNcnVaultTicketInstructionDataNtNtCs7MwDlaQ6RmC_5borsh2de16BorshDeserialize18deserialize_readerpEBc_
FNDA:0,_RINvXs5_NtNtNtCs7b1zZ6GD7vQ_21jito_restaking_client9generated12instructions25cooldown_ncn_vault_ticketNtB6_37CooldownNcnVaultTicketInstructionDataNtNtCs7MwDlaQ6RmC_5borsh3ser14BorshSerialize9serializepEBc_
FNDA:0,_RNvMs_NtNtNtCs7b1zZ6GD7vQ_21jito_restaking_client9generated12instructions25cooldown_ncn_vault_ticketNtB4_37CooldownNcnVaultTicketInstructionData3new
FNDA:0,_RNvXs0_NtNtNtCs7b1zZ6GD7vQ_21jito_restaking_client9generated12instructions25cooldown_ncn_vault_ticketNtB5_37CooldownNcnVaultTicketInstructionDataNtNtCs2ke5FKHNm4X_4core7default7Default7default
FNDA:0,_RNvMs1_NtNtNtCs7b1zZ6GD7vQ_21jito_restaking_client9generated12instructions25cooldown_ncn_vault_ticketNtB5_29CooldownNcnVaultTicketBuilder3new
FNDA:0,_RNvMs1_NtNtNtCs7b1zZ6GD7vQ_21jito_restaking_client9generated12instructions25cooldown_ncn_vault_ticketNtB5_29CooldownNcnVaultTicketBuilder6config
FNDA:0,_RNvMs1_NtNtNtCs7b1zZ6GD7vQ_21jito_restaking_client9generated12instructions25cooldown_ncn_vault_ticketNtB5_29CooldownNcnVaultTicketBuilder3ncn
FNDA:0,_RNvMs1_NtNtNtCs7b1zZ6GD7vQ_21jito_restaking_client9generated12instructions25cooldown_ncn_vault_ticketNtB5_29CooldownNcnVaultTicketBuilder5vault
FNDA:0,_RNvMs1_NtNtNtCs7b1zZ6GD7vQ_21jito_restaking_client9generated12instructions25cooldown_ncn_vault_ticketNtB5_29CooldownNcnVaultTicketBuilder16ncn_vault_ticket
FNDA:0,_RNvMs1_NtNtNtCs7b1zZ6GD7vQ_21jito_restaking_client9generated12instructions25cooldown_ncn_vault_ticketNtB5_29CooldownNcnVaultTicketBuilder5admin
FNDA:0,_RNvMs1_NtNtNtCs7b1zZ6GD7vQ_21jito_restaking_client9generated12instructions25cooldown_ncn_vault_ticketNtB5_29CooldownNcnVaultTicketBuilder21add_remaining_account
FNDA:0,_RNvMs1_NtNtNtCs7b1zZ6GD7vQ_21jito_restaking_client9generated12instructions25cooldown_ncn_vault_ticketNtB5_29CooldownNcnVaultTicketBuilder22add_remaining_accounts
FNDA:0,_RNvMs1_NtNtNtCs7b1zZ6GD7vQ_21jito_restaking_client9generated12instructions25cooldown_ncn_vault_ticketNtB5_29CooldownNcnVaultTicketBuilder11instruction
FNDA:0,_RNvMs2_NtNtNtCs7b1zZ6GD7vQ_21jito_restaking_client9generated12instructions25cooldown_ncn_vault_ticketNtB5_25CooldownNcnVaultTicketCpi3new
FNDA:0,_RNvMs2_NtNtNtCs7b1zZ6GD7vQ_21jito_restaking_client9generated12instructions25cooldown_ncn_vault_ticketNtB5_25CooldownNcnVaultTicketCpi6invoke
FNDA:0,_RNvMs2_NtNtNtCs7b1zZ6GD7vQ_21jito_restaking_client9generated12instructions25cooldown_ncn_vault_ticketNtB5_25CooldownNcnVaultTicketCpi30invoke_with_remaining_accounts
FNDA:0,_RNvMs2_NtNtNtCs7b1zZ6GD7vQ_21jito_restaking_client9generated12instructions25cooldown_ncn_vault_ticketNtB5_25CooldownNcnVaultTicketCpi13invoke_signed
FNDA:0,_RNvMs2_NtNtNtCs7b1zZ6GD7vQ_21jito_restaking_client9generated12instructions25cooldown_ncn_vault_ticketNtB5_25CooldownNcnVaultTicketCpi37invoke_signed_with_remaining_accounts
FNDA:0,_RNCNvMs2_NtNtNtCs7b1zZ6GD7vQ_21jito_restaking_client9generated12instructions25cooldown_ncn_vault_ticketNtB7_25CooldownNcnVaultTicketCpi37invoke_signed_with_remaining_accounts0Bd_
FNDA:0,_RNCNvMs2_NtNtNtCs7b1zZ6GD7vQ_21jito_restaking_client9generated12instructions25cooldown_ncn_vault_ticketNtB7_25CooldownNcnVaultTicketCpi37invoke_signed_with_remaining_accountss_0Bd_
FNDA:0,_RNvMs3_NtNtNtCs7b1zZ6GD7vQ_21jito_restaking_client9generated12instructions25cooldown_ncn_vault_ticketNtB5_32CooldownNcnVaultTicketCpiBuilder3new
FNDA:0,_RNvMs3_NtNtNtCs7b1zZ6GD7vQ_21jito_restaking_client9generated12instructions25cooldown_ncn_vault_ticketNtB5_32CooldownNcnVaultTicketCpiBuilder6config
FNDA:0,_RNvMs3_NtNtNtCs7b1zZ6GD7vQ_21jito_restaking_client9generated12instructions25cooldown_ncn_vault_ticketNtB5_32CooldownNcnVaultTicketCpiBuilder3ncn
FNDA:0,_RNvMs3_NtNtNtCs7b1zZ6GD7vQ_21jito_restaking_client9generated12instructions25cooldown_ncn_vault_ticketNtB5_32CooldownNcnVaultTicketCpiBuilder5vault
FNDA:0,_RNvMs3_NtNtNtCs7b1zZ6GD7vQ_21jito_restaking_client9generated12instructions25cooldown_ncn_vault_ticketNtB5_32CooldownNcnVaultTicketCpiBuilder16ncn_vault_ticket
FNDA:0,_RNvMs3_NtNtNtCs7b1zZ6GD7vQ_21jito_restaking_client9generated12instructions25cooldown_ncn_vault_ticketNtB5_32CooldownNcnVaultTicketCpiBuilder5admin
FNDA:0,_RNvMs3_NtNtNtCs7b1zZ6GD7vQ_21jito_restaking_client9generated12instructions25cooldown_ncn_vault_ticketNtB5_32CooldownNcnVaultTicketCpiBuilder21add_remaining_account
FNDA:0,_RNvMs3_NtNtNtCs7b1zZ6GD7vQ_21jito_restaking_client9generated12instructions25cooldown_ncn_vault_ticketNtB5_32CooldownNcnVaultTicketCpiBuilder22add_remaining_accounts
FNDA:0,_RNvMs3_NtNtNtCs7b1zZ6GD7vQ_21jito_restaking_client9generated12instructions25cooldown_ncn_vault_ticketNtB5_32CooldownNcnVaultTicketCpiBuilder6invoke
FNDA:0,_RNvMs3_NtNtNtCs7b1zZ6GD7vQ_21jito_restaking_client9generated12instructions25cooldown_ncn_vault_ticketNtB5_32CooldownNcnVaultTicketCpiBuilder13invoke_signed
FNF:32
FNH:0
DA:23,0
DA:24,0
DA:25,0
DA:27,0
DA:28,0
DA:29,0
DA:30,0
DA:31,0
DA:32,0
DA:33,0
DA:34,0
DA:35,0
DA:36,0
DA:37,0
DA:38,0
DA:39,0
DA:40,0
DA:41,0
DA:42,0
DA:43,0
DA:44,0
DA:45,0
DA:46,0
DA:47,0
DA:48,0
DA:49,0
DA:50,0
DA:51,0
DA:52,0
DA:53,0
DA:54,0
DA:55,0
DA:56,0
DA:57,0
DA:58,0
DA:59,0
DA:62,0
DA:68,0
DA:69,0
DA:70,0
DA:74,0
DA:75,0
DA:76,0
DA:99,0
DA:100,0
DA:101,0
DA:103,0
DA:104,0
DA:105,0
DA:106,0
DA:108,0
DA:109,0
DA:110,0
DA:111,0
DA:113,0
DA:114,0
DA:115,0
DA:116,0
DA:118,0
DA:119,0
DA:120,0
DA:121,0
DA:122,0
DA:123,0
DA:124,0
DA:126,0
DA:127,0
DA:128,0
DA:129,0
DA:132,0
DA:133,0
DA:134,0
DA:135,0
DA:136,0
DA:137,0
DA:138,0
DA:141,0
DA:142,0
DA:143,0
DA:144,0
DA:145,0
DA:146,0
DA:147,0
DA:149,0
DA:150,0
DA:151,0
DA:152,0
DA:153,0
DA:154,0
DA:155,0
DA:156,0
DA:157,0
DA:158,0
DA:159,0
DA:192,0
DA:193,0
DA:194,0
DA:195,0
DA:196,0
DA:197,0
DA:198,0
DA:199,0
DA:200,0
DA:201,0
DA:202,0
DA:203,0
DA:204,0
DA:206,0
DA:207,0
DA:208,0
DA:210,0
DA:211,0
DA:212,0
DA:213,0
DA:214,0
DA:215,0
DA:216,0
DA:217,0
DA:218,0
DA:219,0
DA:221,0
DA:222,0
DA:223,0
DA:224,0
DA:225,0
DA:226,0
DA:229,0
DA:230,0
DA:231,0
DA:232,0
DA:233,0
DA:234,0
DA:235,0
DA:236,0
DA:237,0
DA:238,0
DA:239,0
DA:240,0
DA:241,0
DA:242,0
DA:243,0
DA:244,0
DA:245,0
DA:246,0
DA:247,0
DA:248,0
DA:249,0
DA:250,0
DA:251,0
DA:252,0
DA:253,0
DA:254,0
DA:255,0
DA:256,0
DA:257,0
DA:258,0
DA:259,0
DA:260,0
DA:261,0
DA:262,0
DA:263,0
DA:264,0
DA:265,0
DA:266,0
DA:267,0
DA:268,0
DA:269,0
DA:270,0
DA:271,0
DA:272,0
DA:273,0
DA:274,0
DA:275,0
DA:276,0
DA:277,0
DA:278,0
DA:279,0
DA:280,0
DA:281,0
DA:282,0
DA:283,0
DA:284,0
DA:285,0
DA:286,0
DA:287,0
DA:289,0
DA:291,0
DA:309,0
DA:310,0
DA:311,0
DA:312,0
DA:313,0
DA:314,0
DA:315,0
DA:316,0
DA:317,0
DA:318,0
DA:319,0
DA:320,0
DA:322,0
DA:323,0
DA:324,0
DA:325,0
DA:326,0
DA:327,0
DA:328,0
DA:330,0
DA:331,0
DA:332,0
DA:333,0
DA:335,0
DA:336,0
DA:337,0
DA:338,0
DA:340,0
DA:341,0
DA:342,0
DA:343,0
DA:344,0
DA:345,0
DA:346,0
DA:348,0
DA:349,0
DA:350,0
DA:351,0
DA:354,0
DA:355,0
DA:356,0
DA:357,0
DA:358,0
DA:359,0
DA:360,0
DA:361,0
DA:362,0
DA:363,0
DA:364,0
DA:370,0
DA:371,0
DA:372,0
DA:373,0
DA:374,0
DA:375,0
DA:376,0
DA:377,0
DA:378,0
DA:379,0
DA:380,0
DA:381,0
DA:382,0
DA:384,0
DA:385,0
DA:386,0
DA:389,0
DA:390,0
DA:391,0
DA:392,0
DA:393,0
DA:394,0
DA:395,0
DA:396,0
DA:397,0
DA:398,0
DA:399,0
DA:400,0
DA:401,0
DA:402,0
DA:403,0
DA:404,0
DA:405,0
DA:406,0
DA:407,0
DA:408,0
DA:409,0
DA:410,0
DA:411,0
DA:412,0
DA:413,0
BRF:0
BRH:0
LF:281
LH:0
end_of_record
SF:/Users/coach/Documents/Jito/restaking/clients/rust/restaking_client/src/generated/instructions/cooldown_operator_vault_ticket.rs
FN:23,_RNvMNtNtNtCs7b1zZ6GD7vQ_21jito_restaking_client9generated12instructions30cooldown_operator_vault_ticketNtB2_27CooldownOperatorVaultTicket11instruction
FN:27,_RNvMNtNtNtCs7b1zZ6GD7vQ_21jito_restaking_client9generated12instructions30cooldown_operator_vault_ticketNtB2_27CooldownOperatorVaultTicket35instruction_with_remaining_accounts
FN:63,_RINvXs4_NtNtNtCs7b1zZ6GD7vQ_21jito_restaking_client9generated12instructions30cooldown_operator_vault_ticketNtB6_42CooldownOperatorVaultTicketInstructionDataNtNtCs7MwDlaQ6RmC_5borsh2de16BorshDeserialize18deserialize_readerpEBc_
FN:63,_RINvXs5_NtNtNtCs7b1zZ6GD7vQ_21jito_restaking_client9generated12instructions30cooldown_operator_vault_ticketNtB6_42CooldownOperatorVaultTicketInstructionDataNtNtCs7MwDlaQ6RmC_5borsh3ser14BorshSerialize9serializepEBc_
FN:69,_RNvMs_NtNtNtCs7b1zZ6GD7vQ_21jito_restaking_client9generated12instructions30cooldown_operator_vault_ticketNtB4_42CooldownOperatorVaultTicketInstructionData3new
FN:75,_RNvXs0_NtNtNtCs7b1zZ6GD7vQ_21jito_restaking_client9generated12instructions30cooldown_operator_vault_ticketNtB5_42CooldownOperatorVaultTicketInstructionDataNtNtCs2ke5FKHNm4X_4core7default7Default7default
FN:100,_RNvMs1_NtNtNtCs7b1zZ6GD7vQ_21jito_restaking_client9generated12instructions30cooldown_operator_vault_ticketNtB5_34CooldownOperatorVaultTicketBuilder3new
FN:104,_RNvMs1_NtNtNtCs7b1zZ6GD7vQ_21jito_restaking_client9generated12instructions30cooldown_operator_vault_ticketNtB5_34CooldownOperatorVaultTicketBuilder6config
FN:109,_RNvMs1_NtNtNtCs7b1zZ6GD7vQ_21jito_restaking_client9generated12instructions30cooldown_operator_vault_ticketNtB5_34CooldownOperatorVaultTicketBuilder8operator
FN:114,_RNvMs1_NtNtNtCs7b1zZ6GD7vQ_21jito_restaking_client9generated12instructions30cooldown_operator_vault_ticketNtB5_34CooldownOperatorVaultTicketBuilder5vault
FN:119,_RNvMs1_NtNtNtCs7b1zZ6GD7vQ_21jito_restaking_client9generated12instructions30cooldown_operator_vault_ticketNtB5_34CooldownOperatorVaultTicketBuilder21operator_vault_ticket
FN:127,_RNvMs1_NtNtNtCs7b1zZ6GD7vQ_21jito_restaking_client9generated12instructions30cooldown_operator_vault_ticketNtB5_34CooldownOperatorVaultTicketBuilder5admin
FN:133,_RNvMs1_NtNtNtCs7b1zZ6GD7vQ_21jito_restaking_client9generated12instructions30cooldown_operator_vault_ticketNtB5_34CooldownOperatorVaultTicketBuilder21add_remaining_account
FN:142,_RNvMs1_NtNtNtCs7b1zZ6GD7vQ_21jito_restaking_client9generated12instructions30cooldown_operator_vault_ticketNtB5_34CooldownOperatorVaultTicketBuilder22add_remaining_accounts
FN:150,_RNvMs1_NtNtNtCs7b1zZ6GD7vQ_21jito_restaking_client9generated12instructions30cooldown_operator_vault_ticketNtB5_34CooldownOperatorVaultTicketBuilder11instruction
FN:195,_RNvMs2_NtNtNtCs7b1zZ6GD7vQ_21jito_restaking_client9generated12instructions30cooldown_operator_vault_ticketNtB5_30CooldownOperatorVaultTicketCpi3new
FN:209,_RNvMs2_NtNtNtCs7b1zZ6GD7vQ_21jito_restaking_client9generated12instructions30cooldown_operator_vault_ticketNtB5_30CooldownOperatorVaultTicketCpi6invoke
FN:213,_RNvMs2_NtNtNtCs7b1zZ6GD7vQ_21jito_restaking_client9generated12instructions30cooldown_operator_vault_ticketNtB5_30CooldownOperatorVaultTicketCpi30invoke_with_remaining_accounts
FN:224,_RNvMs2_NtNtNtCs7b1zZ6GD7vQ_21jito_restaking_client9generated12instructions30cooldown_operator_vault_ticketNtB5_30CooldownOperatorVaultTicketCpi13invoke_signed
FN:232,_RNvMs2_NtNtNtCs7b1zZ6GD7vQ_21jito_restaking_client9generated12instructions30cooldown_operator_vault_ticketNtB5_30CooldownOperatorVaultTicketCpi37invoke_signed_with_remaining_accounts
FN:262,_RNCNvMs2_NtNtNtCs7b1zZ6GD7vQ_21jito_restaking_client9generated12instructions30cooldown_operator_vault_ticketNtB7_30CooldownOperatorVaultTicketCpi37invoke_signed_with_remaining_accounts0Bd_
FN:287,_RNCNvMs2_NtNtNtCs7b1zZ6GD7vQ_21jito_restaking_client9generated12instructions30cooldown_operator_vault_ticketNtB7_30CooldownOperatorVaultTicketCpi37invoke_signed_with_remaining_accountss_0Bd_
FN:312,_RNvMs3_NtNtNtCs7b1zZ6GD7vQ_21jito_restaking_client9generated12instructions30cooldown_operator_vault_ticketNtB5_37CooldownOperatorVaultTicketCpiBuilder3new
FN:325,_RNvMs3_NtNtNtCs7b1zZ6GD7vQ_21jito_restaking_client9generated12instructions30cooldown_operator_vault_ticketNtB5_37CooldownOperatorVaultTicketCpiBuilder6config
FN:333,_RNvMs3_NtNtNtCs7b1zZ6GD7vQ_21jito_restaking_client9generated12instructions30cooldown_operator_vault_ticketNtB5_37CooldownOperatorVaultTicketCpiBuilder8operator
FN:341,_RNvMs3_NtNtNtCs7b1zZ6GD7vQ_21jito_restaking_client9generated12instructions30cooldown_operator_vault_ticketNtB5_37CooldownOperatorVaultTicketCpiBuilder5vault
FN:346,_RNvMs3_NtNtNtCs7b1zZ6GD7vQ_21jito_restaking_client9generated12instructions30cooldown_operator_vault_ticketNtB5_37CooldownOperatorVaultTicketCpiBuilder21operator_vault_ticket
FN:354,_RNvMs3_NtNtNtCs7b1zZ6GD7vQ_21jito_restaking_client9generated12instructions30cooldown_operator_vault_ticketNtB5_37CooldownOperatorVaultTicketCpiBuilder5admin
FN:360,_RNvMs3_NtNtNtCs7b1zZ6GD7vQ_21jito_restaking_client9generated12instructions30cooldown_operator_vault_ticketNtB5_37CooldownOperatorVaultTicketCpiBuilder21add_remaining_account
FN:376,_RNvMs3_NtNtNtCs7b1zZ6GD7vQ_21jito_restaking_client9generated12instructions30cooldown_operator_vault_ticketNtB5_37CooldownOperatorVaultTicketCpiBuilder22add_remaining_accounts
FN:390,_RNvMs3_NtNtNtCs7b1zZ6GD7vQ_21jito_restaking_client9generated12instructions30cooldown_operator_vault_ticketNtB5_37CooldownOperatorVaultTicketCpiBuilder6invoke
FN:395,_RNvMs3_NtNtNtCs7b1zZ6GD7vQ_21jito_restaking_client9generated12instructions30cooldown_operator_vault_ticketNtB5_37CooldownOperatorVaultTicketCpiBuilder13invoke_signed
FNDA:0,_RNvMNtNtNtCs7b1zZ6GD7vQ_21jito_restaking_client9generated12instructions30cooldown_operator_vault_ticketNtB2_27CooldownOperatorVaultTicket11instruction
FNDA:0,_RNvMNtNtNtCs7b1zZ6GD7vQ_21jito_restaking_client9generated12instructions30cooldown_operator_vault_ticketNtB2_27CooldownOperatorVaultTicket35instruction_with_remaining_accounts
FNDA:0,_RINvXs4_NtNtNtCs7b1zZ6GD7vQ_21jito_restaking_client9generated12instructions30cooldown_operator_vault_ticketNtB6_42CooldownOperatorVaultTicketInstructionDataNtNtCs7MwDlaQ6RmC_5borsh2de16BorshDeserialize18deserialize_readerpEBc_
FNDA:0,_RINvXs5_NtNtNtCs7b1zZ6GD7vQ_21jito_restaking_client9generated12instructions30cooldown_operator_vault_ticketNtB6_42CooldownOperatorVaultTicketInstructionDataNtNtCs7MwDlaQ6RmC_5borsh3ser14BorshSerialize9serializepEBc_
FNDA:0,_RNvMs_NtNtNtCs7b1zZ6GD7vQ_21jito_restaking_client9generated12instructions30cooldown_operator_vault_ticketNtB4_42CooldownOperatorVaultTicketInstructionData3new
FNDA:0,_RNvXs0_NtNtNtCs7b1zZ6GD7vQ_21jito_restaking_client9generated12instructions30cooldown_operator_vault_ticketNtB5_42CooldownOperatorVaultTicketInstructionDataNtNtCs2ke5FKHNm4X_4core7default7Default7default
FNDA:0,_RNvMs1_NtNtNtCs7b1zZ6GD7vQ_21jito_restaking_client9generated12instructions30cooldown_operator_vault_ticketNtB5_34CooldownOperatorVaultTicketBuilder3new
FNDA:0,_RNvMs1_NtNtNtCs7b1zZ6GD7vQ_21jito_restaking_client9generated12instructions30cooldown_operator_vault_ticketNtB5_34CooldownOperatorVaultTicketBuilder6config
FNDA:0,_RNvMs1_NtNtNtCs7b1zZ6GD7vQ_21jito_restaking_client9generated12instructions30cooldown_operator_vault_ticketNtB5_34CooldownOperatorVaultTicketBuilder8operator
FNDA:0,_RNvMs1_NtNtNtCs7b1zZ6GD7vQ_21jito_restaking_client9generated12instructions30cooldown_operator_vault_ticketNtB5_34CooldownOperatorVaultTicketBuilder5vault
FNDA:0,_RNvMs1_NtNtNtCs7b1zZ6GD7vQ_21jito_restaking_client9generated12instructions30cooldown_operator_vault_ticketNtB5_34CooldownOperatorVaultTicketBuilder21operator_vault_ticket
FNDA:0,_RNvMs1_NtNtNtCs7b1zZ6GD7vQ_21jito_restaking_client9generated12instructions30cooldown_operator_vault_ticketNtB5_34CooldownOperatorVaultTicketBuilder5admin
FNDA:0,_RNvMs1_NtNtNtCs7b1zZ6GD7vQ_21jito_restaking_client9generated12instructions30cooldown_operator_vault_ticketNtB5_34CooldownOperatorVaultTicketBuilder21add_remaining_account
FNDA:0,_RNvMs1_NtNtNtCs7b1zZ6GD7vQ_21jito_restaking_client9generated12instructions30cooldown_operator_vault_ticketNtB5_34CooldownOperatorVaultTicketBuilder22add_remaining_accounts
FNDA:0,_RNvMs1_NtNtNtCs7b1zZ6GD7vQ_21jito_restaking_client9generated12instructions30cooldown_operator_vault_ticketNtB5_34CooldownOperatorVaultTicketBuilder11instruction
FNDA:0,_RNvMs2_NtNtNtCs7b1zZ6GD7vQ_21jito_restaking_client9generated12instructions30cooldown_operator_vault_ticketNtB5_30CooldownOperatorVaultTicketCpi3new
FNDA:0,_RNvMs2_NtNtNtCs7b1zZ6GD7vQ_21jito_restaking_client9generated12instructions30cooldown_operator_vault_ticketNtB5_30CooldownOperatorVaultTicketCpi6invoke
FNDA:0,_RNvMs2_NtNtNtCs7b1zZ6GD7vQ_21jito_restaking_client9generated12instructions30cooldown_operator_vault_ticketNtB5_30CooldownOperatorVaultTicketCpi30invoke_with_remaining_accounts
FNDA:0,_RNvMs2_NtNtNtCs7b1zZ6GD7vQ_21jito_restaking_client9generated12instructions30cooldown_operator_vault_ticketNtB5_30CooldownOperatorVaultTicketCpi13invoke_signed
FNDA:0,_RNvMs2_NtNtNtCs7b1zZ6GD7vQ_21jito_restaking_client9generated12instructions30cooldown_operator_vault_ticketNtB5_30CooldownOperatorVaultTicketCpi37invoke_signed_with_remaining_accounts
FNDA:0,_RNCNvMs2_NtNtNtCs7b1zZ6GD7vQ_21jito_restaking_client9generated12instructions30cooldown_operator_vault_ticketNtB7_30CooldownOperatorVaultTicketCpi37invoke_signed_with_remaining_accounts0Bd_
FNDA:0,_RNCNvMs2_NtNtNtCs7b1zZ6GD7vQ_21jito_restaking_client9generated12instructions30cooldown_operator_vault_ticketNtB7_30CooldownOperatorVaultTicketCpi37invoke_signed_with_remaining_accountss_0Bd_
FNDA:0,_RNvMs3_NtNtNtCs7b1zZ6GD7vQ_21jito_restaking_client9generated12instructions30cooldown_operator_vault_ticketNtB5_37CooldownOperatorVaultTicketCpiBuilder3new
FNDA:0,_RNvMs3_NtNtNtCs7b1zZ6GD7vQ_21jito_restaking_client9generated12instructions30cooldown_operator_vault_ticketNtB5_37CooldownOperatorVaultTicketCpiBuilder6config
FNDA:0,_RNvMs3_NtNtNtCs7b1zZ6GD7vQ_21jito_restaking_client9generated12instructions30cooldown_operator_vault_ticketNtB5_37CooldownOperatorVaultTicketCpiBuilder8operator
FNDA:0,_RNvMs3_NtNtNtCs7b1zZ6GD7vQ_21jito_restaking_client9generated12instructions30cooldown_operator_vault_ticketNtB5_37CooldownOperatorVaultTicketCpiBuilder5vault
FNDA:0,_RNvMs3_NtNtNtCs7b1zZ6GD7vQ_21jito_restaking_client9generated12instructions30cooldown_operator_vault_ticketNtB5_37CooldownOperatorVaultTicketCpiBuilder21operator_vault_ticket
FNDA:0,_RNvMs3_NtNtNtCs7b1zZ6GD7vQ_21jito_restaking_client9generated12instructions30cooldown_operator_vault_ticketNtB5_37CooldownOperatorVaultTicketCpiBuilder5admin
FNDA:0,_RNvMs3_NtNtNtCs7b1zZ6GD7vQ_21jito_restaking_client9generated12instructions30cooldown_operator_vault_ticketNtB5_37CooldownOperatorVaultTicketCpiBuilder21add_remaining_account
FNDA:0,_RNvMs3_NtNtNtCs7b1zZ6GD7vQ_21jito_restaking_client9generated12instructions30cooldown_operator_vault_ticketNtB5_37CooldownOperatorVaultTicketCpiBuilder22add_remaining_accounts
FNDA:0,_RNvMs3_NtNtNtCs7b1zZ6GD7vQ_21jito_restaking_client9generated12instructions30cooldown_operator_vault_ticketNtB5_37CooldownOperatorVaultTicketCpiBuilder6invoke
FNDA:0,_RNvMs3_NtNtNtCs7b1zZ6GD7vQ_21jito_restaking_client9generated12instructions30cooldown_operator_vault_ticketNtB5_37CooldownOperatorVaultTicketCpiBuilder13invoke_signed
FNF:32
FNH:0
DA:23,0
DA:24,0
DA:25,0
DA:27,0
DA:28,0
DA:29,0
DA:30,0
DA:31,0
DA:32,0
DA:33,0
DA:34,0
DA:35,0
DA:36,0
DA:37,0
DA:38,0
DA:39,0
DA:40,0
DA:41,0
DA:42,0
DA:43,0
DA:44,0
DA:45,0
DA:46,0
DA:47,0
DA:48,0
DA:49,0
DA:50,0
DA:51,0
DA:52,0
DA:53,0
DA:54,0
DA:55,0
DA:56,0
DA:57,0
DA:58,0
DA:59,0
DA:60,0
DA:63,0
DA:69,0
DA:70,0
DA:71,0
DA:75,0
DA:76,0
DA:77,0
DA:100,0
DA:101,0
DA:102,0
DA:104,0
DA:105,0
DA:106,0
DA:107,0
DA:109,0
DA:110,0
DA:111,0
DA:112,0
DA:114,0
DA:115,0
DA:116,0
DA:117,0
DA:119,0
DA:120,0
DA:121,0
DA:122,0
DA:123,0
DA:124,0
DA:125,0
DA:127,0
DA:128,0
DA:129,0
DA:130,0
DA:133,0
DA:134,0
DA:135,0
DA:136,0
DA:137,0
DA:138,0
DA:139,0
DA:142,0
DA:143,0
DA:144,0
DA:145,0
DA:146,0
DA:147,0
DA:148,0
DA:150,0
DA:151,0
DA:152,0
DA:153,0
DA:154,0
DA:155,0
DA:156,0
DA:157,0
DA:158,0
DA:159,0
DA:160,0
DA:161,0
DA:162,0
DA:195,0
DA:196,0
DA:197,0
DA:198,0
DA:199,0
DA:200,0
DA:201,0
DA:202,0
DA:203,0
DA:204,0
DA:205,0
DA:206,0
DA:207,0
DA:209,0
DA:210,0
DA:211,0
DA:213,0
DA:214,0
DA:215,0
DA:216,0
DA:217,0
DA:218,0
DA:219,0
DA:220,0
DA:221,0
DA:222,0
DA:224,0
DA:225,0
DA:226,0
DA:227,0
DA:228,0
DA:229,0
DA:232,0
DA:233,0
DA:234,0
DA:235,0
DA:236,0
DA:237,0
DA:238,0
DA:239,0
DA:240,0
DA:241,0
DA:242,0
DA:243,0
DA:244,0
DA:245,0
DA:246,0
DA:247,0
DA:248,0
DA:249,0
DA:250,0
DA:251,0
DA:252,0
DA:253,0
DA:254,0
DA:255,0
DA:256,0
DA:257,0
DA:258,0
DA:259,0
DA:260,0
DA:261,0
DA:262,0
DA:263,0
DA:264,0
DA:265,0
DA:266,0
DA:267,0
DA:268,0
DA:269,0
DA:270,0
DA:271,0
DA:272,0
DA:273,0
DA:274,0
DA:275,0
DA:276,0
DA:277,0
DA:278,0
DA:279,0
DA:280,0
DA:281,0
DA:282,0
DA:283,0
DA:284,0
DA:285,0
DA:286,0
DA:287,0
DA:288,0
DA:289,0
DA:290,0
DA:292,0
DA:294,0
DA:312,0
DA:313,0
DA:314,0
DA:315,0
DA:316,0
DA:317,0
DA:318,0
DA:319,0
DA:320,0
DA:321,0
DA:322,0
DA:323,0
DA:325,0
DA:326,0
DA:327,0
DA:328,0
DA:329,0
DA:330,0
DA:331,0
DA:333,0
DA:334,0
DA:335,0
DA:336,0
DA:337,0
DA:338,0
DA:339,0
DA:341,0
DA:342,0
DA:343,0
DA:344,0
DA:346,0
DA:347,0
DA:348,0
DA:349,0
DA:350,0
DA:351,0
DA:352,0
DA:354,0
DA:355,0
DA:356,0
DA:357,0
DA:360,0
DA:361,0
DA:362,0
DA:363,0
DA:364,0
DA:365,0
DA:366,0
DA:367,0
DA:368,0
DA:369,0
DA:370,0
DA:376,0
DA:377,0
DA:378,0
DA:379,0
DA:380,0
DA:381,0
DA:382,0
DA:383,0
DA:384,0
DA:385,0
DA:386,0
DA:387,0
DA:388,0
DA:390,0
DA:391,0
DA:392,0
DA:395,0
DA:396,0
DA:397,0
DA:398,0
DA:399,0
DA:400,0
DA:401,0
DA:402,0
DA:403,0
DA:404,0
DA:405,0
DA:406,0
DA:407,0
DA:408,0
DA:409,0
DA:410,0
DA:411,0
DA:412,0
DA:413,0
DA:414,0
DA:415,0
DA:416,0
DA:417,0
DA:418,0
DA:419,0
BRF:0
BRH:0
LF:287
LH:0
end_of_record
SF:/Users/coach/Documents/Jito/restaking/clients/rust/restaking_client/src/generated/instructions/initialize_config.rs
FN:21,_RNvMNtNtNtCs7b1zZ6GD7vQ_21jito_restaking_client9generated12instructions17initialize_configNtB2_16InitializeConfig11instruction
FN:25,_RNvMNtNtNtCs7b1zZ6GD7vQ_21jito_restaking_client9generated12instructions17initialize_configNtB2_16InitializeConfig35instruction_with_remaining_accounts
FN:56,_RINvXs4_NtNtNtCs7b1zZ6GD7vQ_21jito_restaking_client9generated12instructions17initialize_configNtB6_31InitializeConfigInstructionDataNtNtCs7MwDlaQ6RmC_5borsh2de16BorshDeserialize18deserialize_readerpEBc_
FN:56,_RINvXs5_NtNtNtCs7b1zZ6GD7vQ_21jito_restaking_client9generated12instructions17initialize_configNtB6_31InitializeConfigInstructionDataNtNtCs7MwDlaQ6RmC_5borsh3ser14BorshSerialize9serializepEBc_
FN:62,_RNvMs_NtNtNtCs7b1zZ6GD7vQ_21jito_restaking_client9generated12instructions17initialize_configNtB4_31InitializeConfigInstructionData3new
FN:68,_RNvXs0_NtNtNtCs7b1zZ6GD7vQ_21jito_restaking_client9generated12instructions17initialize_configNtB5_31InitializeConfigInstructionDataNtNtCs2ke5FKHNm4X_4core7default7Default7default
FN:91,_RNvMs1_NtNtNtCs7b1zZ6GD7vQ_21jito_restaking_client9generated12instructions17initialize_configNtB5_23InitializeConfigBuilder3new
FN:95,_RNvMs1_NtNtNtCs7b1zZ6GD7vQ_21jito_restaking_client9generated12instructions17initialize_configNtB5_23InitializeConfigBuilder6config
FN:100,_RNvMs1_NtNtNtCs7b1zZ6GD7vQ_21jito_restaking_client9generated12instructions17initialize_configNtB5_23InitializeConfigBuilder5admin
FN:105,_RNvMs1_NtNtNtCs7b1zZ6GD7vQ_21jito_restaking_client9generated12instructions17initialize_configNtB5_23InitializeConfigBuilder13vault_program
FN:111,_RNvMs1_NtNtNtCs7b1zZ6GD7vQ_21jito_restaking_client9generated12instructions17initialize_configNtB5_23InitializeConfigBuilder14system_program
FN:117,_RNvMs1_NtNtNtCs7b1zZ6GD7vQ_21jito_restaking_client9generated12instructions17initialize_configNtB5_23InitializeConfigBuilder21add_remaining_account
FN:126,_RNvMs1_NtNtNtCs7b1zZ6GD7vQ_21jito_restaking_client9generated12instructions17initialize_configNtB5_23InitializeConfigBuilder22add_remaining_accounts
FN:134,_RNvMs1_NtNtNtCs7b1zZ6GD7vQ_21jito_restaking_client9generated12instructions17initialize_configNtB5_23InitializeConfigBuilder11instruction
FN:174,_RNvMs2_NtNtNtCs7b1zZ6GD7vQ_21jito_restaking_client9generated12instructions17initialize_configNtB5_19InitializeConfigCpi3new
FN:187,_RNvMs2_NtNtNtCs7b1zZ6GD7vQ_21jito_restaking_client9generated12instructions17initialize_configNtB5_19InitializeConfigCpi6invoke
FN:191,_RNvMs2_NtNtNtCs7b1zZ6GD7vQ_21jito_restaking_client9generated12instructions17initialize_configNtB5_19InitializeConfigCpi30invoke_with_remaining_accounts
FN:202,_RNvMs2_NtNtNtCs7b1zZ6GD7vQ_21jito_restaking_client9generated12instructions17initialize_configNtB5_19InitializeConfigCpi13invoke_signed
FN:210,_RNvMs2_NtNtNtCs7b1zZ6GD7vQ_21jito_restaking_client9generated12instructions17initialize_configNtB5_19InitializeConfigCpi37invoke_signed_with_remaining_accounts
FN:236,_RNCNvMs2_NtNtNtCs7b1zZ6GD7vQ_21jito_restaking_client9generated12instructions17initialize_configNtB7_19InitializeConfigCpi37invoke_signed_with_remaining_accounts0Bd_
FN:258,_RNCNvMs2_NtNtNtCs7b1zZ6GD7vQ_21jito_restaking_client9generated12instructions17initialize_configNtB7_19InitializeConfigCpi37invoke_signed_with_remaining_accountss_0Bd_
FN:282,_RNvMs3_NtNtNtCs7b1zZ6GD7vQ_21jito_restaking_client9generated12instructions17initialize_configNtB5_26InitializeConfigCpiBuilder3new
FN:294,_RNvMs3_NtNtNtCs7b1zZ6GD7vQ_21jito_restaking_client9generated12instructions17initialize_configNtB5_26InitializeConfigCpiBuilder6config
FN:302,_RNvMs3_NtNtNtCs7b1zZ6GD7vQ_21jito_restaking_client9generated12instructions17initialize_configNtB5_26InitializeConfigCpiBuilder5admin
FN:307,_RNvMs3_NtNtNtCs7b1zZ6GD7vQ_21jito_restaking_client9generated12instructions17initialize_configNtB5_26InitializeConfigCpiBuilder13vault_program
FN:315,_RNvMs3_NtNtNtCs7b1zZ6GD7vQ_21jito_restaking_client9generated12instructions17initialize_configNtB5_26InitializeConfigCpiBuilder14system_program
FN:324,_RNvMs3_NtNtNtCs7b1zZ6GD7vQ_21jito_restaking_client9generated12instructions17initialize_configNtB5_26InitializeConfigCpiBuilder21add_remaining_account
FN:340,_RNvMs3_NtNtNtCs7b1zZ6GD7vQ_21jito_restaking_client9generated12instructions17initialize_configNtB5_26InitializeConfigCpiBuilder22add_remaining_accounts
FN:354,_RNvMs3_NtNtNtCs7b1zZ6GD7vQ_21jito_restaking_client9generated12instructions17initialize_configNtB5_26InitializeConfigCpiBuilder6invoke
FN:359,_RNvMs3_NtNtNtCs7b1zZ6GD7vQ_21jito_restaking_client9generated12instructions17initialize_configNtB5_26InitializeConfigCpiBuilder13invoke_signed
FNDA:0,_RNvMNtNtNtCs7b1zZ6GD7vQ_21jito_restaking_client9generated12instructions17initialize_configNtB2_16InitializeConfig11instruction
FNDA:0,_RNvMNtNtNtCs7b1zZ6GD7vQ_21jito_restaking_client9generated12instructions17initialize_configNtB2_16InitializeConfig35instruction_with_remaining_accounts
FNDA:0,_RINvXs4_NtNtNtCs7b1zZ6GD7vQ_21jito_restaking_client9generated12instructions17initialize_configNtB6_31InitializeConfigInstructionDataNtNtCs7MwDlaQ6RmC_5borsh2de16BorshDeserialize18deserialize_readerpEBc_
FNDA:0,_RINvXs5_NtNtNtCs7b1zZ6GD7vQ_21jito_restaking_client9generated12instructions17initialize_configNtB6_31InitializeConfigInstructionDataNtNtCs7MwDlaQ6RmC_5borsh3ser14BorshSerialize9serializepEBc_
FNDA:0,_RNvMs_NtNtNtCs7b1zZ6GD7vQ_21jito_restaking_client9generated12instructions17initialize_configNtB4_31InitializeConfigInstructionData3new
FNDA:0,_RNvXs0_NtNtNtCs7b1zZ6GD7vQ_21jito_restaking_client9generated12instructions17initialize_configNtB5_31InitializeConfigInstructionDataNtNtCs2ke5FKHNm4X_4core7default7Default7default
FNDA:0,_RNvMs1_NtNtNtCs7b1zZ6GD7vQ_21jito_restaking_client9generated12instructions17initialize_configNtB5_23InitializeConfigBuilder3new
FNDA:0,_RNvMs1_NtNtNtCs7b1zZ6GD7vQ_21jito_restaking_client9generated12instructions17initialize_configNtB5_23InitializeConfigBuilder6config
FNDA:0,_RNvMs1_NtNtNtCs7b1zZ6GD7vQ_21jito_restaking_client9generated12instructions17initialize_configNtB5_23InitializeConfigBuilder5admin
FNDA:0,_RNvMs1_NtNtNtCs7b1zZ6GD7vQ_21jito_restaking_client9generated12instructions17initialize_configNtB5_23InitializeConfigBuilder13vault_program
FNDA:0,_RNvMs1_NtNtNtCs7b1zZ6GD7vQ_21jito_restaking_client9generated12instructions17initialize_configNtB5_23InitializeConfigBuilder14system_program
FNDA:0,_RNvMs1_NtNtNtCs7b1zZ6GD7vQ_21jito_restaking_client9generated12instructions17initialize_configNtB5_23InitializeConfigBuilder21add_remaining_account
FNDA:0,_RNvMs1_NtNtNtCs7b1zZ6GD7vQ_21jito_restaking_client9generated12instructions17initialize_configNtB5_23InitializeConfigBuilder22add_remaining_accounts
FNDA:0,_RNvMs1_NtNtNtCs7b1zZ6GD7vQ_21jito_restaking_client9generated12instructions17initialize_configNtB5_23InitializeConfigBuilder11instruction
FNDA:0,_RNvMs2_NtNtNtCs7b1zZ6GD7vQ_21jito_restaking_client9generated12instructions17initialize_configNtB5_19InitializeConfigCpi3new
FNDA:0,_RNvMs2_NtNtNtCs7b1zZ6GD7vQ_21jito_restaking_client9generated12instructions17initialize_configNtB5_19InitializeConfigCpi6invoke
FNDA:0,_RNvMs2_NtNtNtCs7b1zZ6GD7vQ_21jito_restaking_client9generated12instructions17initialize_configNtB5_19InitializeConfigCpi30invoke_with_remaining_accounts
FNDA:0,_RNvMs2_NtNtNtCs7b1zZ6GD7vQ_21jito_restaking_client9generated12instructions17initialize_configNtB5_19InitializeConfigCpi13invoke_signed
FNDA:0,_RNvMs2_NtNtNtCs7b1zZ6GD7vQ_21jito_restaking_client9generated12instructions17initialize_configNtB5_19InitializeConfigCpi37invoke_signed_with_remaining_accounts
FNDA:0,_RNCNvMs2_NtNtNtCs7b1zZ6GD7vQ_21jito_restaking_client9generated12instructions17initialize_configNtB7_19InitializeConfigCpi37invoke_signed_with_remaining_accounts0Bd_
FNDA:0,_RNCNvMs2_NtNtNtCs7b1zZ6GD7vQ_21jito_restaking_client9generated12instructions17initialize_configNtB7_19InitializeConfigCpi37invoke_signed_with_remaining_accountss_0Bd_
FNDA:0,_RNvMs3_NtNtNtCs7b1zZ6GD7vQ_21jito_restaking_client9generated12instructions17initialize_configNtB5_26InitializeConfigCpiBuilder3new
FNDA:0,_RNvMs3_NtNtNtCs7b1zZ6GD7vQ_21jito_restaking_client9generated12instructions17initialize_configNtB5_26InitializeConfigCpiBuilder6config
FNDA:0,_RNvMs3_NtNtNtCs7b1zZ6GD7vQ_21jito_restaking_client9generated12instructions17initialize_configNtB5_26InitializeConfigCpiBuilder5admin
FNDA:0,_RNvMs3_NtNtNtCs7b1zZ6GD7vQ_21jito_restaking_client9generated12instructions17initialize_configNtB5_26InitializeConfigCpiBuilder13vault_program
FNDA:0,_RNvMs3_NtNtNtCs7b1zZ6GD7vQ_21jito_restaking_client9generated12instructions17initialize_configNtB5_26InitializeConfigCpiBuilder14system_program
FNDA:0,_RNvMs3_NtNtNtCs7b1zZ6GD7vQ_21jito_restaking_client9generated12instructions17initialize_configNtB5_26InitializeConfigCpiBuilder21add_remaining_account
FNDA:0,_RNvMs3_NtNtNtCs7b1zZ6GD7vQ_21jito_restaking_client9generated12instructions17initialize_configNtB5_26InitializeConfigCpiBuilder22add_remaining_accounts
FNDA:0,_RNvMs3_NtNtNtCs7b1zZ6GD7vQ_21jito_restaking_client9generated12instructions17initialize_configNtB5_26InitializeConfigCpiBuilder6invoke
FNDA:0,_RNvMs3_NtNtNtCs7b1zZ6GD7vQ_21jito_restaking_client9generated12instructions17initialize_configNtB5_26InitializeConfigCpiBuilder13invoke_signed
FNF:30
FNH:0
DA:21,0
DA:22,0
DA:23,0
DA:25,0
DA:26,0
DA:27,0
DA:28,0
DA:29,0
DA:30,0
DA:31,0
DA:32,0
DA:33,0
DA:34,0
DA:35,0
DA:36,0
DA:37,0
DA:38,0
DA:39,0
DA:40,0
DA:41,0
DA:42,0
DA:43,0
DA:44,0
DA:45,0
DA:46,0
DA:47,0
DA:48,0
DA:49,0
DA:50,0
DA:51,0
DA:52,0
DA:53,0
DA:56,0
DA:62,0
DA:63,0
DA:64,0
DA:68,0
DA:69,0
DA:70,0
DA:91,0
DA:92,0
DA:93,0
DA:95,0
DA:96,0
DA:97,0
DA:98,0
DA:100,0
DA:101,0
DA:102,0
DA:103,0
DA:105,0
DA:106,0
DA:107,0
DA:108,0
DA:111,0
DA:112,0
DA:113,0
DA:114,0
DA:117,0
DA:118,0
DA:119,0
DA:120,0
DA:121,0
DA:122,0
DA:123,0
DA:126,0
DA:127,0
DA:128,0
DA:129,0
DA:130,0
DA:131,0
DA:132,0
DA:134,0
DA:135,0
DA:136,0
DA:137,0
DA:138,0
DA:139,0
DA:140,0
DA:141,0
DA:142,0
DA:143,0
DA:144,0
DA:145,0
DA:174,0
DA:175,0
DA:176,0
DA:177,0
DA:178,0
DA:179,0
DA:180,0
DA:181,0
DA:182,0
DA:183,0
DA:184,0
DA:185,0
DA:187,0
DA:188,0
DA:189,0
DA:191,0
DA:192,0
DA:193,0
DA:194,0
DA:195,0
DA:196,0
DA:197,0
DA:198,0
DA:199,0
DA:200,0
DA:202,0
DA:203,0
DA:204,0
DA:205,0
DA:206,0
DA:207,0
DA:210,0
DA:211,0
DA:212,0
DA:213,0
DA:214,0
DA:215,0
DA:216,0
DA:217,0
DA:218,0
DA:219,0
DA:220,0
DA:221,0
DA:222,0
DA:223,0
DA:224,0
DA:225,0
DA:226,0
DA:227,0
DA:228,0
DA:229,0
DA:230,0
DA:231,0
DA:232,0
DA:233,0
DA:234,0
DA:235,0
DA:236,0
DA:237,0
DA:238,0
DA:239,0
DA:240,0
DA:241,0
DA:242,0
DA:243,0
DA:244,0
DA:245,0
DA:246,0
DA:247,0
DA:248,0
DA:249,0
DA:250,0
DA:251,0
DA:252,0
DA:253,0
DA:254,0
DA:255,0
DA:256,0
DA:257,0
DA:258,0
DA:259,0
DA:260,0
DA:261,0
DA:263,0
DA:265,0
DA:282,0
DA:283,0
DA:284,0
DA:285,0
DA:286,0
DA:287,0
DA:288,0
DA:289,0
DA:290,0
DA:291,0
DA:292,0
DA:294,0
DA:295,0
DA:296,0
DA:297,0
DA:298,0
DA:299,0
DA:300,0
DA:302,0
DA:303,0
DA:304,0
DA:305,0
DA:307,0
DA:308,0
DA:309,0
DA:310,0
DA:311,0
DA:312,0
DA:313,0
DA:315,0
DA:316,0
DA:317,0
DA:318,0
DA:319,0
DA:320,0
DA:321,0
DA:324,0
DA:325,0
DA:326,0
DA:327,0
DA:328,0
DA:329,0
DA:330,0
DA:331,0
DA:332,0
DA:333,0
DA:334,0
DA:340,0
DA:341,0
DA:342,0
DA:343,0
DA:344,0
DA:345,0
DA:346,0
DA:347,0
DA:348,0
DA:349,0
DA:350,0
DA:351,0
DA:352,0
DA:354,0
DA:355,0
DA:356,0
DA:359,0
DA:360,0
DA:361,0
DA:362,0
DA:363,0
DA:364,0
DA:365,0
DA:366,0
DA:367,0
DA:368,0
DA:369,0
DA:370,0
DA:371,0
DA:372,0
DA:373,0
DA:374,0
DA:375,0
DA:376,0
DA:377,0
DA:378,0
DA:379,0
DA:380,0
DA:381,0
DA:382,0
DA:383,0
DA:384,0
BRF:0
BRH:0
LF:262
LH:0
end_of_record
SF:/Users/coach/Documents/Jito/restaking/clients/rust/restaking_client/src/generated/instructions/initialize_ncn.rs
FN:23,_RNvMNtNtNtCs7b1zZ6GD7vQ_21jito_restaking_client9generated12instructions14initialize_ncnNtB2_13InitializeNcn11instruction
FN:27,_RNvMNtNtNtCs7b1zZ6GD7vQ_21jito_restaking_client9generated12instructions14initialize_ncnNtB2_13InitializeNcn35instruction_with_remaining_accounts
FN:60,_RINvXs4_NtNtNtCs7b1zZ6GD7vQ_21jito_restaking_client9generated12instructions14initialize_ncnNtB6_28InitializeNcnInstructionDataNtNtCs7MwDlaQ6RmC_5borsh2de16BorshDeserialize18deserialize_readerpEBc_
FN:60,_RINvXs5_NtNtNtCs7b1zZ6GD7vQ_21jito_restaking_client9generated12instructions14initialize_ncnNtB6_28InitializeNcnInstructionDataNtNtCs7MwDlaQ6RmC_5borsh3ser14BorshSerialize9serializepEBc_
FN:66,_RNvMs_NtNtNtCs7b1zZ6GD7vQ_21jito_restaking_client9generated12instructions14initialize_ncnNtB4_28InitializeNcnInstructionData3new
FN:72,_RNvXs0_NtNtNtCs7b1zZ6GD7vQ_21jito_restaking_client9generated12instructions14initialize_ncnNtB5_28InitializeNcnInstructionDataNtNtCs2ke5FKHNm4X_4core7default7Default7default
FN:97,_RNvMs1_NtNtNtCs7b1zZ6GD7vQ_21jito_restaking_client9generated12instructions14initialize_ncnNtB5_20InitializeNcnBuilder3new
FN:101,_RNvMs1_NtNtNtCs7b1zZ6GD7vQ_21jito_restaking_client9generated12instructions14initialize_ncnNtB5_20InitializeNcnBuilder6config
FN:106,_RNvMs1_NtNtNtCs7b1zZ6GD7vQ_21jito_restaking_client9generated12instructions14initialize_ncnNtB5_20InitializeNcnBuilder3ncn
FN:111,_RNvMs1_NtNtNtCs7b1zZ6GD7vQ_21jito_restaking_client9generated12instructions14initialize_ncnNtB5_20InitializeNcnBuilder5admin
FN:116,_RNvMs1_NtNtNtCs7b1zZ6GD7vQ_21jito_restaking_client9generated12instructions14initialize_ncnNtB5_20InitializeNcnBuilder4base
FN:122,_RNvMs1_NtNtNtCs7b1zZ6GD7vQ_21jito_restaking_client9generated12instructions14initialize_ncnNtB5_20InitializeNcnBuilder14system_program
FN:128,_RNvMs1_NtNtNtCs7b1zZ6GD7vQ_21jito_restaking_client9generated12instructions14initialize_ncnNtB5_20InitializeNcnBuilder21add_remaining_account
FN:137,_RNvMs1_NtNtNtCs7b1zZ6GD7vQ_21jito_restaking_client9generated12instructions14initialize_ncnNtB5_20InitializeNcnBuilder22add_remaining_accounts
FN:145,_RNvMs1_NtNtNtCs7b1zZ6GD7vQ_21jito_restaking_client9generated12instructions14initialize_ncnNtB5_20InitializeNcnBuilder11instruction
FN:190,_RNvMs2_NtNtNtCs7b1zZ6GD7vQ_21jito_restaking_client9generated12instructions14initialize_ncnNtB5_16InitializeNcnCpi3new
FN:204,_RNvMs2_NtNtNtCs7b1zZ6GD7vQ_21jito_restaking_client9generated12instructions14initialize_ncnNtB5_16InitializeNcnCpi6invoke
FN:208,_RNvMs2_NtNtNtCs7b1zZ6GD7vQ_21jito_restaking_client9generated12instructions14initialize_ncnNtB5_16InitializeNcnCpi30invoke_with_remaining_accounts
FN:219,_RNvMs2_NtNtNtCs7b1zZ6GD7vQ_21jito_restaking_client9generated12instructions14initialize_ncnNtB5_16InitializeNcnCpi13invoke_signed
FN:227,_RNvMs2_NtNtNtCs7b1zZ6GD7vQ_21jito_restaking_client9generated12instructions14initialize_ncnNtB5_16InitializeNcnCpi37invoke_signed_with_remaining_accounts
FN:257,_RNCNvMs2_NtNtNtCs7b1zZ6GD7vQ_21jito_restaking_client9generated12instructions14initialize_ncnNtB7_16InitializeNcnCpi37invoke_signed_with_remaining_accounts0Bd_
FN:280,_RNCNvMs2_NtNtNtCs7b1zZ6GD7vQ_21jito_restaking_client9generated12instructions14initialize_ncnNtB7_16InitializeNcnCpi37invoke_signed_with_remaining_accountss_0Bd_
FN:305,_RNvMs3_NtNtNtCs7b1zZ6GD7vQ_21jito_restaking_client9generated12instructions14initialize_ncnNtB5_23InitializeNcnCpiBuilder3new
FN:318,_RNvMs3_NtNtNtCs7b1zZ6GD7vQ_21jito_restaking_client9generated12instructions14initialize_ncnNtB5_23InitializeNcnCpiBuilder6config
FN:326,_RNvMs3_NtNtNtCs7b1zZ6GD7vQ_21jito_restaking_client9generated12instructions14initialize_ncnNtB5_23InitializeNcnCpiBuilder3ncn
FN:331,_RNvMs3_NtNtNtCs7b1zZ6GD7vQ_21jito_restaking_client9generated12instructions14initialize_ncnNtB5_23InitializeNcnCpiBuilder5admin
FN:336,_RNvMs3_NtNtNtCs7b1zZ6GD7vQ_21jito_restaking_client9generated12instructions14initialize_ncnNtB5_23InitializeNcnCpiBuilder4base
FN:341,_RNvMs3_NtNtNtCs7b1zZ6GD7vQ_21jito_restaking_client9generated12instructions14initialize_ncnNtB5_23InitializeNcnCpiBuilder14system_program
FN:350,_RNvMs3_NtNtNtCs7b1zZ6GD7vQ_21jito_restaking_client9generated12instructions14initialize_ncnNtB5_23InitializeNcnCpiBuilder21add_remaining_account
FN:366,_RNvMs3_NtNtNtCs7b1zZ6GD7vQ_21jito_restaking_client9generated12instructions14initialize_ncnNtB5_23InitializeNcnCpiBuilder22add_remaining_accounts
FN:380,_RNvMs3_NtNtNtCs7b1zZ6GD7vQ_21jito_restaking_client9generated12instructions14initialize_ncnNtB5_23InitializeNcnCpiBuilder6invoke
FN:385,_RNvMs3_NtNtNtCs7b1zZ6GD7vQ_21jito_restaking_client9generated12instructions14initialize_ncnNtB5_23InitializeNcnCpiBuilder13invoke_signed
FNDA:0,_RNvMNtNtNtCs7b1zZ6GD7vQ_21jito_restaking_client9generated12instructions14initialize_ncnNtB2_13InitializeNcn11instruction
FNDA:0,_RNvMNtNtNtCs7b1zZ6GD7vQ_21jito_restaking_client9generated12instructions14initialize_ncnNtB2_13InitializeNcn35instruction_with_remaining_accounts
FNDA:0,_RINvXs4_NtNtNtCs7b1zZ6GD7vQ_21jito_restaking_client9generated12instructions14initialize_ncnNtB6_28InitializeNcnInstructionDataNtNtCs7MwDlaQ6RmC_5borsh2de16BorshDeserialize18deserialize_readerpEBc_
FNDA:0,_RINvXs5_NtNtNtCs7b1zZ6GD7vQ_21jito_restaking_client9generated12instructions14initialize_ncnNtB6_28InitializeNcnInstructionDataNtNtCs7MwDlaQ6RmC_5borsh3ser14BorshSerialize9serializepEBc_
FNDA:0,_RNvMs_NtNtNtCs7b1zZ6GD7vQ_21jito_restaking_client9generated12instructions14initialize_ncnNtB4_28InitializeNcnInstructionData3new
FNDA:0,_RNvXs0_NtNtNtCs7b1zZ6GD7vQ_21jito_restaking_client9generated12instructions14initialize_ncnNtB5_28InitializeNcnInstructionDataNtNtCs2ke5FKHNm4X_4core7default7Default7default
FNDA:0,_RNvMs1_NtNtNtCs7b1zZ6GD7vQ_21jito_restaking_client9generated12instructions14initialize_ncnNtB5_20InitializeNcnBuilder3new
FNDA:0,_RNvMs1_NtNtNtCs7b1zZ6GD7vQ_21jito_restaking_client9generated12instructions14initialize_ncnNtB5_20InitializeNcnBuilder6config
FNDA:0,_RNvMs1_NtNtNtCs7b1zZ6GD7vQ_21jito_restaking_client9generated12instructions14initialize_ncnNtB5_20InitializeNcnBuilder3ncn
FNDA:0,_RNvMs1_NtNtNtCs7b1zZ6GD7vQ_21jito_restaking_client9generated12instructions14initialize_ncnNtB5_20InitializeNcnBuilder5admin
FNDA:0,_RNvMs1_NtNtNtCs7b1zZ6GD7vQ_21jito_restaking_client9generated12instructions14initialize_ncnNtB5_20InitializeNcnBuilder4base
FNDA:0,_RNvMs1_NtNtNtCs7b1zZ6GD7vQ_21jito_restaking_client9generated12instructions14initialize_ncnNtB5_20InitializeNcnBuilder14system_program
FNDA:0,_RNvMs1_NtNtNtCs7b1zZ6GD7vQ_21jito_restaking_client9generated12instructions14initialize_ncnNtB5_20InitializeNcnBuilder21add_remaining_account
FNDA:0,_RNvMs1_NtNtNtCs7b1zZ6GD7vQ_21jito_restaking_client9generated12instructions14initialize_ncnNtB5_20InitializeNcnBuilder22add_remaining_accounts
FNDA:0,_RNvMs1_NtNtNtCs7b1zZ6GD7vQ_21jito_restaking_client9generated12instructions14initialize_ncnNtB5_20InitializeNcnBuilder11instruction
FNDA:0,_RNvMs2_NtNtNtCs7b1zZ6GD7vQ_21jito_restaking_client9generated12instructions14initialize_ncnNtB5_16InitializeNcnCpi3new
FNDA:0,_RNvMs2_NtNtNtCs7b1zZ6GD7vQ_21jito_restaking_client9generated12instructions14initialize_ncnNtB5_16InitializeNcnCpi6invoke
FNDA:0,_RNvMs2_NtNtNtCs7b1zZ6GD7vQ_21jito_restaking_client9generated12instructions14initialize_ncnNtB5_16InitializeNcnCpi30invoke_with_remaining_accounts
FNDA:0,_RNvMs2_NtNtNtCs7b1zZ6GD7vQ_21jito_restaking_client9generated12instructions14initialize_ncnNtB5_16InitializeNcnCpi13invoke_signed
FNDA:0,_RNvMs2_NtNtNtCs7b1zZ6GD7vQ_21jito_restaking_client9generated12instructions14initialize_ncnNtB5_16InitializeNcnCpi37invoke_signed_with_remaining_accounts
FNDA:0,_RNCNvMs2_NtNtNtCs7b1zZ6GD7vQ_21jito_restaking_client9generated12instructions14initialize_ncnNtB7_16InitializeNcnCpi37invoke_signed_with_remaining_accounts0Bd_
FNDA:0,_RNCNvMs2_NtNtNtCs7b1zZ6GD7vQ_21jito_restaking_client9generated12instructions14initialize_ncnNtB7_16InitializeNcnCpi37invoke_signed_with_remaining_accountss_0Bd_
FNDA:0,_RNvMs3_NtNtNtCs7b1zZ6GD7vQ_21jito_restaking_client9generated12instructions14initialize_ncnNtB5_23InitializeNcnCpiBuilder3new
FNDA:0,_RNvMs3_NtNtNtCs7b1zZ6GD7vQ_21jito_restaking_client9generated12instructions14initialize_ncnNtB5_23InitializeNcnCpiBuilder6config
FNDA:0,_RNvMs3_NtNtNtCs7b1zZ6GD7vQ_21jito_restaking_client9generated12instructions14initialize_ncnNtB5_23InitializeNcnCpiBuilder3ncn
FNDA:0,_RNvMs3_NtNtNtCs7b1zZ6GD7vQ_21jito_restaking_client9generated12instructions14initialize_ncnNtB5_23InitializeNcnCpiBuilder5admin
FNDA:0,_RNvMs3_NtNtNtCs7b1zZ6GD7vQ_21jito_restaking_client9generated12instructions14initialize_ncnNtB5_23InitializeNcnCpiBuilder4base
FNDA:0,_RNvMs3_NtNtNtCs7b1zZ6GD7vQ_21jito_restaking_client9generated12instructions14initialize_ncnNtB5_23InitializeNcnCpiBuilder14system_program
FNDA:0,_RNvMs3_NtNtNtCs7b1zZ6GD7vQ_21jito_restaking_client9generated12instructions14initialize_ncnNtB5_23InitializeNcnCpiBuilder21add_remaining_account
FNDA:0,_RNvMs3_NtNtNtCs7b1zZ6GD7vQ_21jito_restaking_client9generated12instructions14initialize_ncnNtB5_23InitializeNcnCpiBuilder22add_remaining_accounts
FNDA:0,_RNvMs3_NtNtNtCs7b1zZ6GD7vQ_21jito_restaking_client9generated12instructions14initialize_ncnNtB5_23InitializeNcnCpiBuilder6invoke
FNDA:0,_RNvMs3_NtNtNtCs7b1zZ6GD7vQ_21jito_restaking_client9generated12instructions14initialize_ncnNtB5_23InitializeNcnCpiBuilder13invoke_signed
FNF:32
FNH:0
DA:23,0
DA:24,0
DA:25,0
DA:27,0
DA:28,0
DA:29,0
DA:30,0
DA:31,0
DA:32,0
DA:33,0
DA:34,0
DA:35,0
DA:36,0
DA:37,0
DA:38,0
DA:39,0
DA:40,0
DA:41,0
DA:42,0
DA:43,0
DA:44,0
DA:45,0
DA:46,0
DA:47,0
DA:48,0
DA:49,0
DA:50,0
DA:51,0
DA:52,0
DA:53,0
DA:54,0
DA:55,0
DA:56,0
DA:57,0
DA:60,0
DA:66,0
DA:67,0
DA:68,0
DA:72,0
DA:73,0
DA:74,0
DA:97,0
DA:98,0
DA:99,0
DA:101,0
DA:102,0
DA:103,0
DA:104,0
DA:106,0
DA:107,0
DA:108,0
DA:109,0
DA:111,0
DA:112,0
DA:113,0
DA:114,0
DA:116,0
DA:117,0
DA:118,0
DA:119,0
DA:122,0
DA:123,0
DA:124,0
DA:125,0
DA:128,0
DA:129,0
DA:130,0
DA:131,0
DA:132,0
DA:133,0
DA:134,0
DA:137,0
DA:138,0
DA:139,0
DA:140,0
DA:141,0
DA:142,0
DA:143,0
DA:145,0
DA:146,0
DA:147,0
DA:148,0
DA:149,0
DA:150,0
DA:151,0
DA:152,0
DA:153,0
DA:154,0
DA:155,0
DA:156,0
DA:157,0
DA:190,0
DA:191,0
DA:192,0
DA:193,0
DA:194,0
DA:195,0
DA:196,0
DA:197,0
DA:198,0
DA:199,0
DA:200,0
DA:201,0
DA:202,0
DA:204,0
DA:205,0
DA:206,0
DA:208,0
DA:209,0
DA:210,0
DA:211,0
DA:212,0
DA:213,0
DA:214,0
DA:215,0
DA:216,0
DA:217,0
DA:219,0
DA:220,0
DA:221,0
DA:222,0
DA:223,0
DA:224,0
DA:227,0
DA:228,0
DA:229,0
DA:230,0
DA:231,0
DA:232,0
DA:233,0
DA:234,0
DA:235,0
DA:236,0
DA:237,0
DA:238,0
DA:239,0
DA:240,0
DA:241,0
DA:242,0
DA:243,0
DA:244,0
DA:245,0
DA:246,0
DA:247,0
DA:248,0
DA:249,0
DA:250,0
DA:251,0
DA:252,0
DA:253,0
DA:254,0
DA:255,0
DA:256,0
DA:257,0
DA:258,0
DA:259,0
DA:260,0
DA:261,0
DA:262,0
DA:263,0
DA:264,0
DA:265,0
DA:266,0
DA:267,0
DA:268,0
DA:269,0
DA:270,0
DA:271,0
DA:272,0
DA:273,0
DA:274,0
DA:275,0
DA:276,0
DA:277,0
DA:278,0
DA:279,0
DA:280,0
DA:281,0
DA:282,0
DA:283,0
DA:285,0
DA:287,0
DA:305,0
DA:306,0
DA:307,0
DA:308,0
DA:309,0
DA:310,0
DA:311,0
DA:312,0
DA:313,0
DA:314,0
DA:315,0
DA:316,0
DA:318,0
DA:319,0
DA:320,0
DA:321,0
DA:322,0
DA:323,0
DA:324,0
DA:326,0
DA:327,0
DA:328,0
DA:329,0
DA:331,0
DA:332,0
DA:333,0
DA:334,0
DA:336,0
DA:337,0
DA:338,0
DA:339,0
DA:341,0
DA:342,0
DA:343,0
DA:344,0
DA:345,0
DA:346,0
DA:347,0
DA:350,0
DA:351,0
DA:352,0
DA:353,0
DA:354,0
DA:355,0
DA:356,0
DA:357,0
DA:358,0
DA:359,0
DA:360,0
DA:366,0
DA:367,0
DA:368,0
DA:369,0
DA:370,0
DA:371,0
DA:372,0
DA:373,0
DA:374,0
DA:375,0
DA:376,0
DA:377,0
DA:378,0
DA:380,0
DA:381,0
DA:382,0
DA:385,0
DA:386,0
DA:387,0
DA:388,0
DA:389,0
DA:390,0
DA:391,0
DA:392,0
DA:393,0
DA:394,0
DA:395,0
DA:396,0
DA:397,0
DA:398,0
DA:399,0
DA:400,0
DA:401,0
DA:402,0
DA:403,0
DA:404,0
DA:405,0
DA:406,0
DA:407,0
DA:408,0
DA:409,0
BRF:0
BRH:0
LF:276
LH:0
end_of_record
SF:/Users/coach/Documents/Jito/restaking/clients/rust/restaking_client/src/generated/instructions/initialize_ncn_operator_state.rs
FN:27,_RNvMNtNtNtCs7b1zZ6GD7vQ_21jito_restaking_client9generated12instructions29initialize_ncn_operator_stateNtB2_26InitializeNcnOperatorState11instruction
FN:31,_RNvMNtNtNtCs7b1zZ6GD7vQ_21jito_restaking_client9generated12instructions29initialize_ncn_operator_stateNtB2_26InitializeNcnOperatorState35instruction_with_remaining_accounts
FN:74,_RINvXs4_NtNtNtCs7b1zZ6GD7vQ_21jito_restaking_client9generated12instructions29initialize_ncn_operator_stateNtB6_41InitializeNcnOperatorStateInstructionDataNtNtCs7MwDlaQ6RmC_5borsh2de16BorshDeserialize18deserialize_readerpEBc_
FN:74,_RINvXs5_NtNtNtCs7b1zZ6GD7vQ_21jito_restaking_client9generated12instructions29initialize_ncn_operator_stateNtB6_41InitializeNcnOperatorStateInstructionDataNtNtCs7MwDlaQ6RmC_5borsh3ser14BorshSerialize9serializepEBc_
FN:80,_RNvMs_NtNtNtCs7b1zZ6GD7vQ_21jito_restaking_client9generated12instructions29initialize_ncn_operator_stateNtB4_41InitializeNcnOperatorStateInstructionData3new
FN:86,_RNvXs0_NtNtNtCs7b1zZ6GD7vQ_21jito_restaking_client9generated12instructions29initialize_ncn_operator_stateNtB5_41InitializeNcnOperatorStateInstructionDataNtNtCs2ke5FKHNm4X_4core7default7Default7default
FN:115,_RNvMs1_NtNtNtCs7b1zZ6GD7vQ_21jito_restaking_client9generated12instructions29initialize_ncn_operator_stateNtB5_33InitializeNcnOperatorStateBuilder3new
FN:119,_RNvMs1_NtNtNtCs7b1zZ6GD7vQ_21jito_restaking_client9generated12instructions29initialize_ncn_operator_stateNtB5_33InitializeNcnOperatorStateBuilder6config
FN:124,_RNvMs1_NtNtNtCs7b1zZ6GD7vQ_21jito_restaking_client9generated12instructions29initialize_ncn_operator_stateNtB5_33InitializeNcnOperatorStateBuilder3ncn
FN:129,_RNvMs1_NtNtNtCs7b1zZ6GD7vQ_21jito_restaking_client9generated12instructions29initialize_ncn_operator_stateNtB5_33InitializeNcnOperatorStateBuilder8operator
FN:134,_RNvMs1_NtNtNtCs7b1zZ6GD7vQ_21jito_restaking_client9generated12instructions29initialize_ncn_operator_stateNtB5_33InitializeNcnOperatorStateBuilder18ncn_operator_state
FN:142,_RNvMs1_NtNtNtCs7b1zZ6GD7vQ_21jito_restaking_client9generated12instructions29initialize_ncn_operator_stateNtB5_33InitializeNcnOperatorStateBuilder5admin
FN:147,_RNvMs1_NtNtNtCs7b1zZ6GD7vQ_21jito_restaking_client9generated12instructions29initialize_ncn_operator_stateNtB5_33InitializeNcnOperatorStateBuilder5payer
FN:153,_RNvMs1_NtNtNtCs7b1zZ6GD7vQ_21jito_restaking_client9generated12instructions29initialize_ncn_operator_stateNtB5_33InitializeNcnOperatorStateBuilder14system_program
FN:159,_RNvMs1_NtNtNtCs7b1zZ6GD7vQ_21jito_restaking_client9generated12instructions29initialize_ncn_operator_stateNtB5_33InitializeNcnOperatorStateBuilder21add_remaining_account
FN:168,_RNvMs1_NtNtNtCs7b1zZ6GD7vQ_21jito_restaking_client9generated12instructions29initialize_ncn_operator_stateNtB5_33InitializeNcnOperatorStateBuilder22add_remaining_accounts
FN:176,_RNvMs1_NtNtNtCs7b1zZ6GD7vQ_21jito_restaking_client9generated12instructions29initialize_ncn_operator_stateNtB5_33InitializeNcnOperatorStateBuilder11instruction
FN:233,_RNvMs2_NtNtNtCs7b1zZ6GD7vQ_21jito_restaking_client9generated12instructions29initialize_ncn_operator_stateNtB5_29InitializeNcnOperatorStateCpi3new
FN:249,_RNvMs2_NtNtNtCs7b1zZ6GD7vQ_21jito_restaking_client9generated12instructions29initialize_ncn_operator_stateNtB5_29InitializeNcnOperatorStateCpi6invoke
FN:253,_RNvMs2_NtNtNtCs7b1zZ6GD7vQ_21jito_restaking_client9generated12instructions29initialize_ncn_operator_stateNtB5_29InitializeNcnOperatorStateCpi30invoke_with_remaining_accounts
FN:264,_RNvMs2_NtNtNtCs7b1zZ6GD7vQ_21jito_restaking_client9generated12instructions29initialize_ncn_operator_stateNtB5_29InitializeNcnOperatorStateCpi13invoke_signed
FN:272,_RNvMs2_NtNtNtCs7b1zZ6GD7vQ_21jito_restaking_client9generated12instructions29initialize_ncn_operator_stateNtB5_29InitializeNcnOperatorStateCpi37invoke_signed_with_remaining_accounts
FN:310,_RNCNvMs2_NtNtNtCs7b1zZ6GD7vQ_21jito_restaking_client9generated12instructions29initialize_ncn_operator_stateNtB7_29InitializeNcnOperatorStateCpi37invoke_signed_with_remaining_accounts0Bd_
FN:337,_RNCNvMs2_NtNtNtCs7b1zZ6GD7vQ_21jito_restaking_client9generated12instructions29initialize_ncn_operator_stateNtB7_29InitializeNcnOperatorStateCpi37invoke_signed_with_remaining_accountss_0Bd_
FN:364,_RNvMs3_NtNtNtCs7b1zZ6GD7vQ_21jito_restaking_client9generated12instructions29initialize_ncn_operator_stateNtB5_36InitializeNcnOperatorStateCpiBuilder3new
FN:379,_RNvMs3_NtNtNtCs7b1zZ6GD7vQ_21jito_restaking_client9generated12instructions29initialize_ncn_operator_stateNtB5_36InitializeNcnOperatorStateCpiBuilder6config
FN:387,_RNvMs3_NtNtNtCs7b1zZ6GD7vQ_21jito_restaking_client9generated12instructions29initialize_ncn_operator_stateNtB5_36InitializeNcnOperatorStateCpiBuilder3ncn
FN:392,_RNvMs3_NtNtNtCs7b1zZ6GD7vQ_21jito_restaking_client9generated12instructions29initialize_ncn_operator_stateNtB5_36InitializeNcnOperatorStateCpiBuilder8operator
FN:400,_RNvMs3_NtNtNtCs7b1zZ6GD7vQ_21jito_restaking_client9generated12instructions29initialize_ncn_operator_stateNtB5_36InitializeNcnOperatorStateCpiBuilder18ncn_operator_state
FN:408,_RNvMs3_NtNtNtCs7b1zZ6GD7vQ_21jito_restaking_client9generated12instructions29initialize_ncn_operator_stateNtB5_36InitializeNcnOperatorStateCpiBuilder5admin
FN:413,_RNvMs3_NtNtNtCs7b1zZ6GD7vQ_21jito_restaking_client9generated12instructions29initialize_ncn_operator_stateNtB5_36InitializeNcnOperatorStateCpiBuilder5payer
FN:418,_RNvMs3_NtNtNtCs7b1zZ6GD7vQ_21jito_restaking_client9generated12instructions29initialize_ncn_operator_stateNtB5_36InitializeNcnOperatorStateCpiBuilder14system_program
FN:427,_RNvMs3_NtNtNtCs7b1zZ6GD7vQ_21jito_restaking_client9generated12instructions29initialize_ncn_operator_stateNtB5_36InitializeNcnOperatorStateCpiBuilder21add_remaining_account
FN:443,_RNvMs3_NtNtNtCs7b1zZ6GD7vQ_21jito_restaking_client9generated12instructions29initialize_ncn_operator_stateNtB5_36InitializeNcnOperatorStateCpiBuilder22add_remaining_accounts
FN:457,_RNvMs3_NtNtNtCs7b1zZ6GD7vQ_21jito_restaking_client9generated12instructions29initialize_ncn_operator_stateNtB5_36InitializeNcnOperatorStateCpiBuilder6invoke
FN:462,_RNvMs3_NtNtNtCs7b1zZ6GD7vQ_21jito_restaking_client9generated12instructions29initialize_ncn_operator_stateNtB5_36InitializeNcnOperatorStateCpiBuilder13invoke_signed
FNDA:0,_RNvMNtNtNtCs7b1zZ6GD7vQ_21jito_restaking_client9generated12instructions29initialize_ncn_operator_stateNtB2_26InitializeNcnOperatorState11instruction
FNDA:0,_RNvMNtNtNtCs7b1zZ6GD7vQ_21jito_restaking_client9generated12instructions29initialize_ncn_operator_stateNtB2_26InitializeNcnOperatorState35instruction_with_remaining_accounts
FNDA:0,_RINvXs4_NtNtNtCs7b1zZ6GD7vQ_21jito_restaking_client9generated12instructions29initialize_ncn_operator_stateNtB6_41InitializeNcnOperatorStateInstructionDataNtNtCs7MwDlaQ6RmC_5borsh2de16BorshDeserialize18deserialize_readerpEBc_
FNDA:0,_RINvXs5_NtNtNtCs7b1zZ6GD7vQ_21jito_restaking_client9generated12instructions29initialize_ncn_operator_stateNtB6_41InitializeNcnOperatorStateInstructionDataNtNtCs7MwDlaQ6RmC_5borsh3ser14BorshSerialize9serializepEBc_
FNDA:0,_RNvMs_NtNtNtCs7b1zZ6GD7vQ_21jito_restaking_client9generated12instructions29initialize_ncn_operator_stateNtB4_41InitializeNcnOperatorStateInstructionData3new
FNDA:0,_RNvXs0_NtNtNtCs7b1zZ6GD7vQ_21jito_restaking_client9generated12instructions29initialize_ncn_operator_stateNtB5_41InitializeNcnOperatorStateInstructionDataNtNtCs2ke5FKHNm4X_4core7default7Default7default
FNDA:0,_RNvMs1_NtNtNtCs7b1zZ6GD7vQ_21jito_restaking_client9generated12instructions29initialize_ncn_operator_stateNtB5_33InitializeNcnOperatorStateBuilder3new
FNDA:0,_RNvMs1_NtNtNtCs7b1zZ6GD7vQ_21jito_restaking_client9generated12instructions29initialize_ncn_operator_stateNtB5_33InitializeNcnOperatorStateBuilder6config
FNDA:0,_RNvMs1_NtNtNtCs7b1zZ6GD7vQ_21jito_restaking_client9generated12instructions29initialize_ncn_operator_stateNtB5_33InitializeNcnOperatorStateBuilder3ncn
FNDA:0,_RNvMs1_NtNtNtCs7b1zZ6GD7vQ_21jito_restaking_client9generated12instructions29initialize_ncn_operator_stateNtB5_33InitializeNcnOperatorStateBuilder8operator
FNDA:0,_RNvMs1_NtNtNtCs7b1zZ6GD7vQ_21jito_restaking_client9generated12instructions29initialize_ncn_operator_stateNtB5_33InitializeNcnOperatorStateBuilder18ncn_operator_state
FNDA:0,_RNvMs1_NtNtNtCs7b1zZ6GD7vQ_21jito_restaking_client9generated12instructions29initialize_ncn_operator_stateNtB5_33InitializeNcnOperatorStateBuilder5admin
FNDA:0,_RNvMs1_NtNtNtCs7b1zZ6GD7vQ_21jito_restaking_client9generated12instructions29initialize_ncn_operator_stateNtB5_33InitializeNcnOperatorStateBuilder5payer
FNDA:0,_RNvMs1_NtNtNtCs7b1zZ6GD7vQ_21jito_restaking_client9generated12instructions29initialize_ncn_operator_stateNtB5_33InitializeNcnOperatorStateBuilder14system_program
FNDA:0,_RNvMs1_NtNtNtCs7b1zZ6GD7vQ_21jito_restaking_client9generated12instructions29initialize_ncn_operator_stateNtB5_33InitializeNcnOperatorStateBuilder21add_remaining_account
FNDA:0,_RNvMs1_NtNtNtCs7b1zZ6GD7vQ_21jito_restaking_client9generated12instructions29initialize_ncn_operator_stateNtB5_33InitializeNcnOperatorStateBuilder22add_remaining_accounts
FNDA:0,_RNvMs1_NtNtNtCs7b1zZ6GD7vQ_21jito_restaking_client9generated12instructions29initialize_ncn_operator_stateNtB5_33InitializeNcnOperatorStateBuilder11instruction
FNDA:0,_RNvMs2_NtNtNtCs7b1zZ6GD7vQ_21jito_restaking_client9generated12instructions29initialize_ncn_operator_stateNtB5_29InitializeNcnOperatorStateCpi3new
FNDA:0,_RNvMs2_NtNtNtCs7b1zZ6GD7vQ_21jito_restaking_client9generated12instructions29initialize_ncn_operator_stateNtB5_29InitializeNcnOperatorStateCpi6invoke
FNDA:0,_RNvMs2_NtNtNtCs7b1zZ6GD7vQ_21jito_restaking_client9generated12instructions29initialize_ncn_operator_stateNtB5_29InitializeNcnOperatorStateCpi30invoke_with_remaining_accounts
FNDA:0,_RNvMs2_NtNtNtCs7b1zZ6GD7vQ_21jito_restaking_client9generated12instructions29initialize_ncn_operator_stateNtB5_29InitializeNcnOperatorStateCpi13invoke_signed
FNDA:0,_RNvMs2_NtNtNtCs7b1zZ6GD7vQ_21jito_restaking_client9generated12instructions29initialize_ncn_operator_stateNtB5_29InitializeNcnOperatorStateCpi37invoke_signed_with_remaining_accounts
FNDA:0,_RNCNvMs2_NtNtNtCs7b1zZ6GD7vQ_21jito_restaking_client9generated12instructions29initialize_ncn_operator_stateNtB7_29InitializeNcnOperatorStateCpi37invoke_signed_with_remaining_accounts0Bd_
FNDA:0,_RNCNvMs2_NtNtNtCs7b1zZ6GD7vQ_21jito_restaking_client9generated12instructions29initialize_ncn_operator_stateNtB7_29InitializeNcnOperatorStateCpi37invoke_signed_with_remaining_accountss_0Bd_
FNDA:0,_RNvMs3_NtNtNtCs7b1zZ6GD7vQ_21jito_restaking_client9generated12instructions29initialize_ncn_operator_stateNtB5_36InitializeNcnOperatorStateCpiBuilder3new
FNDA:0,_RNvMs3_NtNtNtCs7b1zZ6GD7vQ_21jito_restaking_client9generated12instructions29initialize_ncn_operator_stateNtB5_36InitializeNcnOperatorStateCpiBuilder6config
FNDA:0,_RNvMs3_NtNtNtCs7b1zZ6GD7vQ_21jito_restaking_client9generated12instructions29initialize_ncn_operator_stateNtB5_36InitializeNcnOperatorStateCpiBuilder3ncn
FNDA:0,_RNvMs3_NtNtNtCs7b1zZ6GD7vQ_21jito_restaking_client9generated12instructions29initialize_ncn_operator_stateNtB5_36InitializeNcnOperatorStateCpiBuilder8operator
FNDA:0,_RNvMs3_NtNtNtCs7b1zZ6GD7vQ_21jito_restaking_client9generated12instructions29initialize_ncn_operator_stateNtB5_36InitializeNcnOperatorStateCpiBuilder18ncn_operator_state
FNDA:0,_RNvMs3_NtNtNtCs7b1zZ6GD7vQ_21jito_restaking_client9generated12instructions29initialize_ncn_operator_stateNtB5_36InitializeNcnOperatorStateCpiBuilder5admin
FNDA:0,_RNvMs3_NtNtNtCs7b1zZ6GD7vQ_21jito_restaking_client9generated12instructions29initialize_ncn_operator_stateNtB5_36InitializeNcnOperatorStateCpiBuilder5payer
FNDA:0,_RNvMs3_NtNtNtCs7b1zZ6GD7vQ_21jito_restaking_client9generated12instructions29initialize_ncn_operator_stateNtB5_36InitializeNcnOperatorStateCpiBuilder14system_program
FNDA:0,_RNvMs3_NtNtNtCs7b1zZ6GD7vQ_21jito_restaking_client9generated12instructions29initialize_ncn_operator_stateNtB5_36InitializeNcnOperatorStateCpiBuilder21add_remaining_account
FNDA:0,_RNvMs3_NtNtNtCs7b1zZ6GD7vQ_21jito_restaking_client9generated12instructions29initialize_ncn_operator_stateNtB5_36InitializeNcnOperatorStateCpiBuilder22add_remaining_accounts
FNDA:0,_RNvMs3_NtNtNtCs7b1zZ6GD7vQ_21jito_restaking_client9generated12instructions29initialize_ncn_operator_stateNtB5_36InitializeNcnOperatorStateCpiBuilder6invoke
FNDA:0,_RNvMs3_NtNtNtCs7b1zZ6GD7vQ_21jito_restaking_client9generated12instructions29initialize_ncn_operator_stateNtB5_36InitializeNcnOperatorStateCpiBuilder13invoke_signed
FNF:36
FNH:0
DA:27,0
DA:28,0
DA:29,0
DA:31,0
DA:32,0
DA:33,0
DA:34,0
DA:35,0
DA:36,0
DA:37,0
DA:38,0
DA:39,0
DA:40,0
DA:41,0
DA:42,0
DA:43,0
DA:44,0
DA:45,0
DA:46,0
DA:47,0
DA:48,0
DA:49,0
DA:50,0
DA:51,0
DA:52,0
DA:53,0
DA:54,0
DA:55,0
DA:56,0
DA:57,0
DA:58,0
DA:59,0
DA:60,0
DA:61,0
DA:62,0
DA:63,0
DA:64,0
DA:65,0
DA:66,0
DA:67,0
DA:68,0
DA:69,0
DA:70,0
DA:71,0
DA:74,0
DA:80,0
DA:81,0
DA:82,0
DA:86,0
DA:87,0
DA:88,0
DA:115,0
DA:116,0
DA:117,0
DA:119,0
DA:120,0
DA:121,0
DA:122,0
DA:124,0
DA:125,0
DA:126,0
DA:127,0
DA:129,0
DA:130,0
DA:131,0
DA:132,0
DA:134,0
DA:135,0
DA:136,0
DA:137,0
DA:138,0
DA:139,0
DA:140,0
DA:142,0
DA:143,0
DA:144,0
DA:145,0
DA:147,0
DA:148,0
DA:149,0
DA:150,0
DA:153,0
DA:154,0
DA:155,0
DA:156,0
DA:159,0
DA:160,0
DA:161,0
DA:162,0
DA:163,0
DA:164,0
DA:165,0
DA:168,0
DA:169,0
DA:170,0
DA:171,0
DA:172,0
DA:173,0
DA:174,0
DA:176,0
DA:177,0
DA:178,0
DA:179,0
DA:180,0
DA:181,0
DA:182,0
DA:183,0
DA:184,0
DA:185,0
DA:186,0
DA:187,0
DA:188,0
DA:189,0
DA:190,0
DA:191,0
DA:192,0
DA:233,0
DA:234,0
DA:235,0
DA:236,0
DA:237,0
DA:238,0
DA:239,0
DA:240,0
DA:241,0
DA:242,0
DA:243,0
DA:244,0
DA:245,0
DA:246,0
DA:247,0
DA:249,0
DA:250,0
DA:251,0
DA:253,0
DA:254,0
DA:255,0
DA:256,0
DA:257,0
DA:258,0
DA:259,0
DA:260,0
DA:261,0
DA:262,0
DA:264,0
DA:265,0
DA:266,0
DA:267,0
DA:268,0
DA:269,0
DA:272,0
DA:273,0
DA:274,0
DA:275,0
DA:276,0
DA:277,0
DA:278,0
DA:279,0
DA:280,0
DA:281,0
DA:282,0
DA:283,0
DA:284,0
DA:285,0
DA:286,0
DA:287,0
DA:288,0
DA:289,0
DA:290,0
DA:291,0
DA:292,0
DA:293,0
DA:294,0
DA:295,0
DA:296,0
DA:297,0
DA:298,0
DA:299,0
DA:300,0
DA:301,0
DA:302,0
DA:303,0
DA:304,0
DA:305,0
DA:306,0
DA:307,0
DA:308,0
DA:309,0
DA:310,0
DA:311,0
DA:312,0
DA:313,0
DA:314,0
DA:315,0
DA:316,0
DA:317,0
DA:318,0
DA:319,0
DA:320,0
DA:321,0
DA:322,0
DA:323,0
DA:324,0
DA:325,0
DA:326,0
DA:327,0
DA:328,0
DA:329,0
DA:330,0
DA:331,0
DA:332,0
DA:333,0
DA:334,0
DA:335,0
DA:336,0
DA:337,0
DA:338,0
DA:339,0
DA:340,0
DA:342,0
DA:344,0
DA:364,0
DA:365,0
DA:366,0
DA:367,0
DA:368,0
DA:369,0
DA:370,0
DA:371,0
DA:372,0
DA:373,0
DA:374,0
DA:375,0
DA:376,0
DA:377,0
DA:379,0
DA:380,0
DA:381,0
DA:382,0
DA:383,0
DA:384,0
DA:385,0
DA:387,0
DA:388,0
DA:389,0
DA:390,0
DA:392,0
DA:393,0
DA:394,0
DA:395,0
DA:396,0
DA:397,0
DA:398,0
DA:400,0
DA:401,0
DA:402,0
DA:403,0
DA:404,0
DA:405,0
DA:406,0
DA:408,0
DA:409,0
DA:410,0
DA:411,0
DA:413,0
DA:414,0
DA:415,0
DA:416,0
DA:418,0
DA:419,0
DA:420,0
DA:421,0
DA:422,0
DA:423,0
DA:424,0
DA:427,0
DA:428,0
DA:429,0
DA:430,0
DA:431,0
DA:432,0
DA:433,0
DA:434,0
DA:435,0
DA:436,0
DA:437,0
DA:443,0
DA:444,0
DA:445,0
DA:446,0
DA:447,0
DA:448,0
DA:449,0
DA:450,0
DA:451,0
DA:452,0
DA:453,0
DA:454,0
DA:455,0
DA:457,0
DA:458,0
DA:459,0
DA:462,0
DA:463,0
DA:464,0
DA:465,0
DA:466,0
DA:467,0
DA:468,0
DA:469,0
DA:470,0
DA:471,0
DA:472,0
DA:473,0
DA:474,0
DA:475,0
DA:476,0
DA:477,0
DA:478,0
DA:479,0
DA:480,0
DA:481,0
DA:482,0
DA:483,0
DA:484,0
DA:485,0
DA:486,0
DA:487,0
DA:488,0
DA:489,0
DA:490,0
DA:491,0
DA:492,0
DA:493,0
BRF:0
BRH:0
LF:338
LH:0
end_of_record
SF:/Users/coach/Documents/Jito/restaking/clients/rust/restaking_client/src/generated/instructions/initialize_ncn_vault_slasher_ticket.rs
FN:31,_RNvMNtNtNtCs7b1zZ6GD7vQ_21jito_restaking_client9generated12instructions35initialize_ncn_vault_slasher_ticketNtB2_31InitializeNcnVaultSlasherTicket11instruction
FN:38,_RNvMNtNtNtCs7b1zZ6GD7vQ_21jito_restaking_client9generated12instructions35initialize_ncn_vault_slasher_ticketNtB2_31InitializeNcnVaultSlasherTicket35instruction_with_remaining_accounts
FN:91,_RINvXs4_NtNtNtCs7b1zZ6GD7vQ_21jito_restaking_client9generated12instructions35initialize_ncn_vault_slasher_ticketNtB6_46InitializeNcnVaultSlasherTicketInstructionDataNtNtCs7MwDlaQ6RmC_5borsh2de16BorshDeserialize18deserialize_readerpEBc_
FN:91,_RINvXs5_NtNtNtCs7b1zZ6GD7vQ_21jito_restaking_client9generated12instructions35initialize_ncn_vault_slasher_ticketNtB6_46InitializeNcnVaultSlasherTicketInstructionDataNtNtCs7MwDlaQ6RmC_5borsh3ser14BorshSerialize9serializepEBc_
FN:97,_RNvMs_NtNtNtCs7b1zZ6GD7vQ_21jito_restaking_client9generated12instructions35initialize_ncn_vault_slasher_ticketNtB4_46InitializeNcnVaultSlasherTicketInstructionData3new
FN:103,_RNvXs0_NtNtNtCs7b1zZ6GD7vQ_21jito_restaking_client9generated12instructions35initialize_ncn_vault_slasher_ticketNtB5_46InitializeNcnVaultSlasherTicketInstructionDataNtNtCs2ke5FKHNm4X_4core7default7Default7default
FN:109,_RNvXNvXNvNtNtNtCs7b1zZ6GD7vQ_21jito_restaking_client9generated12instructions35initialize_ncn_vault_slasher_tickets_1__NtB7_46InitializeNcnVaultSlasherTicketInstructionArgsNtNtCsdCf1W31ya0G_5serde2de11Deserialize11deserializeNtB2_14___FieldVisitorNtB2L_7Visitor9expecting
FN:109,_RINvXNvXNvNtNtNtCs7b1zZ6GD7vQ_21jito_restaking_client9generated12instructions35initialize_ncn_vault_slasher_tickets_1__NtB8_46InitializeNcnVaultSlasherTicketInstructionArgsNtNtCsdCf1W31ya0G_5serde2de11Deserialize11deserializeNtB3_14___FieldVisitorNtB2M_7Visitor9visit_u64pEBe_
FN:109,_RINvXNvXNvNtNtNtCs7b1zZ6GD7vQ_21jito_restaking_client9generated12instructions35initialize_ncn_vault_slasher_tickets_1__NtB8_46InitializeNcnVaultSlasherTicketInstructionArgsNtNtCsdCf1W31ya0G_5serde2de11Deserialize11deserializeNtB3_14___FieldVisitorNtB2M_7Visitor9visit_strpEBe_
FN:109,_RINvXNvXNvNtNtNtCs7b1zZ6GD7vQ_21jito_restaking_client9generated12instructions35initialize_ncn_vault_slasher_tickets_1__NtB8_46InitializeNcnVaultSlasherTicketInstructionArgsNtNtCsdCf1W31ya0G_5serde2de11Deserialize11deserializeNtB3_14___FieldVisitorNtB2M_7Visitor11visit_bytespEBe_
FN:109,_RINvXs_NvXNvNtNtNtCs7b1zZ6GD7vQ_21jito_restaking_client9generated12instructions35initialize_ncn_vault_slasher_tickets_1__NtBa_46InitializeNcnVaultSlasherTicketInstructionArgsNtNtCsdCf1W31ya0G_5serde2de11Deserialize11deserializeNtB5_7___FieldB2M_11deserializepEBg_
FN:109,_RNvXs0_NvXNvNtNtNtCs7b1zZ6GD7vQ_21jito_restaking_client9generated12instructions35initialize_ncn_vault_slasher_tickets_1__NtBa_46InitializeNcnVaultSlasherTicketInstructionArgsNtNtCsdCf1W31ya0G_5serde2de11Deserialize11deserializeNtB5_9___VisitorNtB2O_7Visitor9expecting
FN:109,_RINvXs0_NvXNvNtNtNtCs7b1zZ6GD7vQ_21jito_restaking_client9generated12instructions35initialize_ncn_vault_slasher_tickets_1__NtBb_46InitializeNcnVaultSlasherTicketInstructionArgsNtNtCsdCf1W31ya0G_5serde2de11Deserialize11deserializeNtB6_9___VisitorNtB2P_7Visitor9visit_seqpEBh_
FN:109,_RINvXs0_NvXNvNtNtNtCs7b1zZ6GD7vQ_21jito_restaking_client9generated12instructions35initialize_ncn_vault_slasher_tickets_1__NtBb_46InitializeNcnVaultSlasherTicketInstructionArgsNtNtCsdCf1W31ya0G_5serde2de11Deserialize11deserializeNtB6_9___VisitorNtB2P_7Visitor9visit_mappEBh_
FN:108,_RINvXs6_NtNtNtCs7b1zZ6GD7vQ_21jito_restaking_client9generated12instructions35initialize_ncn_vault_slasher_ticketNtB6_46InitializeNcnVaultSlasherTicketInstructionArgsNtNtCs7MwDlaQ6RmC_5borsh3ser14BorshSerialize9serializepEBc_
FN:108,_RINvXs7_NtNtNtCs7b1zZ6GD7vQ_21jito_restaking_client9generated12instructions35initialize_ncn_vault_slasher_ticketNtB6_46InitializeNcnVaultSlasherTicketInstructionArgsNtNtCs7MwDlaQ6RmC_5borsh2de16BorshDeserialize18deserialize_readerpEBc_
FN:143,_RNvMs1_NtNtNtCs7b1zZ6GD7vQ_21jito_restaking_client9generated12instructions35initialize_ncn_vault_slasher_ticketNtB5_38InitializeNcnVaultSlasherTicketBuilder3new
FN:147,_RNvMs1_NtNtNtCs7b1zZ6GD7vQ_21jito_restaking_client9generated12instructions35initialize_ncn_vault_slasher_ticketNtB5_38InitializeNcnVaultSlasherTicketBuilder6config
FN:152,_RNvMs1_NtNtNtCs7b1zZ6GD7vQ_21jito_restaking_client9generated12instructions35initialize_ncn_vault_slasher_ticketNtB5_38InitializeNcnVaultSlasherTicketBuilder3ncn
FN:157,_RNvMs1_NtNtNtCs7b1zZ6GD7vQ_21jito_restaking_client9generated12instructions35initialize_ncn_vault_slasher_ticketNtB5_38InitializeNcnVaultSlasherTicketBuilder5vault
FN:162,_RNvMs1_NtNtNtCs7b1zZ6GD7vQ_21jito_restaking_client9generated12instructions35initialize_ncn_vault_slasher_ticketNtB5_38InitializeNcnVaultSlasherTicketBuilder7slasher
FN:167,_RNvMs1_NtNtNtCs7b1zZ6GD7vQ_21jito_restaking_client9generated12instructions35initialize_ncn_vault_slasher_ticketNtB5_38InitializeNcnVaultSlasherTicketBuilder16ncn_vault_ticket
FN:175,_RNvMs1_NtNtNtCs7b1zZ6GD7vQ_21jito_restaking_client9generated12instructions35initialize_ncn_vault_slasher_ticketNtB5_38InitializeNcnVaultSlasherTicketBuilder24ncn_vault_slasher_ticket
FN:183,_RNvMs1_NtNtNtCs7b1zZ6GD7vQ_21jito_restaking_client9generated12instructions35initialize_ncn_vault_slasher_ticketNtB5_38InitializeNcnVaultSlasherTicketBuilder5admin
FN:188,_RNvMs1_NtNtNtCs7b1zZ6GD7vQ_21jito_restaking_client9generated12instructions35initialize_ncn_vault_slasher_ticketNtB5_38InitializeNcnVaultSlasherTicketBuilder5payer
FN:194,_RNvMs1_NtNtNtCs7b1zZ6GD7vQ_21jito_restaking_client9generated12instructions35initialize_ncn_vault_slasher_ticketNtB5_38InitializeNcnVaultSlasherTicketBuilder14system_program
FN:199,_RNvMs1_NtNtNtCs7b1zZ6GD7vQ_21jito_restaking_client9generated12instructions35initialize_ncn_vault_slasher_ticketNtB5_38InitializeNcnVaultSlasherTicketBuilder4args
FN:205,_RNvMs1_NtNtNtCs7b1zZ6GD7vQ_21jito_restaking_client9generated12instructions35initialize_ncn_vault_slasher_ticketNtB5_38InitializeNcnVaultSlasherTicketBuilder21add_remaining_account
FN:214,_RNvMs1_NtNtNtCs7b1zZ6GD7vQ_21jito_restaking_client9generated12instructions35initialize_ncn_vault_slasher_ticketNtB5_38InitializeNcnVaultSlasherTicketBuilder22add_remaining_accounts
FN:222,_RNvMs1_NtNtNtCs7b1zZ6GD7vQ_21jito_restaking_client9generated12instructions35initialize_ncn_vault_slasher_ticketNtB5_38InitializeNcnVaultSlasherTicketBuilder11instruction
FN:294,_RNvMs2_NtNtNtCs7b1zZ6GD7vQ_21jito_restaking_client9generated12instructions35initialize_ncn_vault_slasher_ticketNtB5_34InitializeNcnVaultSlasherTicketCpi3new
FN:314,_RNvMs2_NtNtNtCs7b1zZ6GD7vQ_21jito_restaking_client9generated12instructions35initialize_ncn_vault_slasher_ticketNtB5_34InitializeNcnVaultSlasherTicketCpi6invoke
FN:318,_RNvMs2_NtNtNtCs7b1zZ6GD7vQ_21jito_restaking_client9generated12instructions35initialize_ncn_vault_slasher_ticketNtB5_34InitializeNcnVaultSlasherTicketCpi30invoke_with_remaining_accounts
FN:329,_RNvMs2_NtNtNtCs7b1zZ6GD7vQ_21jito_restaking_client9generated12instructions35initialize_ncn_vault_slasher_ticketNtB5_34InitializeNcnVaultSlasherTicketCpi13invoke_signed
FN:337,_RNvMs2_NtNtNtCs7b1zZ6GD7vQ_21jito_restaking_client9generated12instructions35initialize_ncn_vault_slasher_ticketNtB5_34InitializeNcnVaultSlasherTicketCpi37invoke_signed_with_remaining_accounts
FN:383,_RNCNvMs2_NtNtNtCs7b1zZ6GD7vQ_21jito_restaking_client9generated12instructions35initialize_ncn_vault_slasher_ticketNtB7_34InitializeNcnVaultSlasherTicketCpi37invoke_signed_with_remaining_accounts0Bd_
FN:414,_RNCNvMs2_NtNtNtCs7b1zZ6GD7vQ_21jito_restaking_client9generated12instructions35initialize_ncn_vault_slasher_ticketNtB7_34InitializeNcnVaultSlasherTicketCpi37invoke_signed_with_remaining_accountss_0Bd_
FN:443,_RNvMs3_NtNtNtCs7b1zZ6GD7vQ_21jito_restaking_client9generated12instructions35initialize_ncn_vault_slasher_ticketNtB5_41InitializeNcnVaultSlasherTicketCpiBuilder3new
FN:461,_RNvMs3_NtNtNtCs7b1zZ6GD7vQ_21jito_restaking_client9generated12instructions35initialize_ncn_vault_slasher_ticketNtB5_41InitializeNcnVaultSlasherTicketCpiBuilder6config
FN:469,_RNvMs3_NtNtNtCs7b1zZ6GD7vQ_21jito_restaking_client9generated12instructions35initialize_ncn_vault_slasher_ticketNtB5_41InitializeNcnVaultSlasherTicketCpiBuilder3ncn
FN:474,_RNvMs3_NtNtNtCs7b1zZ6GD7vQ_21jito_restaking_client9generated12instructions35initialize_ncn_vault_slasher_ticketNtB5_41InitializeNcnVaultSlasherTicketCpiBuilder5vault
FN:479,_RNvMs3_NtNtNtCs7b1zZ6GD7vQ_21jito_restaking_client9generated12instructions35initialize_ncn_vault_slasher_ticketNtB5_41InitializeNcnVaultSlasherTicketCpiBuilder7slasher
FN:487,_RNvMs3_NtNtNtCs7b1zZ6GD7vQ_21jito_restaking_client9generated12instructions35initialize_ncn_vault_slasher_ticketNtB5_41InitializeNcnVaultSlasherTicketCpiBuilder16ncn_vault_ticket
FN:495,_RNvMs3_NtNtNtCs7b1zZ6GD7vQ_21jito_restaking_client9generated12instructions35initialize_ncn_vault_slasher_ticketNtB5_41InitializeNcnVaultSlasherTicketCpiBuilder24ncn_vault_slasher_ticket
FN:503,_RNvMs3_NtNtNtCs7b1zZ6GD7vQ_21jito_restaking_client9generated12instructions35initialize_ncn_vault_slasher_ticketNtB5_41InitializeNcnVaultSlasherTicketCpiBuilder5admin
FN:508,_RNvMs3_NtNtNtCs7b1zZ6GD7vQ_21jito_restaking_client9generated12instructions35initialize_ncn_vault_slasher_ticketNtB5_41InitializeNcnVaultSlasherTicketCpiBuilder5payer
FN:513,_RNvMs3_NtNtNtCs7b1zZ6GD7vQ_21jito_restaking_client9generated12instructions35initialize_ncn_vault_slasher_ticketNtB5_41InitializeNcnVaultSlasherTicketCpiBuilder14system_program
FN:521,_RNvMs3_NtNtNtCs7b1zZ6GD7vQ_21jito_restaking_client9generated12instructions35initialize_ncn_vault_slasher_ticketNtB5_41InitializeNcnVaultSlasherTicketCpiBuilder4args
FN:527,_RNvMs3_NtNtNtCs7b1zZ6GD7vQ_21jito_restaking_client9generated12instructions35initialize_ncn_vault_slasher_ticketNtB5_41InitializeNcnVaultSlasherTicketCpiBuilder21add_remaining_account
FN:543,_RNvMs3_NtNtNtCs7b1zZ6GD7vQ_21jito_restaking_client9generated12instructions35initialize_ncn_vault_slasher_ticketNtB5_41InitializeNcnVaultSlasherTicketCpiBuilder22add_remaining_accounts
FN:557,_RNvMs3_NtNtNtCs7b1zZ6GD7vQ_21jito_restaking_client9generated12instructions35initialize_ncn_vault_slasher_ticketNtB5_41InitializeNcnVaultSlasherTicketCpiBuilder6invoke
FN:562,_RNvMs3_NtNtNtCs7b1zZ6GD7vQ_21jito_restaking_client9generated12instructions35initialize_ncn_vault_slasher_ticketNtB5_41InitializeNcnVaultSlasherTicketCpiBuilder13invoke_signed
FNDA:0,_RNvMNtNtNtCs7b1zZ6GD7vQ_21jito_restaking_client9generated12instructions35initialize_ncn_vault_slasher_ticketNtB2_31InitializeNcnVaultSlasherTicket11instruction
FNDA:0,_RNvMNtNtNtCs7b1zZ6GD7vQ_21jito_restaking_client9generated12instructions35initialize_ncn_vault_slasher_ticketNtB2_31InitializeNcnVaultSlasherTicket35instruction_with_remaining_accounts
FNDA:0,_RINvXs4_NtNtNtCs7b1zZ6GD7vQ_21jito_restaking_client9generated12instructions35initialize_ncn_vault_slasher_ticketNtB6_46InitializeNcnVaultSlasherTicketInstructionDataNtNtCs7MwDlaQ6RmC_5borsh2de16BorshDeserialize18deserialize_readerpEBc_
FNDA:0,_RINvXs5_NtNtNtCs7b1zZ6GD7vQ_21jito_restaking_client9generated12instructions35initialize_ncn_vault_slasher_ticketNtB6_46InitializeNcnVaultSlasherTicketInstructionDataNtNtCs7MwDlaQ6RmC_5borsh3ser14BorshSerialize9serializepEBc_
FNDA:0,_RNvMs_NtNtNtCs7b1zZ6GD7vQ_21jito_restaking_client9generated12instructions35initialize_ncn_vault_slasher_ticketNtB4_46InitializeNcnVaultSlasherTicketInstructionData3new
FNDA:0,_RNvXs0_NtNtNtCs7b1zZ6GD7vQ_21jito_restaking_client9generated12instructions35initialize_ncn_vault_slasher_ticketNtB5_46InitializeNcnVaultSlasherTicketInstructionDataNtNtCs2ke5FKHNm4X_4core7default7Default7default
FNDA:0,_RNvXNvXNvNtNtNtCs7b1zZ6GD7vQ_21jito_restaking_client9generated12instructions35initialize_ncn_vault_slasher_tickets_1__NtB7_46InitializeNcnVaultSlasherTicketInstructionArgsNtNtCsdCf1W31ya0G_5serde2de11Deserialize11deserializeNtB2_14___FieldVisitorNtB2L_7Visitor9expecting
FNDA:0,_RINvXNvXNvNtNtNtCs7b1zZ6GD7vQ_21jito_restaking_client9generated12instructions35initialize_ncn_vault_slasher_tickets_1__NtB8_46InitializeNcnVaultSlasherTicketInstructionArgsNtNtCsdCf1W31ya0G_5serde2de11Deserialize11deserializeNtB3_14___FieldVisitorNtB2M_7Visitor9visit_u64pEBe_
FNDA:0,_RINvXNvXNvNtNtNtCs7b1zZ6GD7vQ_21jito_restaking_client9generated12instructions35initialize_ncn_vault_slasher_tickets_1__NtB8_46InitializeNcnVaultSlasherTicketInstructionArgsNtNtCsdCf1W31ya0G_5serde2de11Deserialize11deserializeNtB3_14___FieldVisitorNtB2M_7Visitor9visit_strpEBe_
FNDA:0,_RINvXNvXNvNtNtNtCs7b1zZ6GD7vQ_21jito_restaking_client9generated12instructions35initialize_ncn_vault_slasher_tickets_1__NtB8_46InitializeNcnVaultSlasherTicketInstructionArgsNtNtCsdCf1W31ya0G_5serde2de11Deserialize11deserializeNtB3_14___FieldVisitorNtB2M_7Visitor11visit_bytespEBe_
FNDA:0,_RINvXs_NvXNvNtNtNtCs7b1zZ6GD7vQ_21jito_restaking_client9generated12instructions35initialize_ncn_vault_slasher_tickets_1__NtBa_46InitializeNcnVaultSlasherTicketInstructionArgsNtNtCsdCf1W31ya0G_5serde2de11Deserialize11deserializeNtB5_7___FieldB2M_11deserializepEBg_
FNDA:0,_RNvXs0_NvXNvNtNtNtCs7b1zZ6GD7vQ_21jito_restaking_client9generated12instructions35initialize_ncn_vault_slasher_tickets_1__NtBa_46InitializeNcnVaultSlasherTicketInstructionArgsNtNtCsdCf1W31ya0G_5serde2de11Deserialize11deserializeNtB5_9___VisitorNtB2O_7Visitor9expecting
FNDA:0,_RINvXs0_NvXNvNtNtNtCs7b1zZ6GD7vQ_21jito_restaking_client9generated12instructions35initialize_ncn_vault_slasher_tickets_1__NtBb_46InitializeNcnVaultSlasherTicketInstructionArgsNtNtCsdCf1W31ya0G_5serde2de11Deserialize11deserializeNtB6_9___VisitorNtB2P_7Visitor9visit_seqpEBh_
FNDA:0,_RINvXs0_NvXNvNtNtNtCs7b1zZ6GD7vQ_21jito_restaking_client9generated12instructions35initialize_ncn_vault_slasher_tickets_1__NtBb_46InitializeNcnVaultSlasherTicketInstructionArgsNtNtCsdCf1W31ya0G_5serde2de11Deserialize11deserializeNtB6_9___VisitorNtB2P_7Visitor9visit_mappEBh_
FNDA:0,_RINvXs6_NtNtNtCs7b1zZ6GD7vQ_21jito_restaking_client9generated12instructions35initialize_ncn_vault_slasher_ticketNtB6_46InitializeNcnVaultSlasherTicketInstructionArgsNtNtCs7MwDlaQ6RmC_5borsh3ser14BorshSerialize9serializepEBc_
FNDA:0,_RINvXs7_NtNtNtCs7b1zZ6GD7vQ_21jito_restaking_client9generated12instructions35initialize_ncn_vault_slasher_ticketNtB6_46InitializeNcnVaultSlasherTicketInstructionArgsNtNtCs7MwDlaQ6RmC_5borsh2de16BorshDeserialize18deserialize_readerpEBc_
FNDA:0,_RNvMs1_NtNtNtCs7b1zZ6GD7vQ_21jito_restaking_client9generated12instructions35initialize_ncn_vault_slasher_ticketNtB5_38InitializeNcnVaultSlasherTicketBuilder3new
FNDA:0,_RNvMs1_NtNtNtCs7b1zZ6GD7vQ_21jito_restaking_client9generated12instructions35initialize_ncn_vault_slasher_ticketNtB5_38InitializeNcnVaultSlasherTicketBuilder6config
FNDA:0,_RNvMs1_NtNtNtCs7b1zZ6GD7vQ_21jito_restaking_client9generated12instructions35initialize_ncn_vault_slasher_ticketNtB5_38InitializeNcnVaultSlasherTicketBuilder3ncn
FNDA:0,_RNvMs1_NtNtNtCs7b1zZ6GD7vQ_21jito_restaking_client9generated12instructions35initialize_ncn_vault_slasher_ticketNtB5_38InitializeNcnVaultSlasherTicketBuilder5vault
FNDA:0,_RNvMs1_NtNtNtCs7b1zZ6GD7vQ_21jito_restaking_client9generated12instructions35initialize_ncn_vault_slasher_ticketNtB5_38InitializeNcnVaultSlasherTicketBuilder7slasher
FNDA:0,_RNvMs1_NtNtNtCs7b1zZ6GD7vQ_21jito_restaking_client9generated12instructions35initialize_ncn_vault_slasher_ticketNtB5_38InitializeNcnVaultSlasherTicketBuilder16ncn_vault_ticket
FNDA:0,_RNvMs1_NtNtNtCs7b1zZ6GD7vQ_21jito_restaking_client9generated12instructions35initialize_ncn_vault_slasher_ticketNtB5_38InitializeNcnVaultSlasherTicketBuilder24ncn_vault_slasher_ticket
FNDA:0,_RNvMs1_NtNtNtCs7b1zZ6GD7vQ_21jito_restaking_client9generated12instructions35initialize_ncn_vault_slasher_ticketNtB5_38InitializeNcnVaultSlasherTicketBuilder5admin
FNDA:0,_RNvMs1_NtNtNtCs7b1zZ6GD7vQ_21jito_restaking_client9generated12instructions35initialize_ncn_vault_slasher_ticketNtB5_38InitializeNcnVaultSlasherTicketBuilder5payer
FNDA:0,_RNvMs1_NtNtNtCs7b1zZ6GD7vQ_21jito_restaking_client9generated12instructions35initialize_ncn_vault_slasher_ticketNtB5_38InitializeNcnVaultSlasherTicketBuilder14system_program
FNDA:0,_RNvMs1_NtNtNtCs7b1zZ6GD7vQ_21jito_restaking_client9generated12instructions35initialize_ncn_vault_slasher_ticketNtB5_38InitializeNcnVaultSlasherTicketBuilder4args
FNDA:0,_RNvMs1_NtNtNtCs7b1zZ6GD7vQ_21jito_restaking_client9generated12instructions35initialize_ncn_vault_slasher_ticketNtB5_38InitializeNcnVaultSlasherTicketBuilder21add_remaining_account
FNDA:0,_RNvMs1_NtNtNtCs7b1zZ6GD7vQ_21jito_restaking_client9generated12instructions35initialize_ncn_vault_slasher_ticketNtB5_38InitializeNcnVaultSlasherTicketBuilder22add_remaining_accounts
FNDA:0,_RNvMs1_NtNtNtCs7b1zZ6GD7vQ_21jito_restaking_client9generated12instructions35initialize_ncn_vault_slasher_ticketNtB5_38InitializeNcnVaultSlasherTicketBuilder11instruction
FNDA:0,_RNvMs2_NtNtNtCs7b1zZ6GD7vQ_21jito_restaking_client9generated12instructions35initialize_ncn_vault_slasher_ticketNtB5_34InitializeNcnVaultSlasherTicketCpi3new
FNDA:0,_RNvMs2_NtNtNtCs7b1zZ6GD7vQ_21jito_restaking_client9generated12instructions35initialize_ncn_vault_slasher_ticketNtB5_34InitializeNcnVaultSlasherTicketCpi6invoke
FNDA:0,_RNvMs2_NtNtNtCs7b1zZ6GD7vQ_21jito_restaking_client9generated12instructions35initialize_ncn_vault_slasher_ticketNtB5_34InitializeNcnVaultSlasherTicketCpi30invoke_with_remaining_accounts
FNDA:0,_RNvMs2_NtNtNtCs7b1zZ6GD7vQ_21jito_restaking_client9generated12instructions35initialize_ncn_vault_slasher_ticketNtB5_34InitializeNcnVaultSlasherTicketCpi13invoke_signed
FNDA:0,_RNvMs2_NtNtNtCs7b1zZ6GD7vQ_21jito_restaking_client9generated12instructions35initialize_ncn_vault_slasher_ticketNtB5_34InitializeNcnVaultSlasherTicketCpi37invoke_signed_with_remaining_accounts
FNDA:0,_RNCNvMs2_NtNtNtCs7b1zZ6GD7vQ_21jito_restaking_client9generated12instructions35initialize_ncn_vault_slasher_ticketNtB7_34InitializeNcnVaultSlasherTicketCpi37invoke_signed_with_remaining_accounts0Bd_
FNDA:0,_RNCNvMs2_NtNtNtCs7b1zZ6GD7vQ_21jito_restaking_client9generated12instructions35initialize_ncn_vault_slasher_ticketNtB7_34InitializeNcnVaultSlasherTicketCpi37invoke_signed_with_remaining_accountss_0Bd_
FNDA:0,_RNvMs3_NtNtNtCs7b1zZ6GD7vQ_21jito_restaking_client9generated12instructions35initialize_ncn_vault_slasher_ticketNtB5_41InitializeNcnVaultSlasherTicketCpiBuilder3new
FNDA:0,_RNvMs3_NtNtNtCs7b1zZ6GD7vQ_21jito_restaking_client9generated12instructions35initialize_ncn_vault_slasher_ticketNtB5_41InitializeNcnVaultSlasherTicketCpiBuilder6config
FNDA:0,_RNvMs3_NtNtNtCs7b1zZ6GD7vQ_21jito_restaking_client9generated12instructions35initialize_ncn_vault_slasher_ticketNtB5_41InitializeNcnVaultSlasherTicketCpiBuilder3ncn
FNDA:0,_RNvMs3_NtNtNtCs7b1zZ6GD7vQ_21jito_restaking_client9generated12instructions35initialize_ncn_vault_slasher_ticketNtB5_41InitializeNcnVaultSlasherTicketCpiBuilder5vault
FNDA:0,_RNvMs3_NtNtNtCs7b1zZ6GD7vQ_21jito_restaking_client9generated12instructions35initialize_ncn_vault_slasher_ticketNtB5_41InitializeNcnVaultSlasherTicketCpiBuilder7slasher
FNDA:0,_RNvMs3_NtNtNtCs7b1zZ6GD7vQ_21jito_restaking_client9generated12instructions35initialize_ncn_vault_slasher_ticketNtB5_41InitializeNcnVaultSlasherTicketCpiBuilder16ncn_vault_ticket
FNDA:0,_RNvMs3_NtNtNtCs7b1zZ6GD7vQ_21jito_restaking_client9generated12instructions35initialize_ncn_vault_slasher_ticketNtB5_41InitializeNcnVaultSlasherTicketCpiBuilder24ncn_vault_slasher_ticket
FNDA:0,_RNvMs3_NtNtNtCs7b1zZ6GD7vQ_21jito_restaking_client9generated12instructions35initialize_ncn_vault_slasher_ticketNtB5_41InitializeNcnVaultSlasherTicketCpiBuilder5admin
FNDA:0,_RNvMs3_NtNtNtCs7b1zZ6GD7vQ_21jito_restaking_client9generated12instructions35initialize_ncn_vault_slasher_ticketNtB5_41InitializeNcnVaultSlasherTicketCpiBuilder5payer
FNDA:0,_RNvMs3_NtNtNtCs7b1zZ6GD7vQ_21jito_restaking_client9generated12instructions35initialize_ncn_vault_slasher_ticketNtB5_41InitializeNcnVaultSlasherTicketCpiBuilder14system_program
FNDA:0,_RNvMs3_NtNtNtCs7b1zZ6GD7vQ_21jito_restaking_client9generated12instructions35initialize_ncn_vault_slasher_ticketNtB5_41InitializeNcnVaultSlasherTicketCpiBuilder4args
FNDA:0,_RNvMs3_NtNtNtCs7b1zZ6GD7vQ_21jito_restaking_client9generated12instructions35initialize_ncn_vault_slasher_ticketNtB5_41InitializeNcnVaultSlasherTicketCpiBuilder21add_remaining_account
FNDA:0,_RNvMs3_NtNtNtCs7b1zZ6GD7vQ_21jito_restaking_client9generated12instructions35initialize_ncn_vault_slasher_ticketNtB5_41InitializeNcnVaultSlasherTicketCpiBuilder22add_remaining_accounts
FNDA:0,_RNvMs3_NtNtNtCs7b1zZ6GD7vQ_21jito_restaking_client9generated12instructions35initialize_ncn_vault_slasher_ticketNtB5_41InitializeNcnVaultSlasherTicketCpiBuilder6invoke
FNDA:0,_RNvMs3_NtNtNtCs7b1zZ6GD7vQ_21jito_restaking_client9generated12instructions35initialize_ncn_vault_slasher_ticketNtB5_41InitializeNcnVaultSlasherTicketCpiBuilder13invoke_signed
FNF:45
FNH:0
DA:31,0
DA:32,0
DA:33,0
DA:34,0
DA:35,0
DA:36,0
DA:38,0
DA:39,0
DA:40,0
DA:41,0
DA:42,0
DA:43,0
DA:44,0
DA:45,0
DA:46,0
DA:47,0
DA:48,0
DA:49,0
DA:50,0
DA:51,0
DA:52,0
DA:53,0
DA:54,0
DA:55,0
DA:56,0
DA:57,0
DA:58,0
DA:59,0
DA:60,0
DA:61,0
DA:62,0
DA:63,0
DA:64,0
DA:65,0
DA:66,0
DA:67,0
DA:68,0
DA:69,0
DA:70,0
DA:71,0
DA:72,0
DA:73,0
DA:74,0
DA:75,0
DA:76,0
DA:77,0
DA:78,0
DA:79,0
DA:80,0
DA:81,0
DA:82,0
DA:83,0
DA:84,0
DA:85,0
DA:86,0
DA:87,0
DA:88,0
DA:91,0
DA:97,0
DA:98,0
DA:99,0
DA:103,0
DA:104,0
DA:105,0
DA:108,0
DA:109,0
DA:143,0
DA:144,0
DA:145,0
DA:147,0
DA:148,0
DA:149,0
DA:150,0
DA:152,0
DA:153,0
DA:154,0
DA:155,0
DA:157,0
DA:158,0
DA:159,0
DA:160,0
DA:162,0
DA:163,0
DA:164,0
DA:165,0
DA:167,0
DA:168,0
DA:169,0
DA:170,0
DA:171,0
DA:172,0
DA:173,0
DA:175,0
DA:176,0
DA:177,0
DA:178,0
DA:179,0
DA:180,0
DA:181,0
DA:183,0
DA:184,0
DA:185,0
DA:186,0
DA:188,0
DA:189,0
DA:190,0
DA:191,0
DA:194,0
DA:195,0
DA:196,0
DA:197,0
DA:199,0
DA:200,0
DA:201,0
DA:202,0
DA:205,0
DA:206,0
DA:207,0
DA:208,0
DA:209,0
DA:210,0
DA:211,0
DA:214,0
DA:215,0
DA:216,0
DA:217,0
DA:218,0
DA:219,0
DA:220,0
DA:222,0
DA:223,0
DA:224,0
DA:225,0
DA:226,0
DA:227,0
DA:228,0
DA:229,0
DA:230,0
DA:231,0
DA:232,0
DA:233,0
DA:234,0
DA:235,0
DA:236,0
DA:237,0
DA:238,0
DA:239,0
DA:240,0
DA:241,0
DA:242,0
DA:243,0
DA:294,0
DA:295,0
DA:296,0
DA:297,0
DA:298,0
DA:299,0
DA:300,0
DA:301,0
DA:302,0
DA:303,0
DA:304,0
DA:305,0
DA:306,0
DA:307,0
DA:308,0
DA:309,0
DA:310,0
DA:311,0
DA:312,0
DA:314,0
DA:315,0
DA:316,0
DA:318,0
DA:319,0
DA:320,0
DA:321,0
DA:322,0
DA:323,0
DA:324,0
DA:325,0
DA:326,0
DA:327,0
DA:329,0
DA:330,0
DA:331,0
DA:332,0
DA:333,0
DA:334,0
DA:337,0
DA:338,0
DA:339,0
DA:340,0
DA:341,0
DA:342,0
DA:343,0
DA:344,0
DA:345,0
DA:346,0
DA:347,0
DA:348,0
DA:349,0
DA:350,0
DA:351,0
DA:352,0
DA:353,0
DA:354,0
DA:355,0
DA:356,0
DA:357,0
DA:358,0
DA:359,0
DA:360,0
DA:361,0
DA:362,0
DA:363,0
DA:364,0
DA:365,0
DA:366,0
DA:367,0
DA:368,0
DA:369,0
DA:370,0
DA:371,0
DA:372,0
DA:373,0
DA:374,0
DA:375,0
DA:376,0
DA:377,0
DA:378,0
DA:379,0
DA:380,0
DA:381,0
DA:382,0
DA:383,0
DA:384,0
DA:385,0
DA:386,0
DA:387,0
DA:388,0
DA:389,0
DA:390,0
DA:391,0
DA:392,0
DA:393,0
DA:394,0
DA:395,0
DA:396,0
DA:397,0
DA:398,0
DA:399,0
DA:400,0
DA:401,0
DA:402,0
DA:403,0
DA:404,0
DA:405,0
DA:406,0
DA:407,0
DA:408,0
DA:409,0
DA:410,0
DA:411,0
DA:412,0
DA:413,0
DA:414,0
DA:415,0
DA:416,0
DA:417,0
DA:419,0
DA:421,0
DA:443,0
DA:444,0
DA:445,0
DA:446,0
DA:447,0
DA:448,0
DA:449,0
DA:450,0
DA:451,0
DA:452,0
DA:453,0
DA:454,0
DA:455,0
DA:456,0
DA:457,0
DA:458,0
DA:459,0
DA:461,0
DA:462,0
DA:463,0
DA:464,0
DA:465,0
DA:466,0
DA:467,0
DA:469,0
DA:470,0
DA:471,0
DA:472,0
DA:474,0
DA:475,0
DA:476,0
DA:477,0
DA:479,0
DA:480,0
DA:481,0
DA:482,0
DA:483,0
DA:484,0
DA:485,0
DA:487,0
DA:488,0
DA:489,0
DA:490,0
DA:491,0
DA:492,0
DA:493,0
DA:495,0
DA:496,0
DA:497,0
DA:498,0
DA:499,0
DA:500,0
DA:501,0
DA:503,0
DA:504,0
DA:505,0
DA:506,0
DA:508,0
DA:509,0
DA:510,0
DA:511,0
DA:513,0
DA:514,0
DA:515,0
DA:516,0
DA:517,0
DA:518,0
DA:519,0
DA:521,0
DA:522,0
DA:523,0
DA:524,0
DA:527,0
DA:528,0
DA:529,0
DA:530,0
DA:531,0
DA:532,0
DA:533,0
DA:534,0
DA:535,0
DA:536,0
DA:537,0
DA:543,0
DA:544,0
DA:545,0
DA:546,0
DA:547,0
DA:548,0
DA:549,0
DA:550,0
DA:551,0
DA:552,0
DA:553,0
DA:554,0
DA:555,0
DA:557,0
DA:558,0
DA:559,0
DA:562,0
DA:563,0
DA:564,0
DA:565,0
DA:566,0
DA:567,0
DA:568,0
DA:569,0
DA:570,0
DA:571,0
DA:572,0
DA:573,0
DA:574,0
DA:575,0
DA:576,0
DA:577,0
DA:578,0
DA:579,0
DA:580,0
DA:581,0
DA:582,0
DA:583,0
DA:584,0
DA:585,0
DA:586,0
DA:587,0
DA:588,0
DA:589,0
DA:590,0
DA:591,0
DA:592,0
DA:593,0
DA:594,0
DA:595,0
DA:596,0
DA:597,0
DA:598,0
DA:599,0
DA:600,0
DA:601,0
DA:602,0
DA:603,0
DA:604,0
BRF:0
BRH:0
LF:419
LH:0
end_of_record
SF:/Users/coach/Documents/Jito/restaking/clients/rust/restaking_client/src/generated/instructions/initialize_ncn_vault_ticket.rs
FN:27,_RNvMNtNtNtCs7b1zZ6GD7vQ_21jito_restaking_client9generated12instructions27initialize_ncn_vault_ticketNtB2_24InitializeNcnVaultTicket11instruction
FN:31,_RNvMNtNtNtCs7b1zZ6GD7vQ_21jito_restaking_client9generated12instructions27initialize_ncn_vault_ticketNtB2_24InitializeNcnVaultTicket35instruction_with_remaining_accounts
FN:73,_RINvXs4_NtNtNtCs7b1zZ6GD7vQ_21jito_restaking_client9generated12instructions27initialize_ncn_vault_ticketNtB6_39InitializeNcnVaultTicketInstructionDataNtNtCs7MwDlaQ6RmC_5borsh2de16BorshDeserialize18deserialize_readerpEBc_
FN:73,_RINvXs5_NtNtNtCs7b1zZ6GD7vQ_21jito_restaking_client9generated12instructions27initialize_ncn_vault_ticketNtB6_39InitializeNcnVaultTicketInstructionDataNtNtCs7MwDlaQ6RmC_5borsh3ser14BorshSerialize9serializepEBc_
FN:79,_RNvMs_NtNtNtCs7b1zZ6GD7vQ_21jito_restaking_client9generated12instructions27initialize_ncn_vault_ticketNtB4_39InitializeNcnVaultTicketInstructionData3new
FN:85,_RNvXs0_NtNtNtCs7b1zZ6GD7vQ_21jito_restaking_client9generated12instructions27initialize_ncn_vault_ticketNtB5_39InitializeNcnVaultTicketInstructionDataNtNtCs2ke5FKHNm4X_4core7default7Default7default
FN:114,_RNvMs1_NtNtNtCs7b1zZ6GD7vQ_21jito_restaking_client9generated12instructions27initialize_ncn_vault_ticketNtB5_31InitializeNcnVaultTicketBuilder3new
FN:118,_RNvMs1_NtNtNtCs7b1zZ6GD7vQ_21jito_restaking_client9generated12instructions27initialize_ncn_vault_ticketNtB5_31InitializeNcnVaultTicketBuilder6config
FN:123,_RNvMs1_NtNtNtCs7b1zZ6GD7vQ_21jito_restaking_client9generated12instructions27initialize_ncn_vault_ticketNtB5_31InitializeNcnVaultTicketBuilder3ncn
FN:128,_RNvMs1_NtNtNtCs7b1zZ6GD7vQ_21jito_restaking_client9generated12instructions27initialize_ncn_vault_ticketNtB5_31InitializeNcnVaultTicketBuilder5vault
FN:133,_RNvMs1_NtNtNtCs7b1zZ6GD7vQ_21jito_restaking_client9generated12instructions27initialize_ncn_vault_ticketNtB5_31InitializeNcnVaultTicketBuilder16ncn_vault_ticket
FN:141,_RNvMs1_NtNtNtCs7b1zZ6GD7vQ_21jito_restaking_client9generated12instructions27initialize_ncn_vault_ticketNtB5_31InitializeNcnVaultTicketBuilder5admin
FN:146,_RNvMs1_NtNtNtCs7b1zZ6GD7vQ_21jito_restaking_client9generated12instructions27initialize_ncn_vault_ticketNtB5_31InitializeNcnVaultTicketBuilder5payer
FN:152,_RNvMs1_NtNtNtCs7b1zZ6GD7vQ_21jito_restaking_client9generated12instructions27initialize_ncn_vault_ticketNtB5_31InitializeNcnVaultTicketBuilder14system_program
FN:158,_RNvMs1_NtNtNtCs7b1zZ6GD7vQ_21jito_restaking_client9generated12instructions27initialize_ncn_vault_ticketNtB5_31InitializeNcnVaultTicketBuilder21add_remaining_account
FN:167,_RNvMs1_NtNtNtCs7b1zZ6GD7vQ_21jito_restaking_client9generated12instructions27initialize_ncn_vault_ticketNtB5_31InitializeNcnVaultTicketBuilder22add_remaining_accounts
FN:175,_RNvMs1_NtNtNtCs7b1zZ6GD7vQ_21jito_restaking_client9generated12instructions27initialize_ncn_vault_ticketNtB5_31InitializeNcnVaultTicketBuilder11instruction
FN:230,_RNvMs2_NtNtNtCs7b1zZ6GD7vQ_21jito_restaking_client9generated12instructions27initialize_ncn_vault_ticketNtB5_27InitializeNcnVaultTicketCpi3new
FN:246,_RNvMs2_NtNtNtCs7b1zZ6GD7vQ_21jito_restaking_client9generated12instructions27initialize_ncn_vault_ticketNtB5_27InitializeNcnVaultTicketCpi6invoke
FN:250,_RNvMs2_NtNtNtCs7b1zZ6GD7vQ_21jito_restaking_client9generated12instructions27initialize_ncn_vault_ticketNtB5_27InitializeNcnVaultTicketCpi30invoke_with_remaining_accounts
FN:261,_RNvMs2_NtNtNtCs7b1zZ6GD7vQ_21jito_restaking_client9generated12instructions27initialize_ncn_vault_ticketNtB5_27InitializeNcnVaultTicketCpi13invoke_signed
FN:269,_RNvMs2_NtNtNtCs7b1zZ6GD7vQ_21jito_restaking_client9generated12instructions27initialize_ncn_vault_ticketNtB5_27InitializeNcnVaultTicketCpi37invoke_signed_with_remaining_accounts
FN:307,_RNCNvMs2_NtNtNtCs7b1zZ6GD7vQ_21jito_restaking_client9generated12instructions27initialize_ncn_vault_ticketNtB7_27InitializeNcnVaultTicketCpi37invoke_signed_with_remaining_accounts0Bd_
FN:334,_RNCNvMs2_NtNtNtCs7b1zZ6GD7vQ_21jito_restaking_client9generated12instructions27initialize_ncn_vault_ticketNtB7_27InitializeNcnVaultTicketCpi37invoke_signed_with_remaining_accountss_0Bd_
FN:361,_RNvMs3_NtNtNtCs7b1zZ6GD7vQ_21jito_restaking_client9generated12instructions27initialize_ncn_vault_ticketNtB5_34InitializeNcnVaultTicketCpiBuilder3new
FN:376,_RNvMs3_NtNtNtCs7b1zZ6GD7vQ_21jito_restaking_client9generated12instructions27initialize_ncn_vault_ticketNtB5_34InitializeNcnVaultTicketCpiBuilder6config
FN:384,_RNvMs3_NtNtNtCs7b1zZ6GD7vQ_21jito_restaking_client9generated12instructions27initialize_ncn_vault_ticketNtB5_34InitializeNcnVaultTicketCpiBuilder3ncn
FN:389,_RNvMs3_NtNtNtCs7b1zZ6GD7vQ_21jito_restaking_client9generated12instructions27initialize_ncn_vault_ticketNtB5_34InitializeNcnVaultTicketCpiBuilder5vault
FN:394,_RNvMs3_NtNtNtCs7b1zZ6GD7vQ_21jito_restaking_client9generated12instructions27initialize_ncn_vault_ticketNtB5_34InitializeNcnVaultTicketCpiBuilder16ncn_vault_ticket
FN:402,_RNvMs3_NtNtNtCs7b1zZ6GD7vQ_21jito_restaking_client9generated12instructions27initialize_ncn_vault_ticketNtB5_34InitializeNcnVaultTicketCpiBuilder5admin
FN:407,_RNvMs3_NtNtNtCs7b1zZ6GD7vQ_21jito_restaking_client9generated12instructions27initialize_ncn_vault_ticketNtB5_34InitializeNcnVaultTicketCpiBuilder5payer
FN:412,_RNvMs3_NtNtNtCs7b1zZ6GD7vQ_21jito_restaking_client9generated12instructions27initialize_ncn_vault_ticketNtB5_34InitializeNcnVaultTicketCpiBuilder14system_program
FN:421,_RNvMs3_NtNtNtCs7b1zZ6GD7vQ_21jito_restaking_client9generated12instructions27initialize_ncn_vault_ticketNtB5_34InitializeNcnVaultTicketCpiBuilder21add_remaining_account
FN:437,_RNvMs3_NtNtNtCs7b1zZ6GD7vQ_21jito_restaking_client9generated12instructions27initialize_ncn_vault_ticketNtB5_34InitializeNcnVaultTicketCpiBuilder22add_remaining_accounts
FN:451,_RNvMs3_NtNtNtCs7b1zZ6GD7vQ_21jito_restaking_client9generated12instructions27initialize_ncn_vault_ticketNtB5_34InitializeNcnVaultTicketCpiBuilder6invoke
FN:456,_RNvMs3_NtNtNtCs7b1zZ6GD7vQ_21jito_restaking_client9generated12instructions27initialize_ncn_vault_ticketNtB5_34InitializeNcnVaultTicketCpiBuilder13invoke_signed
FNDA:0,_RNvMNtNtNtCs7b1zZ6GD7vQ_21jito_restaking_client9generated12instructions27initialize_ncn_vault_ticketNtB2_24InitializeNcnVaultTicket11instruction
FNDA:0,_RNvMNtNtNtCs7b1zZ6GD7vQ_21jito_restaking_client9generated12instructions27initialize_ncn_vault_ticketNtB2_24InitializeNcnVaultTicket35instruction_with_remaining_accounts
FNDA:0,_RINvXs4_NtNtNtCs7b1zZ6GD7vQ_21jito_restaking_client9generated12instructions27initialize_ncn_vault_ticketNtB6_39InitializeNcnVaultTicketInstructionDataNtNtCs7MwDlaQ6RmC_5borsh2de16BorshDeserialize18deserialize_readerpEBc_
FNDA:0,_RINvXs5_NtNtNtCs7b1zZ6GD7vQ_21jito_restaking_client9generated12instructions27initialize_ncn_vault_ticketNtB6_39InitializeNcnVaultTicketInstructionDataNtNtCs7MwDlaQ6RmC_5borsh3ser14BorshSerialize9serializepEBc_
FNDA:0,_RNvMs_NtNtNtCs7b1zZ6GD7vQ_21jito_restaking_client9generated12instructions27initialize_ncn_vault_ticketNtB4_39InitializeNcnVaultTicketInstructionData3new
FNDA:0,_RNvXs0_NtNtNtCs7b1zZ6GD7vQ_21jito_restaking_client9generated12instructions27initialize_ncn_vault_ticketNtB5_39InitializeNcnVaultTicketInstructionDataNtNtCs2ke5FKHNm4X_4core7default7Default7default
FNDA:0,_RNvMs1_NtNtNtCs7b1zZ6GD7vQ_21jito_restaking_client9generated12instructions27initialize_ncn_vault_ticketNtB5_31InitializeNcnVaultTicketBuilder3new
FNDA:0,_RNvMs1_NtNtNtCs7b1zZ6GD7vQ_21jito_restaking_client9generated12instructions27initialize_ncn_vault_ticketNtB5_31InitializeNcnVaultTicketBuilder6config
FNDA:0,_RNvMs1_NtNtNtCs7b1zZ6GD7vQ_21jito_restaking_client9generated12instructions27initialize_ncn_vault_ticketNtB5_31InitializeNcnVaultTicketBuilder3ncn
FNDA:0,_RNvMs1_NtNtNtCs7b1zZ6GD7vQ_21jito_restaking_client9generated12instructions27initialize_ncn_vault_ticketNtB5_31InitializeNcnVaultTicketBuilder5vault
FNDA:0,_RNvMs1_NtNtNtCs7b1zZ6GD7vQ_21jito_restaking_client9generated12instructions27initialize_ncn_vault_ticketNtB5_31InitializeNcnVaultTicketBuilder16ncn_vault_ticket
FNDA:0,_RNvMs1_NtNtNtCs7b1zZ6GD7vQ_21jito_restaking_client9generated12instructions27initialize_ncn_vault_ticketNtB5_31InitializeNcnVaultTicketBuilder5admin
FNDA:0,_RNvMs1_NtNtNtCs7b1zZ6GD7vQ_21jito_restaking_client9generated12instructions27initialize_ncn_vault_ticketNtB5_31InitializeNcnVaultTicketBuilder5payer
FNDA:0,_RNvMs1_NtNtNtCs7b1zZ6GD7vQ_21jito_restaking_client9generated12instructions27initialize_ncn_vault_ticketNtB5_31InitializeNcnVaultTicketBuilder14system_program
FNDA:0,_RNvMs1_NtNtNtCs7b1zZ6GD7vQ_21jito_restaking_client9generated12instructions27initialize_ncn_vault_ticketNtB5_31InitializeNcnVaultTicketBuilder21add_remaining_account
FNDA:0,_RNvMs1_NtNtNtCs7b1zZ6GD7vQ_21jito_restaking_client9generated12instructions27initialize_ncn_vault_ticketNtB5_31InitializeNcnVaultTicketBuilder22add_remaining_accounts
FNDA:0,_RNvMs1_NtNtNtCs7b1zZ6GD7vQ_21jito_restaking_client9generated12instructions27initialize_ncn_vault_ticketNtB5_31InitializeNcnVaultTicketBuilder11instruction
FNDA:0,_RNvMs2_NtNtNtCs7b1zZ6GD7vQ_21jito_restaking_client9generated12instructions27initialize_ncn_vault_ticketNtB5_27InitializeNcnVaultTicketCpi3new
FNDA:0,_RNvMs2_NtNtNtCs7b1zZ6GD7vQ_21jito_restaking_client9generated12instructions27initialize_ncn_vault_ticketNtB5_27InitializeNcnVaultTicketCpi6invoke
FNDA:0,_RNvMs2_NtNtNtCs7b1zZ6GD7vQ_21jito_restaking_client9generated12instructions27initialize_ncn_vault_ticketNtB5_27InitializeNcnVaultTicketCpi30invoke_with_remaining_accounts
FNDA:0,_RNvMs2_NtNtNtCs7b1zZ6GD7vQ_21jito_restaking_client9generated12instructions27initialize_ncn_vault_ticketNtB5_27InitializeNcnVaultTicketCpi13invoke_signed
FNDA:0,_RNvMs2_NtNtNtCs7b1zZ6GD7vQ_21jito_restaking_client9generated12instructions27initialize_ncn_vault_ticketNtB5_27InitializeNcnVaultTicketCpi37invoke_signed_with_remaining_accounts
FNDA:0,_RNCNvMs2_NtNtNtCs7b1zZ6GD7vQ_21jito_restaking_client9generated12instructions27initialize_ncn_vault_ticketNtB7_27InitializeNcnVaultTicketCpi37invoke_signed_with_remaining_accounts0Bd_
FNDA:0,_RNCNvMs2_NtNtNtCs7b1zZ6GD7vQ_21jito_restaking_client9generated12instructions27initialize_ncn_vault_ticketNtB7_27InitializeNcnVaultTicketCpi37invoke_signed_with_remaining_accountss_0Bd_
FNDA:0,_RNvMs3_NtNtNtCs7b1zZ6GD7vQ_21jito_restaking_client9generated12instructions27initialize_ncn_vault_ticketNtB5_34InitializeNcnVaultTicketCpiBuilder3new
FNDA:0,_RNvMs3_NtNtNtCs7b1zZ6GD7vQ_21jito_restaking_client9generated12instructions27initialize_ncn_vault_ticketNtB5_34InitializeNcnVaultTicketCpiBuilder6config
FNDA:0,_RNvMs3_NtNtNtCs7b1zZ6GD7vQ_21jito_restaking_client9generated12instructions27initialize_ncn_vault_ticketNtB5_34InitializeNcnVaultTicketCpiBuilder3ncn
FNDA:0,_RNvMs3_NtNtNtCs7b1zZ6GD7vQ_21jito_restaking_client9generated12instructions27initialize_ncn_vault_ticketNtB5_34InitializeNcnVaultTicketCpiBuilder5vault
FNDA:0,_RNvMs3_NtNtNtCs7b1zZ6GD7vQ_21jito_restaking_client9generated12instructions27initialize_ncn_vault_ticketNtB5_34InitializeNcnVaultTicketCpiBuilder16ncn_vault_ticket
FNDA:0,_RNvMs3_NtNtNtCs7b1zZ6GD7vQ_21jito_restaking_client9generated12instructions27initialize_ncn_vault_ticketNtB5_34InitializeNcnVaultTicketCpiBuilder5admin
FNDA:0,_RNvMs3_NtNtNtCs7b1zZ6GD7vQ_21jito_restaking_client9generated12instructions27initialize_ncn_vault_ticketNtB5_34InitializeNcnVaultTicketCpiBuilder5payer
FNDA:0,_RNvMs3_NtNtNtCs7b1zZ6GD7vQ_21jito_restaking_client9generated12instructions27initialize_ncn_vault_ticketNtB5_34InitializeNcnVaultTicketCpiBuilder14system_program
FNDA:0,_RNvMs3_NtNtNtCs7b1zZ6GD7vQ_21jito_restaking_client9generated12instructions27initialize_ncn_vault_ticketNtB5_34InitializeNcnVaultTicketCpiBuilder21add_remaining_account
FNDA:0,_RNvMs3_NtNtNtCs7b1zZ6GD7vQ_21jito_restaking_client9generated12instructions27initialize_ncn_vault_ticketNtB5_34InitializeNcnVaultTicketCpiBuilder22add_remaining_accounts
FNDA:0,_RNvMs3_NtNtNtCs7b1zZ6GD7vQ_21jito_restaking_client9generated12instructions27initialize_ncn_vault_ticketNtB5_34InitializeNcnVaultTicketCpiBuilder6invoke
FNDA:0,_RNvMs3_NtNtNtCs7b1zZ6GD7vQ_21jito_restaking_client9generated12instructions27initialize_ncn_vault_ticketNtB5_34InitializeNcnVaultTicketCpiBuilder13invoke_signed
FNF:36
FNH:0
DA:27,0
DA:28,0
DA:29,0
DA:31,0
DA:32,0
DA:33,0
DA:34,0
DA:35,0
DA:36,0
DA:37,0
DA:38,0
DA:39,0
DA:40,0
DA:41,0
DA:42,0
DA:43,0
DA:44,0
DA:45,0
DA:46,0
DA:47,0
DA:48,0
DA:49,0
DA:50,0
DA:51,0
DA:52,0
DA:53,0
DA:54,0
DA:55,0
DA:56,0
DA:57,0
DA:58,0
DA:59,0
DA:60,0
DA:61,0
DA:62,0
DA:63,0
DA:64,0
DA:65,0
DA:66,0
DA:67,0
DA:68,0
DA:69,0
DA:70,0
DA:73,0
DA:79,0
DA:80,0
DA:81,0
DA:85,0
DA:86,0
DA:87,0
DA:114,0
DA:115,0
DA:116,0
DA:118,0
DA:119,0
DA:120,0
DA:121,0
DA:123,0
DA:124,0
DA:125,0
DA:126,0
DA:128,0
DA:129,0
DA:130,0
DA:131,0
DA:133,0
DA:134,0
DA:135,0
DA:136,0
DA:137,0
DA:138,0
DA:139,0
DA:141,0
DA:142,0
DA:143,0
DA:144,0
DA:146,0
DA:147,0
DA:148,0
DA:149,0
DA:152,0
DA:153,0
DA:154,0
DA:155,0
DA:158,0
DA:159,0
DA:160,0
DA:161,0
DA:162,0
DA:163,0
DA:164,0
DA:167,0
DA:168,0
DA:169,0
DA:170,0
DA:171,0
DA:172,0
DA:173,0
DA:175,0
DA:176,0
DA:177,0
DA:178,0
DA:179,0
DA:180,0
DA:181,0
DA:182,0
DA:183,0
DA:184,0
DA:185,0
DA:186,0
DA:187,0
DA:188,0
DA:189,0
DA:230,0
DA:231,0
DA:232,0
DA:233,0
DA:234,0
DA:235,0
DA:236,0
DA:237,0
DA:238,0
DA:239,0
DA:240,0
DA:241,0
DA:242,0
DA:243,0
DA:244,0
DA:246,0
DA:247,0
DA:248,0
DA:250,0
DA:251,0
DA:252,0
DA:253,0
DA:254,0
DA:255,0
DA:256,0
DA:257,0
DA:258,0
DA:259,0
DA:261,0
DA:262,0
DA:263,0
DA:264,0
DA:265,0
DA:266,0
DA:269,0
DA:270,0
DA:271,0
DA:272,0
DA:273,0
DA:274,0
DA:275,0
DA:276,0
DA:277,0
DA:278,0
DA:279,0
DA:280,0
DA:281,0
DA:282,0
DA:283,0
DA:284,0
DA:285,0
DA:286,0
DA:287,0
DA:288,0
DA:289,0
DA:290,0
DA:291,0
DA:292,0
DA:293,0
DA:294,0
DA:295,0
DA:296,0
DA:297,0
DA:298,0
DA:299,0
DA:300,0
DA:301,0
DA:302,0
DA:303,0
DA:304,0
DA:305,0
DA:306,0
DA:307,0
DA:308,0
DA:309,0
DA:310,0
DA:311,0
DA:312,0
DA:313,0
DA:314,0
DA:315,0
DA:316,0
DA:317,0
DA:318,0
DA:319,0
DA:320,0
DA:321,0
DA:322,0
DA:323,0
DA:324,0
DA:325,0
DA:326,0
DA:327,0
DA:328,0
DA:329,0
DA:330,0
DA:331,0
DA:332,0
DA:333,0
DA:334,0
DA:335,0
DA:336,0
DA:337,0
DA:339,0
DA:341,0
DA:361,0
DA:362,0
DA:363,0
DA:364,0
DA:365,0
DA:366,0
DA:367,0
DA:368,0
DA:369,0
DA:370,0
DA:371,0
DA:372,0
DA:373,0
DA:374,0
DA:376,0
DA:377,0
DA:378,0
DA:379,0
DA:380,0
DA:381,0
DA:382,0
DA:384,0
DA:385,0
DA:386,0
DA:387,0
DA:389,0
DA:390,0
DA:391,0
DA:392,0
DA:394,0
DA:395,0
DA:396,0
DA:397,0
DA:398,0
DA:399,0
DA:400,0
DA:402,0
DA:403,0
DA:404,0
DA:405,0
DA:407,0
DA:408,0
DA:409,0
DA:410,0
DA:412,0
DA:413,0
DA:414,0
DA:415,0
DA:416,0
DA:417,0
DA:418,0
DA:421,0
DA:422,0
DA:423,0
DA:424,0
DA:425,0
DA:426,0
DA:427,0
DA:428,0
DA:429,0
DA:430,0
DA:431,0
DA:437,0
DA:438,0
DA:439,0
DA:440,0
DA:441,0
DA:442,0
DA:443,0
DA:444,0
DA:445,0
DA:446,0
DA:447,0
DA:448,0
DA:449,0
DA:451,0
DA:452,0
DA:453,0
DA:456,0
DA:457,0
DA:458,0
DA:459,0
DA:460,0
DA:461,0
DA:462,0
DA:463,0
DA:464,0
DA:465,0
DA:466,0
DA:467,0
DA:468,0
DA:469,0
DA:470,0
DA:471,0
DA:472,0
DA:473,0
DA:474,0
DA:475,0
DA:476,0
DA:477,0
DA:478,0
DA:479,0
DA:480,0
DA:481,0
DA:482,0
DA:483,0
DA:484,0
DA:485,0
DA:486,0
DA:487,0
BRF:0
BRH:0
LF:332
LH:0
end_of_record
SF:/Users/coach/Documents/Jito/restaking/clients/rust/restaking_client/src/generated/instructions/initialize_operator.rs
FN:23,_RNvMNtNtNtCs7b1zZ6GD7vQ_21jito_restaking_client9generated12instructions19initialize_operatorNtB2_18InitializeOperator11instruction
FN:30,_RNvMNtNtNtCs7b1zZ6GD7vQ_21jito_restaking_client9generated12instructions19initialize_operatorNtB2_18InitializeOperator35instruction_with_remaining_accounts
FN:69,_RINvXs4_NtNtNtCs7b1zZ6GD7vQ_21jito_restaking_client9generated12instructions19initialize_operatorNtB6_33InitializeOperatorInstructionDataNtNtCs7MwDlaQ6RmC_5borsh2de16BorshDeserialize18deserialize_readerpEBc_
FN:69,_RINvXs5_NtNtNtCs7b1zZ6GD7vQ_21jito_restaking_client9generated12instructions19initialize_operatorNtB6_33InitializeOperatorInstructionDataNtNtCs7MwDlaQ6RmC_5borsh3ser14BorshSerialize9serializepEBc_
FN:75,_RNvMs_NtNtNtCs7b1zZ6GD7vQ_21jito_restaking_client9generated12instructions19initialize_operatorNtB4_33InitializeOperatorInstructionData3new
FN:81,_RNvXs0_NtNtNtCs7b1zZ6GD7vQ_21jito_restaking_client9generated12instructions19initialize_operatorNtB5_33InitializeOperatorInstructionDataNtNtCs2ke5FKHNm4X_4core7default7Default7default
FN:87,_RNvXNvXNvNtNtNtCs7b1zZ6GD7vQ_21jito_restaking_client9generated12instructions19initialize_operators_1__NtB7_33InitializeOperatorInstructionArgsNtNtCsdCf1W31ya0G_5serde2de11Deserialize11deserializeNtB2_14___FieldVisitorNtB2i_7Visitor9expecting
FN:87,_RINvXNvXNvNtNtNtCs7b1zZ6GD7vQ_21jito_restaking_client9generated12instructions19initialize_operators_1__NtB8_33InitializeOperatorInstructionArgsNtNtCsdCf1W31ya0G_5serde2de11Deserialize11deserializeNtB3_14___FieldVisitorNtB2j_7Visitor9visit_u64pEBe_
FN:87,_RINvXNvXNvNtNtNtCs7b1zZ6GD7vQ_21jito_restaking_client9generated12instructions19initialize_operators_1__NtB8_33InitializeOperatorInstructionArgsNtNtCsdCf1W31ya0G_5serde2de11Deserialize11deserializeNtB3_14___FieldVisitorNtB2j_7Visitor9visit_strpEBe_
FN:87,_RINvXNvXNvNtNtNtCs7b1zZ6GD7vQ_21jito_restaking_client9generated12instructions19initialize_operators_1__NtB8_33InitializeOperatorInstructionArgsNtNtCsdCf1W31ya0G_5serde2de11Deserialize11deserializeNtB3_14___FieldVisitorNtB2j_7Visitor11visit_bytespEBe_
FN:87,_RINvXs_NvXNvNtNtNtCs7b1zZ6GD7vQ_21jito_restaking_client9generated12instructions19initialize_operators_1__NtBa_33InitializeOperatorInstructionArgsNtNtCsdCf1W31ya0G_5serde2de11Deserialize11deserializeNtB5_7___FieldB2j_11deserializepEBg_
FN:87,_RNvXs0_NvXNvNtNtNtCs7b1zZ6GD7vQ_21jito_restaking_client9generated12instructions19initialize_operators_1__NtBa_33InitializeOperatorInstructionArgsNtNtCsdCf1W31ya0G_5serde2de11Deserialize11deserializeNtB5_9___VisitorNtB2l_7Visitor9expecting
FN:87,_RINvXs0_NvXNvNtNtNtCs7b1zZ6GD7vQ_21jito_restaking_client9generated12instructions19initialize_operators_1__NtBb_33InitializeOperatorInstructionArgsNtNtCsdCf1W31ya0G_5serde2de11Deserialize11deserializeNtB6_9___VisitorNtB2m_7Visitor9visit_seqpEBh_
FN:87,_RINvXs0_NvXNvNtNtNtCs7b1zZ6GD7vQ_21jito_restaking_client9generated12instructions19initialize_operators_1__NtBb_33InitializeOperatorInstructionArgsNtNtCsdCf1W31ya0G_5serde2de11Deserialize11deserializeNtB6_9___VisitorNtB2m_7Visitor9visit_mappEBh_
FN:86,_RINvXs6_NtNtNtCs7b1zZ6GD7vQ_21jito_restaking_client9generated12instructions19initialize_operatorNtB6_33InitializeOperatorInstructionArgsNtNtCs7MwDlaQ6RmC_5borsh3ser14BorshSerialize9serializepEBc_
FN:86,_RINvXs7_NtNtNtCs7b1zZ6GD7vQ_21jito_restaking_client9generated12instructions19initialize_operatorNtB6_33InitializeOperatorInstructionArgsNtNtCs7MwDlaQ6RmC_5borsh2de16BorshDeserialize18deserialize_readerpEBc_
FN:113,_RNvMs1_NtNtNtCs7b1zZ6GD7vQ_21jito_restaking_client9generated12instructions19initialize_operatorNtB5_25InitializeOperatorBuilder3new
FN:117,_RNvMs1_NtNtNtCs7b1zZ6GD7vQ_21jito_restaking_client9generated12instructions19initialize_operatorNtB5_25InitializeOperatorBuilder6config
FN:122,_RNvMs1_NtNtNtCs7b1zZ6GD7vQ_21jito_restaking_client9generated12instructions19initialize_operatorNtB5_25InitializeOperatorBuilder8operator
FN:127,_RNvMs1_NtNtNtCs7b1zZ6GD7vQ_21jito_restaking_client9generated12instructions19initialize_operatorNtB5_25InitializeOperatorBuilder5admin
FN:132,_RNvMs1_NtNtNtCs7b1zZ6GD7vQ_21jito_restaking_client9generated12instructions19initialize_operatorNtB5_25InitializeOperatorBuilder4base
FN:138,_RNvMs1_NtNtNtCs7b1zZ6GD7vQ_21jito_restaking_client9generated12instructions19initialize_operatorNtB5_25InitializeOperatorBuilder14system_program
FN:143,_RNvMs1_NtNtNtCs7b1zZ6GD7vQ_21jito_restaking_client9generated12instructions19initialize_operatorNtB5_25InitializeOperatorBuilder16operator_fee_bps
FN:149,_RNvMs1_NtNtNtCs7b1zZ6GD7vQ_21jito_restaking_client9generated12instructions19initialize_operatorNtB5_25InitializeOperatorBuilder21add_remaining_account
FN:158,_RNvMs1_NtNtNtCs7b1zZ6GD7vQ_21jito_restaking_client9generated12instructions19initialize_operatorNtB5_25InitializeOperatorBuilder22add_remaining_accounts
FN:166,_RNvMs1_NtNtNtCs7b1zZ6GD7vQ_21jito_restaking_client9generated12instructions19initialize_operatorNtB5_25InitializeOperatorBuilder11instruction
FN:219,_RNvMs2_NtNtNtCs7b1zZ6GD7vQ_21jito_restaking_client9generated12instructions19initialize_operatorNtB5_21InitializeOperatorCpi3new
FN:235,_RNvMs2_NtNtNtCs7b1zZ6GD7vQ_21jito_restaking_client9generated12instructions19initialize_operatorNtB5_21InitializeOperatorCpi6invoke
FN:239,_RNvMs2_NtNtNtCs7b1zZ6GD7vQ_21jito_restaking_client9generated12instructions19initialize_operatorNtB5_21InitializeOperatorCpi30invoke_with_remaining_accounts
FN:250,_RNvMs2_NtNtNtCs7b1zZ6GD7vQ_21jito_restaking_client9generated12instructions19initialize_operatorNtB5_21InitializeOperatorCpi13invoke_signed
FN:258,_RNvMs2_NtNtNtCs7b1zZ6GD7vQ_21jito_restaking_client9generated12instructions19initialize_operatorNtB5_21InitializeOperatorCpi37invoke_signed_with_remaining_accounts
FN:288,_RNCNvMs2_NtNtNtCs7b1zZ6GD7vQ_21jito_restaking_client9generated12instructions19initialize_operatorNtB7_21InitializeOperatorCpi37invoke_signed_with_remaining_accounts0Bd_
FN:315,_RNCNvMs2_NtNtNtCs7b1zZ6GD7vQ_21jito_restaking_client9generated12instructions19initialize_operatorNtB7_21InitializeOperatorCpi37invoke_signed_with_remaining_accountss_0Bd_
FN:340,_RNvMs3_NtNtNtCs7b1zZ6GD7vQ_21jito_restaking_client9generated12instructions19initialize_operatorNtB5_28InitializeOperatorCpiBuilder3new
FN:354,_RNvMs3_NtNtNtCs7b1zZ6GD7vQ_21jito_restaking_client9generated12instructions19initialize_operatorNtB5_28InitializeOperatorCpiBuilder6config
FN:362,_RNvMs3_NtNtNtCs7b1zZ6GD7vQ_21jito_restaking_client9generated12instructions19initialize_operatorNtB5_28InitializeOperatorCpiBuilder8operator
FN:370,_RNvMs3_NtNtNtCs7b1zZ6GD7vQ_21jito_restaking_client9generated12instructions19initialize_operatorNtB5_28InitializeOperatorCpiBuilder5admin
FN:375,_RNvMs3_NtNtNtCs7b1zZ6GD7vQ_21jito_restaking_client9generated12instructions19initialize_operatorNtB5_28InitializeOperatorCpiBuilder4base
FN:380,_RNvMs3_NtNtNtCs7b1zZ6GD7vQ_21jito_restaking_client9generated12instructions19initialize_operatorNtB5_28InitializeOperatorCpiBuilder14system_program
FN:388,_RNvMs3_NtNtNtCs7b1zZ6GD7vQ_21jito_restaking_client9generated12instructions19initialize_operatorNtB5_28InitializeOperatorCpiBuilder16operator_fee_bps
FN:394,_RNvMs3_NtNtNtCs7b1zZ6GD7vQ_21jito_restaking_client9generated12instructions19initialize_operatorNtB5_28InitializeOperatorCpiBuilder21add_remaining_account
FN:410,_RNvMs3_NtNtNtCs7b1zZ6GD7vQ_21jito_restaking_client9generated12instructions19initialize_operatorNtB5_28InitializeOperatorCpiBuilder22add_remaining_accounts
FN:424,_RNvMs3_NtNtNtCs7b1zZ6GD7vQ_21jito_restaking_client9generated12instructions19initialize_operatorNtB5_28InitializeOperatorCpiBuilder6invoke
FN:429,_RNvMs3_NtNtNtCs7b1zZ6GD7vQ_21jito_restaking_client9generated12instructions19initialize_operatorNtB5_28InitializeOperatorCpiBuilder13invoke_signed
FNDA:0,_RNvMNtNtNtCs7b1zZ6GD7vQ_21jito_restaking_client9generated12instructions19initialize_operatorNtB2_18InitializeOperator11instruction
FNDA:0,_RNvMNtNtNtCs7b1zZ6GD7vQ_21jito_restaking_client9generated12instructions19initialize_operatorNtB2_18InitializeOperator35instruction_with_remaining_accounts
FNDA:0,_RINvXs4_NtNtNtCs7b1zZ6GD7vQ_21jito_restaking_client9generated12instructions19initialize_operatorNtB6_33InitializeOperatorInstructionDataNtNtCs7MwDlaQ6RmC_5borsh2de16BorshDeserialize18deserialize_readerpEBc_
FNDA:0,_RINvXs5_NtNtNtCs7b1zZ6GD7vQ_21jito_restaking_client9generated12instructions19initialize_operatorNtB6_33InitializeOperatorInstructionDataNtNtCs7MwDlaQ6RmC_5borsh3ser14BorshSerialize9serializepEBc_
FNDA:0,_RNvMs_NtNtNtCs7b1zZ6GD7vQ_21jito_restaking_client9generated12instructions19initialize_operatorNtB4_33InitializeOperatorInstructionData3new
FNDA:0,_RNvXs0_NtNtNtCs7b1zZ6GD7vQ_21jito_restaking_client9generated12instructions19initialize_operatorNtB5_33InitializeOperatorInstructionDataNtNtCs2ke5FKHNm4X_4core7default7Default7default
FNDA:0,_RNvXNvXNvNtNtNtCs7b1zZ6GD7vQ_21jito_restaking_client9generated12instructions19initialize_operators_1__NtB7_33InitializeOperatorInstructionArgsNtNtCsdCf1W31ya0G_5serde2de11Deserialize11deserializeNtB2_14___FieldVisitorNtB2i_7Visitor9expecting
FNDA:0,_RINvXNvXNvNtNtNtCs7b1zZ6GD7vQ_21jito_restaking_client9generated12instructions19initialize_operators_1__NtB8_33InitializeOperatorInstructionArgsNtNtCsdCf1W31ya0G_5serde2de11Deserialize11deserializeNtB3_14___FieldVisitorNtB2j_7Visitor9visit_u64pEBe_
FNDA:0,_RINvXNvXNvNtNtNtCs7b1zZ6GD7vQ_21jito_restaking_client9generated12instructions19initialize_operators_1__NtB8_33InitializeOperatorInstructionArgsNtNtCsdCf1W31ya0G_5serde2de11Deserialize11deserializeNtB3_14___FieldVisitorNtB2j_7Visitor9visit_strpEBe_
FNDA:0,_RINvXNvXNvNtNtNtCs7b1zZ6GD7vQ_21jito_restaking_client9generated12instructions19initialize_operators_1__NtB8_33InitializeOperatorInstructionArgsNtNtCsdCf1W31ya0G_5serde2de11Deserialize11deserializeNtB3_14___FieldVisitorNtB2j_7Visitor11visit_bytespEBe_
FNDA:0,_RINvXs_NvXNvNtNtNtCs7b1zZ6GD7vQ_21jito_restaking_client9generated12instructions19initialize_operators_1__NtBa_33InitializeOperatorInstructionArgsNtNtCsdCf1W31ya0G_5serde2de11Deserialize11deserializeNtB5_7___FieldB2j_11deserializepEBg_
FNDA:0,_RNvXs0_NvXNvNtNtNtCs7b1zZ6GD7vQ_21jito_restaking_client9generated12instructions19initialize_operators_1__NtBa_33InitializeOperatorInstructionArgsNtNtCsdCf1W31ya0G_5serde2de11Deserialize11deserializeNtB5_9___VisitorNtB2l_7Visitor9expecting
FNDA:0,_RINvXs0_NvXNvNtNtNtCs7b1zZ6GD7vQ_21jito_restaking_client9generated12instructions19initialize_operators_1__NtBb_33InitializeOperatorInstructionArgsNtNtCsdCf1W31ya0G_5serde2de11Deserialize11deserializeNtB6_9___VisitorNtB2m_7Visitor9visit_seqpEBh_
FNDA:0,_RINvXs0_NvXNvNtNtNtCs7b1zZ6GD7vQ_21jito_restaking_client9generated12instructions19initialize_operators_1__NtBb_33InitializeOperatorInstructionArgsNtNtCsdCf1W31ya0G_5serde2de11Deserialize11deserializeNtB6_9___VisitorNtB2m_7Visitor9visit_mappEBh_
FNDA:0,_RINvXs6_NtNtNtCs7b1zZ6GD7vQ_21jito_restaking_client9generated12instructions19initialize_operatorNtB6_33InitializeOperatorInstructionArgsNtNtCs7MwDlaQ6RmC_5borsh3ser14BorshSerialize9serializepEBc_
FNDA:0,_RINvXs7_NtNtNtCs7b1zZ6GD7vQ_21jito_restaking_client9generated12instructions19initialize_operatorNtB6_33InitializeOperatorInstructionArgsNtNtCs7MwDlaQ6RmC_5borsh2de16BorshDeserialize18deserialize_readerpEBc_
FNDA:0,_RNvMs1_NtNtNtCs7b1zZ6GD7vQ_21jito_restaking_client9generated12instructions19initialize_operatorNtB5_25InitializeOperatorBuilder3new
FNDA:0,_RNvMs1_NtNtNtCs7b1zZ6GD7vQ_21jito_restaking_client9generated12instructions19initialize_operatorNtB5_25InitializeOperatorBuilder6config
FNDA:0,_RNvMs1_NtNtNtCs7b1zZ6GD7vQ_21jito_restaking_client9generated12instructions19initialize_operatorNtB5_25InitializeOperatorBuilder8operator
FNDA:0,_RNvMs1_NtNtNtCs7b1zZ6GD7vQ_21jito_restaking_client9generated12instructions19initialize_operatorNtB5_25InitializeOperatorBuilder5admin
FNDA:0,_RNvMs1_NtNtNtCs7b1zZ6GD7vQ_21jito_restaking_client9generated12instructions19initialize_operatorNtB5_25InitializeOperatorBuilder4base
FNDA:0,_RNvMs1_NtNtNtCs7b1zZ6GD7vQ_21jito_restaking_client9generated12instructions19initialize_operatorNtB5_25InitializeOperatorBuilder14system_program
FNDA:0,_RNvMs1_NtNtNtCs7b1zZ6GD7vQ_21jito_restaking_client9generated12instructions19initialize_operatorNtB5_25InitializeOperatorBuilder16operator_fee_bps
FNDA:0,_RNvMs1_NtNtNtCs7b1zZ6GD7vQ_21jito_restaking_client9generated12instructions19initialize_operatorNtB5_25InitializeOperatorBuilder21add_remaining_account
FNDA:0,_RNvMs1_NtNtNtCs7b1zZ6GD7vQ_21jito_restaking_client9generated12instructions19initialize_operatorNtB5_25InitializeOperatorBuilder22add_remaining_accounts
FNDA:0,_RNvMs1_NtNtNtCs7b1zZ6GD7vQ_21jito_restaking_client9generated12instructions19initialize_operatorNtB5_25InitializeOperatorBuilder11instruction
FNDA:0,_RNvMs2_NtNtNtCs7b1zZ6GD7vQ_21jito_restaking_client9generated12instructions19initialize_operatorNtB5_21InitializeOperatorCpi3new
FNDA:0,_RNvMs2_NtNtNtCs7b1zZ6GD7vQ_21jito_restaking_client9generated12instructions19initialize_operatorNtB5_21InitializeOperatorCpi6invoke
FNDA:0,_RNvMs2_NtNtNtCs7b1zZ6GD7vQ_21jito_restaking_client9generated12instructions19initialize_operatorNtB5_21InitializeOperatorCpi30invoke_with_remaining_accounts
FNDA:0,_RNvMs2_NtNtNtCs7b1zZ6GD7vQ_21jito_restaking_client9generated12instructions19initialize_operatorNtB5_21InitializeOperatorCpi13invoke_signed
FNDA:0,_RNvMs2_NtNtNtCs7b1zZ6GD7vQ_21jito_restaking_client9generated12instructions19initialize_operatorNtB5_21InitializeOperatorCpi37invoke_signed_with_remaining_accounts
FNDA:0,_RNCNvMs2_NtNtNtCs7b1zZ6GD7vQ_21jito_restaking_client9generated12instructions19initialize_operatorNtB7_21InitializeOperatorCpi37invoke_signed_with_remaining_accounts0Bd_
FNDA:0,_RNCNvMs2_NtNtNtCs7b1zZ6GD7vQ_21jito_restaking_client9generated12instructions19initialize_operatorNtB7_21InitializeOperatorCpi37invoke_signed_with_remaining_accountss_0Bd_
FNDA:0,_RNvMs3_NtNtNtCs7b1zZ6GD7vQ_21jito_restaking_client9generated12instructions19initialize_operatorNtB5_28InitializeOperatorCpiBuilder3new
FNDA:0,_RNvMs3_NtNtNtCs7b1zZ6GD7vQ_21jito_restaking_client9generated12instructions19initialize_operatorNtB5_28InitializeOperatorCpiBuilder6config
FNDA:0,_RNvMs3_NtNtNtCs7b1zZ6GD7vQ_21jito_restaking_client9generated12instructions19initialize_operatorNtB5_28InitializeOperatorCpiBuilder8operator
FNDA:0,_RNvMs3_NtNtNtCs7b1zZ6GD7vQ_21jito_restaking_client9generated12instructions19initialize_operatorNtB5_28InitializeOperatorCpiBuilder5admin
FNDA:0,_RNvMs3_NtNtNtCs7b1zZ6GD7vQ_21jito_restaking_client9generated12instructions19initialize_operatorNtB5_28InitializeOperatorCpiBuilder4base
FNDA:0,_RNvMs3_NtNtNtCs7b1zZ6GD7vQ_21jito_restaking_client9generated12instructions19initialize_operatorNtB5_28InitializeOperatorCpiBuilder14system_program
FNDA:0,_RNvMs3_NtNtNtCs7b1zZ6GD7vQ_21jito_restaking_client9generated12instructions19initialize_operatorNtB5_28InitializeOperatorCpiBuilder16operator_fee_bps
FNDA:0,_RNvMs3_NtNtNtCs7b1zZ6GD7vQ_21jito_restaking_client9generated12instructions19initialize_operatorNtB5_28InitializeOperatorCpiBuilder21add_remaining_account
FNDA:0,_RNvMs3_NtNtNtCs7b1zZ6GD7vQ_21jito_restaking_client9generated12instructions19initialize_operatorNtB5_28InitializeOperatorCpiBuilder22add_remaining_accounts
FNDA:0,_RNvMs3_NtNtNtCs7b1zZ6GD7vQ_21jito_restaking_client9generated12instructions19initialize_operatorNtB5_28InitializeOperatorCpiBuilder6invoke
FNDA:0,_RNvMs3_NtNtNtCs7b1zZ6GD7vQ_21jito_restaking_client9generated12instructions19initialize_operatorNtB5_28InitializeOperatorCpiBuilder13invoke_signed
FNF:37
FNH:0
DA:23,0
DA:24,0
DA:25,0
DA:26,0
DA:27,0
DA:28,0
DA:30,0
DA:31,0
DA:32,0
DA:33,0
DA:34,0
DA:35,0
DA:36,0
DA:37,0
DA:38,0
DA:39,0
DA:40,0
DA:41,0
DA:42,0
DA:43,0
DA:44,0
DA:45,0
DA:46,0
DA:47,0
DA:48,0
DA:49,0
DA:50,0
DA:51,0
DA:52,0
DA:53,0
DA:54,0
DA:55,0
DA:56,0
DA:57,0
DA:58,0
DA:59,0
DA:60,0
DA:61,0
DA:62,0
DA:63,0
DA:64,0
DA:65,0
DA:66,0
DA:69,0
DA:75,0
DA:76,0
DA:77,0
DA:81,0
DA:82,0
DA:83,0
DA:86,0
DA:87,0
DA:113,0
DA:114,0
DA:115,0
DA:117,0
DA:118,0
DA:119,0
DA:120,0
DA:122,0
DA:123,0
DA:124,0
DA:125,0
DA:127,0
DA:128,0
DA:129,0
DA:130,0
DA:132,0
DA:133,0
DA:134,0
DA:135,0
DA:138,0
DA:139,0
DA:140,0
DA:141,0
DA:143,0
DA:144,0
DA:145,0
DA:146,0
DA:149,0
DA:150,0
DA:151,0
DA:152,0
DA:153,0
DA:154,0
DA:155,0
DA:158,0
DA:159,0
DA:160,0
DA:161,0
DA:162,0
DA:163,0
DA:164,0
DA:166,0
DA:167,0
DA:168,0
DA:169,0
DA:170,0
DA:171,0
DA:172,0
DA:173,0
DA:174,0
DA:175,0
DA:176,0
DA:177,0
DA:178,0
DA:179,0
DA:180,0
DA:181,0
DA:182,0
DA:183,0
DA:184,0
DA:219,0
DA:220,0
DA:221,0
DA:222,0
DA:223,0
DA:224,0
DA:225,0
DA:226,0
DA:227,0
DA:228,0
DA:229,0
DA:230,0
DA:231,0
DA:232,0
DA:233,0
DA:235,0
DA:236,0
DA:237,0
DA:239,0
DA:240,0
DA:241,0
DA:242,0
DA:243,0
DA:244,0
DA:245,0
DA:246,0
DA:247,0
DA:248,0
DA:250,0
DA:251,0
DA:252,0
DA:253,0
DA:254,0
DA:255,0
DA:258,0
DA:259,0
DA:260,0
DA:261,0
DA:262,0
DA:263,0
DA:264,0
DA:265,0
DA:266,0
DA:267,0
DA:268,0
DA:269,0
DA:270,0
DA:271,0
DA:272,0
DA:273,0
DA:274,0
DA:275,0
DA:276,0
DA:277,0
DA:278,0
DA:279,0
DA:280,0
DA:281,0
DA:282,0
DA:283,0
DA:284,0
DA:285,0
DA:286,0
DA:287,0
DA:288,0
DA:289,0
DA:290,0
DA:291,0
DA:292,0
DA:293,0
DA:294,0
DA:295,0
DA:296,0
DA:297,0
DA:298,0
DA:299,0
DA:300,0
DA:301,0
DA:302,0
DA:303,0
DA:304,0
DA:305,0
DA:306,0
DA:307,0
DA:308,0
DA:309,0
DA:310,0
DA:311,0
DA:312,0
DA:313,0
DA:314,0
DA:315,0
DA:316,0
DA:317,0
DA:318,0
DA:320,0
DA:322,0
DA:340,0
DA:341,0
DA:342,0
DA:343,0
DA:344,0
DA:345,0
DA:346,0
DA:347,0
DA:348,0
DA:349,0
DA:350,0
DA:351,0
DA:352,0
DA:354,0
DA:355,0
DA:356,0
DA:357,0
DA:358,0
DA:359,0
DA:360,0
DA:362,0
DA:363,0
DA:364,0
DA:365,0
DA:366,0
DA:367,0
DA:368,0
DA:370,0
DA:371,0
DA:372,0
DA:373,0
DA:375,0
DA:376,0
DA:377,0
DA:378,0
DA:380,0
DA:381,0
DA:382,0
DA:383,0
DA:384,0
DA:385,0
DA:386,0
DA:388,0
DA:389,0
DA:390,0
DA:391,0
DA:394,0
DA:395,0
DA:396,0
DA:397,0
DA:398,0
DA:399,0
DA:400,0
DA:401,0
DA:402,0
DA:403,0
DA:404,0
DA:410,0
DA:411,0
DA:412,0
DA:413,0
DA:414,0
DA:415,0
DA:416,0
DA:417,0
DA:418,0
DA:419,0
DA:420,0
DA:421,0
DA:422,0
DA:424,0
DA:425,0
DA:426,0
DA:429,0
DA:430,0
DA:431,0
DA:432,0
DA:433,0
DA:434,0
DA:435,0
DA:436,0
DA:437,0
DA:438,0
DA:439,0
DA:440,0
DA:441,0
DA:442,0
DA:443,0
DA:444,0
DA:445,0
DA:446,0
DA:447,0
DA:448,0
DA:449,0
DA:450,0
DA:451,0
DA:452,0
DA:453,0
DA:454,0
DA:455,0
DA:456,0
DA:457,0
DA:458,0
DA:459,0
DA:460,0
DA:461,0
BRF:0
BRH:0
LF:320
LH:0
end_of_record
SF:/Users/coach/Documents/Jito/restaking/clients/rust/restaking_client/src/generated/instructions/initialize_operator_vault_ticket.rs
FN:27,_RNvMNtNtNtCs7b1zZ6GD7vQ_21jito_restaking_client9generated12instructions32initialize_operator_vault_ticketNtB2_29InitializeOperatorVaultTicket11instruction
FN:31,_RNvMNtNtNtCs7b1zZ6GD7vQ_21jito_restaking_client9generated12instructions32initialize_operator_vault_ticketNtB2_29InitializeOperatorVaultTicket35instruction_with_remaining_accounts
FN:74,_RINvXs4_NtNtNtCs7b1zZ6GD7vQ_21jito_restaking_client9generated12instructions32initialize_operator_vault_ticketNtB6_44InitializeOperatorVaultTicketInstructionDataNtNtCs7MwDlaQ6RmC_5borsh2de16BorshDeserialize18deserialize_readerpEBc_
FN:74,_RINvXs5_NtNtNtCs7b1zZ6GD7vQ_21jito_restaking_client9generated12instructions32initialize_operator_vault_ticketNtB6_44InitializeOperatorVaultTicketInstructionDataNtNtCs7MwDlaQ6RmC_5borsh3ser14BorshSerialize9serializepEBc_
FN:80,_RNvMs_NtNtNtCs7b1zZ6GD7vQ_21jito_restaking_client9generated12instructions32initialize_operator_vault_ticketNtB4_44InitializeOperatorVaultTicketInstructionData3new
FN:86,_RNvXs0_NtNtNtCs7b1zZ6GD7vQ_21jito_restaking_client9generated12instructions32initialize_operator_vault_ticketNtB5_44InitializeOperatorVaultTicketInstructionDataNtNtCs2ke5FKHNm4X_4core7default7Default7default
FN:115,_RNvMs1_NtNtNtCs7b1zZ6GD7vQ_21jito_restaking_client9generated12instructions32initialize_operator_vault_ticketNtB5_36InitializeOperatorVaultTicketBuilder3new
FN:119,_RNvMs1_NtNtNtCs7b1zZ6GD7vQ_21jito_restaking_client9generated12instructions32initialize_operator_vault_ticketNtB5_36InitializeOperatorVaultTicketBuilder6config
FN:124,_RNvMs1_NtNtNtCs7b1zZ6GD7vQ_21jito_restaking_client9generated12instructions32initialize_operator_vault_ticketNtB5_36InitializeOperatorVaultTicketBuilder8operator
FN:129,_RNvMs1_NtNtNtCs7b1zZ6GD7vQ_21jito_restaking_client9generated12instructions32initialize_operator_vault_ticketNtB5_36InitializeOperatorVaultTicketBuilder5vault
FN:134,_RNvMs1_NtNtNtCs7b1zZ6GD7vQ_21jito_restaking_client9generated12instructions32initialize_operator_vault_ticketNtB5_36InitializeOperatorVaultTicketBuilder21operator_vault_ticket
FN:142,_RNvMs1_NtNtNtCs7b1zZ6GD7vQ_21jito_restaking_client9generated12instructions32initialize_operator_vault_ticketNtB5_36InitializeOperatorVaultTicketBuilder5admin
FN:147,_RNvMs1_NtNtNtCs7b1zZ6GD7vQ_21jito_restaking_client9generated12instructions32initialize_operator_vault_ticketNtB5_36InitializeOperatorVaultTicketBuilder5payer
FN:153,_RNvMs1_NtNtNtCs7b1zZ6GD7vQ_21jito_restaking_client9generated12instructions32initialize_operator_vault_ticketNtB5_36InitializeOperatorVaultTicketBuilder14system_program
FN:159,_RNvMs1_NtNtNtCs7b1zZ6GD7vQ_21jito_restaking_client9generated12instructions32initialize_operator_vault_ticketNtB5_36InitializeOperatorVaultTicketBuilder21add_remaining_account
FN:168,_RNvMs1_NtNtNtCs7b1zZ6GD7vQ_21jito_restaking_client9generated12instructions32initialize_operator_vault_ticketNtB5_36InitializeOperatorVaultTicketBuilder22add_remaining_accounts
FN:176,_RNvMs1_NtNtNtCs7b1zZ6GD7vQ_21jito_restaking_client9generated12instructions32initialize_operator_vault_ticketNtB5_36InitializeOperatorVaultTicketBuilder11instruction
FN:233,_RNvMs2_NtNtNtCs7b1zZ6GD7vQ_21jito_restaking_client9generated12instructions32initialize_operator_vault_ticketNtB5_32InitializeOperatorVaultTicketCpi3new
FN:249,_RNvMs2_NtNtNtCs7b1zZ6GD7vQ_21jito_restaking_client9generated12instructions32initialize_operator_vault_ticketNtB5_32InitializeOperatorVaultTicketCpi6invoke
FN:253,_RNvMs2_NtNtNtCs7b1zZ6GD7vQ_21jito_restaking_client9generated12instructions32initialize_operator_vault_ticketNtB5_32InitializeOperatorVaultTicketCpi30invoke_with_remaining_accounts
FN:264,_RNvMs2_NtNtNtCs7b1zZ6GD7vQ_21jito_restaking_client9generated12instructions32initialize_operator_vault_ticketNtB5_32InitializeOperatorVaultTicketCpi13invoke_signed
FN:272,_RNvMs2_NtNtNtCs7b1zZ6GD7vQ_21jito_restaking_client9generated12instructions32initialize_operator_vault_ticketNtB5_32InitializeOperatorVaultTicketCpi37invoke_signed_with_remaining_accounts
FN:310,_RNCNvMs2_NtNtNtCs7b1zZ6GD7vQ_21jito_restaking_client9generated12instructions32initialize_operator_vault_ticketNtB7_32InitializeOperatorVaultTicketCpi37invoke_signed_with_remaining_accounts0Bd_
FN:337,_RNCNvMs2_NtNtNtCs7b1zZ6GD7vQ_21jito_restaking_client9generated12instructions32initialize_operator_vault_ticketNtB7_32InitializeOperatorVaultTicketCpi37invoke_signed_with_remaining_accountss_0Bd_
FN:364,_RNvMs3_NtNtNtCs7b1zZ6GD7vQ_21jito_restaking_client9generated12instructions32initialize_operator_vault_ticketNtB5_39InitializeOperatorVaultTicketCpiBuilder3new
FN:379,_RNvMs3_NtNtNtCs7b1zZ6GD7vQ_21jito_restaking_client9generated12instructions32initialize_operator_vault_ticketNtB5_39InitializeOperatorVaultTicketCpiBuilder6config
FN:387,_RNvMs3_NtNtNtCs7b1zZ6GD7vQ_21jito_restaking_client9generated12instructions32initialize_operator_vault_ticketNtB5_39InitializeOperatorVaultTicketCpiBuilder8operator
FN:395,_RNvMs3_NtNtNtCs7b1zZ6GD7vQ_21jito_restaking_client9generated12instructions32initialize_operator_vault_ticketNtB5_39InitializeOperatorVaultTicketCpiBuilder5vault
FN:400,_RNvMs3_NtNtNtCs7b1zZ6GD7vQ_21jito_restaking_client9generated12instructions32initialize_operator_vault_ticketNtB5_39InitializeOperatorVaultTicketCpiBuilder21operator_vault_ticket
FN:408,_RNvMs3_NtNtNtCs7b1zZ6GD7vQ_21jito_restaking_client9generated12instructions32initialize_operator_vault_ticketNtB5_39InitializeOperatorVaultTicketCpiBuilder5admin
FN:413,_RNvMs3_NtNtNtCs7b1zZ6GD7vQ_21jito_restaking_client9generated12instructions32initialize_operator_vault_ticketNtB5_39InitializeOperatorVaultTicketCpiBuilder5payer
FN:418,_RNvMs3_NtNtNtCs7b1zZ6GD7vQ_21jito_restaking_client9generated12instructions32initialize_operator_vault_ticketNtB5_39InitializeOperatorVaultTicketCpiBuilder14system_program
FN:427,_RNvMs3_NtNtNtCs7b1zZ6GD7vQ_21jito_restaking_client9generated12instructions32initialize_operator_vault_ticketNtB5_39InitializeOperatorVaultTicketCpiBuilder21add_remaining_account
FN:443,_RNvMs3_NtNtNtCs7b1zZ6GD7vQ_21jito_restaking_client9generated12instructions32initialize_operator_vault_ticketNtB5_39InitializeOperatorVaultTicketCpiBuilder22add_remaining_accounts
FN:457,_RNvMs3_NtNtNtCs7b1zZ6GD7vQ_21jito_restaking_client9generated12instructions32initialize_operator_vault_ticketNtB5_39InitializeOperatorVaultTicketCpiBuilder6invoke
FN:462,_RNvMs3_NtNtNtCs7b1zZ6GD7vQ_21jito_restaking_client9generated12instructions32initialize_operator_vault_ticketNtB5_39InitializeOperatorVaultTicketCpiBuilder13invoke_signed
FNDA:0,_RNvMNtNtNtCs7b1zZ6GD7vQ_21jito_restaking_client9generated12instructions32initialize_operator_vault_ticketNtB2_29InitializeOperatorVaultTicket11instruction
FNDA:0,_RNvMNtNtNtCs7b1zZ6GD7vQ_21jito_restaking_client9generated12instructions32initialize_operator_vault_ticketNtB2_29InitializeOperatorVaultTicket35instruction_with_remaining_accounts
FNDA:0,_RINvXs4_NtNtNtCs7b1zZ6GD7vQ_21jito_restaking_client9generated12instructions32initialize_operator_vault_ticketNtB6_44InitializeOperatorVaultTicketInstructionDataNtNtCs7MwDlaQ6RmC_5borsh2de16BorshDeserialize18deserialize_readerpEBc_
FNDA:0,_RINvXs5_NtNtNtCs7b1zZ6GD7vQ_21jito_restaking_client9generated12instructions32initialize_operator_vault_ticketNtB6_44InitializeOperatorVaultTicketInstructionDataNtNtCs7MwDlaQ6RmC_5borsh3ser14BorshSerialize9serializepEBc_
FNDA:0,_RNvMs_NtNtNtCs7b1zZ6GD7vQ_21jito_restaking_client9generated12instructions32initialize_operator_vault_ticketNtB4_44InitializeOperatorVaultTicketInstructionData3new
FNDA:0,_RNvXs0_NtNtNtCs7b1zZ6GD7vQ_21jito_restaking_client9generated12instructions32initialize_operator_vault_ticketNtB5_44InitializeOperatorVaultTicketInstructionDataNtNtCs2ke5FKHNm4X_4core7default7Default7default
FNDA:0,_RNvMs1_NtNtNtCs7b1zZ6GD7vQ_21jito_restaking_client9generated12instructions32initialize_operator_vault_ticketNtB5_36InitializeOperatorVaultTicketBuilder3new
FNDA:0,_RNvMs1_NtNtNtCs7b1zZ6GD7vQ_21jito_restaking_client9generated12instructions32initialize_operator_vault_ticketNtB5_36InitializeOperatorVaultTicketBuilder6config
FNDA:0,_RNvMs1_NtNtNtCs7b1zZ6GD7vQ_21jito_restaking_client9generated12instructions32initialize_operator_vault_ticketNtB5_36InitializeOperatorVaultTicketBuilder8operator
FNDA:0,_RNvMs1_NtNtNtCs7b1zZ6GD7vQ_21jito_restaking_client9generated12instructions32initialize_operator_vault_ticketNtB5_36InitializeOperatorVaultTicketBuilder5vault
FNDA:0,_RNvMs1_NtNtNtCs7b1zZ6GD7vQ_21jito_restaking_client9generated12instructions32initialize_operator_vault_ticketNtB5_36InitializeOperatorVaultTicketBuilder21operator_vault_ticket
FNDA:0,_RNvMs1_NtNtNtCs7b1zZ6GD7vQ_21jito_restaking_client9generated12instructions32initialize_operator_vault_ticketNtB5_36InitializeOperatorVaultTicketBuilder5admin
FNDA:0,_RNvMs1_NtNtNtCs7b1zZ6GD7vQ_21jito_restaking_client9generated12instructions32initialize_operator_vault_ticketNtB5_36InitializeOperatorVaultTicketBuilder5payer
FNDA:0,_RNvMs1_NtNtNtCs7b1zZ6GD7vQ_21jito_restaking_client9generated12instructions32initialize_operator_vault_ticketNtB5_36InitializeOperatorVaultTicketBuilder14system_program
FNDA:0,_RNvMs1_NtNtNtCs7b1zZ6GD7vQ_21jito_restaking_client9generated12instructions32initialize_operator_vault_ticketNtB5_36InitializeOperatorVaultTicketBuilder21add_remaining_account
FNDA:0,_RNvMs1_NtNtNtCs7b1zZ6GD7vQ_21jito_restaking_client9generated12instructions32initialize_operator_vault_ticketNtB5_36InitializeOperatorVaultTicketBuilder22add_remaining_accounts
FNDA:0,_RNvMs1_NtNtNtCs7b1zZ6GD7vQ_21jito_restaking_client9generated12instructions32initialize_operator_vault_ticketNtB5_36InitializeOperatorVaultTicketBuilder11instruction
FNDA:0,_RNvMs2_NtNtNtCs7b1zZ6GD7vQ_21jito_restaking_client9generated12instructions32initialize_operator_vault_ticketNtB5_32InitializeOperatorVaultTicketCpi3new
FNDA:0,_RNvMs2_NtNtNtCs7b1zZ6GD7vQ_21jito_restaking_client9generated12instructions32initialize_operator_vault_ticketNtB5_32InitializeOperatorVaultTicketCpi6invoke
FNDA:0,_RNvMs2_NtNtNtCs7b1zZ6GD7vQ_21jito_restaking_client9generated12instructions32initialize_operator_vault_ticketNtB5_32InitializeOperatorVaultTicketCpi30invoke_with_remaining_accounts
FNDA:0,_RNvMs2_NtNtNtCs7b1zZ6GD7vQ_21jito_restaking_client9generated12instructions32initialize_operator_vault_ticketNtB5_32InitializeOperatorVaultTicketCpi13invoke_signed
FNDA:0,_RNvMs2_NtNtNtCs7b1zZ6GD7vQ_21jito_restaking_client9generated12instructions32initialize_operator_vault_ticketNtB5_32InitializeOperatorVaultTicketCpi37invoke_signed_with_remaining_accounts
FNDA:0,_RNCNvMs2_NtNtNtCs7b1zZ6GD7vQ_21jito_restaking_client9generated12instructions32initialize_operator_vault_ticketNtB7_32InitializeOperatorVaultTicketCpi37invoke_signed_with_remaining_accounts0Bd_
FNDA:0,_RNCNvMs2_NtNtNtCs7b1zZ6GD7vQ_21jito_restaking_client9generated12instructions32initialize_operator_vault_ticketNtB7_32InitializeOperatorVaultTicketCpi37invoke_signed_with_remaining_accountss_0Bd_
FNDA:0,_RNvMs3_NtNtNtCs7b1zZ6GD7vQ_21jito_restaking_client9generated12instructions32initialize_operator_vault_ticketNtB5_39InitializeOperatorVaultTicketCpiBuilder3new
FNDA:0,_RNvMs3_NtNtNtCs7b1zZ6GD7vQ_21jito_restaking_client9generated12instructions32initialize_operator_vault_ticketNtB5_39InitializeOperatorVaultTicketCpiBuilder6config
FNDA:0,_RNvMs3_NtNtNtCs7b1zZ6GD7vQ_21jito_restaking_client9generated12instructions32initialize_operator_vault_ticketNtB5_39InitializeOperatorVaultTicketCpiBuilder8operator
FNDA:0,_RNvMs3_NtNtNtCs7b1zZ6GD7vQ_21jito_restaking_client9generated12instructions32initialize_operator_vault_ticketNtB5_39InitializeOperatorVaultTicketCpiBuilder5vault
FNDA:0,_RNvMs3_NtNtNtCs7b1zZ6GD7vQ_21jito_restaking_client9generated12instructions32initialize_operator_vault_ticketNtB5_39InitializeOperatorVaultTicketCpiBuilder21operator_vault_ticket
FNDA:0,_RNvMs3_NtNtNtCs7b1zZ6GD7vQ_21jito_restaking_client9generated12instructions32initialize_operator_vault_ticketNtB5_39InitializeOperatorVaultTicketCpiBuilder5admin
FNDA:0,_RNvMs3_NtNtNtCs7b1zZ6GD7vQ_21jito_restaking_client9generated12instructions32initialize_operator_vault_ticketNtB5_39InitializeOperatorVaultTicketCpiBuilder5payer
FNDA:0,_RNvMs3_NtNtNtCs7b1zZ6GD7vQ_21jito_restaking_client9generated12instructions32initialize_operator_vault_ticketNtB5_39InitializeOperatorVaultTicketCpiBuilder14system_program
FNDA:0,_RNvMs3_NtNtNtCs7b1zZ6GD7vQ_21jito_restaking_client9generated12instructions32initialize_operator_vault_ticketNtB5_39InitializeOperatorVaultTicketCpiBuilder21add_remaining_account
FNDA:0,_RNvMs3_NtNtNtCs7b1zZ6GD7vQ_21jito_restaking_client9generated12instructions32initialize_operator_vault_ticketNtB5_39InitializeOperatorVaultTicketCpiBuilder22add_remaining_accounts
FNDA:0,_RNvMs3_NtNtNtCs7b1zZ6GD7vQ_21jito_restaking_client9generated12instructions32initialize_operator_vault_ticketNtB5_39InitializeOperatorVaultTicketCpiBuilder6invoke
FNDA:0,_RNvMs3_NtNtNtCs7b1zZ6GD7vQ_21jito_restaking_client9generated12instructions32initialize_operator_vault_ticketNtB5_39InitializeOperatorVaultTicketCpiBuilder13invoke_signed
FNF:36
FNH:0
DA:27,0
DA:28,0
DA:29,0
DA:31,0
DA:32,0
DA:33,0
DA:34,0
DA:35,0
DA:36,0
DA:37,0
DA:38,0
DA:39,0
DA:40,0
DA:41,0
DA:42,0
DA:43,0
DA:44,0
DA:45,0
DA:46,0
DA:47,0
DA:48,0
DA:49,0
DA:50,0
DA:51,0
DA:52,0
DA:53,0
DA:54,0
DA:55,0
DA:56,0
DA:57,0
DA:58,0
DA:59,0
DA:60,0
DA:61,0
DA:62,0
DA:63,0
DA:64,0
DA:65,0
DA:66,0
DA:67,0
DA:68,0
DA:69,0
DA:70,0
DA:71,0
DA:74,0
DA:80,0
DA:81,0
DA:82,0
DA:86,0
DA:87,0
DA:88,0
DA:115,0
DA:116,0
DA:117,0
DA:119,0
DA:120,0
DA:121,0
DA:122,0
DA:124,0
DA:125,0
DA:126,0
DA:127,0
DA:129,0
DA:130,0
DA:131,0
DA:132,0
DA:134,0
DA:135,0
DA:136,0
DA:137,0
DA:138,0
DA:139,0
DA:140,0
DA:142,0
DA:143,0
DA:144,0
DA:145,0
DA:147,0
DA:148,0
DA:149,0
DA:150,0
DA:153,0
DA:154,0
DA:155,0
DA:156,0
DA:159,0
DA:160,0
DA:161,0
DA:162,0
DA:163,0
DA:164,0
DA:165,0
DA:168,0
DA:169,0
DA:170,0
DA:171,0
DA:172,0
DA:173,0
DA:174,0
DA:176,0
DA:177,0
DA:178,0
DA:179,0
DA:180,0
DA:181,0
DA:182,0
DA:183,0
DA:184,0
DA:185,0
DA:186,0
DA:187,0
DA:188,0
DA:189,0
DA:190,0
DA:191,0
DA:192,0
DA:233,0
DA:234,0
DA:235,0
DA:236,0
DA:237,0
DA:238,0
DA:239,0
DA:240,0
DA:241,0
DA:242,0
DA:243,0
DA:244,0
DA:245,0
DA:246,0
DA:247,0
DA:249,0
DA:250,0
DA:251,0
DA:253,0
DA:254,0
DA:255,0
DA:256,0
DA:257,0
DA:258,0
DA:259,0
DA:260,0
DA:261,0
DA:262,0
DA:264,0
DA:265,0
DA:266,0
DA:267,0
DA:268,0
DA:269,0
DA:272,0
DA:273,0
DA:274,0
DA:275,0
DA:276,0
DA:277,0
DA:278,0
DA:279,0
DA:280,0
DA:281,0
DA:282,0
DA:283,0
DA:284,0
DA:285,0
DA:286,0
DA:287,0
DA:288,0
DA:289,0
DA:290,0
DA:291,0
DA:292,0
DA:293,0
DA:294,0
DA:295,0
DA:296,0
DA:297,0
DA:298,0
DA:299,0
DA:300,0
DA:301,0
DA:302,0
DA:303,0
DA:304,0
DA:305,0
DA:306,0
DA:307,0
DA:308,0
DA:309,0
DA:310,0
DA:311,0
DA:312,0
DA:313,0
DA:314,0
DA:315,0
DA:316,0
DA:317,0
DA:318,0
DA:319,0
DA:320,0
DA:321,0
DA:322,0
DA:323,0
DA:324,0
DA:325,0
DA:326,0
DA:327,0
DA:328,0
DA:329,0
DA:330,0
DA:331,0
DA:332,0
DA:333,0
DA:334,0
DA:335,0
DA:336,0
DA:337,0
DA:338,0
DA:339,0
DA:340,0
DA:342,0
DA:344,0
DA:364,0
DA:365,0
DA:366,0
DA:367,0
DA:368,0
DA:369,0
DA:370,0
DA:371,0
DA:372,0
DA:373,0
DA:374,0
DA:375,0
DA:376,0
DA:377,0
DA:379,0
DA:380,0
DA:381,0
DA:382,0
DA:383,0
DA:384,0
DA:385,0
DA:387,0
DA:388,0
DA:389,0
DA:390,0
DA:391,0
DA:392,0
DA:393,0
DA:395,0
DA:396,0
DA:397,0
DA:398,0
DA:400,0
DA:401,0
DA:402,0
DA:403,0
DA:404,0
DA:405,0
DA:406,0
DA:408,0
DA:409,0
DA:410,0
DA:411,0
DA:413,0
DA:414,0
DA:415,0
DA:416,0
DA:418,0
DA:419,0
DA:420,0
DA:421,0
DA:422,0
DA:423,0
DA:424,0
DA:427,0
DA:428,0
DA:429,0
DA:430,0
DA:431,0
DA:432,0
DA:433,0
DA:434,0
DA:435,0
DA:436,0
DA:437,0
DA:443,0
DA:444,0
DA:445,0
DA:446,0
DA:447,0
DA:448,0
DA:449,0
DA:450,0
DA:451,0
DA:452,0
DA:453,0
DA:454,0
DA:455,0
DA:457,0
DA:458,0
DA:459,0
DA:462,0
DA:463,0
DA:464,0
DA:465,0
DA:466,0
DA:467,0
DA:468,0
DA:469,0
DA:470,0
DA:471,0
DA:472,0
DA:473,0
DA:474,0
DA:475,0
DA:476,0
DA:477,0
DA:478,0
DA:479,0
DA:480,0
DA:481,0
DA:482,0
DA:483,0
DA:484,0
DA:485,0
DA:486,0
DA:487,0
DA:488,0
DA:489,0
DA:490,0
DA:491,0
DA:492,0
DA:493,0
BRF:0
BRH:0
LF:338
LH:0
end_of_record
SF:/Users/coach/Documents/Jito/restaking/clients/rust/restaking_client/src/generated/instructions/ncn_cooldown_operator.rs
FN:23,_RNvMNtNtNtCs7b1zZ6GD7vQ_21jito_restaking_client9generated12instructions21ncn_cooldown_operatorNtB2_19NcnCooldownOperator11instruction
FN:27,_RNvMNtNtNtCs7b1zZ6GD7vQ_21jito_restaking_client9generated12instructions21ncn_cooldown_operatorNtB2_19NcnCooldownOperator35instruction_with_remaining_accounts
FN:63,_RINvXs4_NtNtNtCs7b1zZ6GD7vQ_21jito_restaking_client9generated12instructions21ncn_cooldown_operatorNtB6_34NcnCooldownOperatorInstructionDataNtNtCs7MwDlaQ6RmC_5borsh2de16BorshDeserialize18deserialize_readerpEBc_
FN:63,_RINvXs5_NtNtNtCs7b1zZ6GD7vQ_21jito_restaking_client9generated12instructions21ncn_cooldown_operatorNtB6_34NcnCooldownOperatorInstructionDataNtNtCs7MwDlaQ6RmC_5borsh3ser14BorshSerialize9serializepEBc_
FN:69,_RNvMs_NtNtNtCs7b1zZ6GD7vQ_21jito_restaking_client9generated12instructions21ncn_cooldown_operatorNtB4_34NcnCooldownOperatorInstructionData3new
FN:75,_RNvXs0_NtNtNtCs7b1zZ6GD7vQ_21jito_restaking_client9generated12instructions21ncn_cooldown_operatorNtB5_34NcnCooldownOperatorInstructionDataNtNtCs2ke5FKHNm4X_4core7default7Default7default
FN:100,_RNvMs1_NtNtNtCs7b1zZ6GD7vQ_21jito_restaking_client9generated12instructions21ncn_cooldown_operatorNtB5_26NcnCooldownOperatorBuilder3new
FN:104,_RNvMs1_NtNtNtCs7b1zZ6GD7vQ_21jito_restaking_client9generated12instructions21ncn_cooldown_operatorNtB5_26NcnCooldownOperatorBuilder6config
FN:109,_RNvMs1_NtNtNtCs7b1zZ6GD7vQ_21jito_restaking_client9generated12instructions21ncn_cooldown_operatorNtB5_26NcnCooldownOperatorBuilder3ncn
FN:114,_RNvMs1_NtNtNtCs7b1zZ6GD7vQ_21jito_restaking_client9generated12instructions21ncn_cooldown_operatorNtB5_26NcnCooldownOperatorBuilder8operator
FN:119,_RNvMs1_NtNtNtCs7b1zZ6GD7vQ_21jito_restaking_client9generated12instructions21ncn_cooldown_operatorNtB5_26NcnCooldownOperatorBuilder18ncn_operator_state
FN:127,_RNvMs1_NtNtNtCs7b1zZ6GD7vQ_21jito_restaking_client9generated12instructions21ncn_cooldown_operatorNtB5_26NcnCooldownOperatorBuilder5admin
FN:133,_RNvMs1_NtNtNtCs7b1zZ6GD7vQ_21jito_restaking_client9generated12instructions21ncn_cooldown_operatorNtB5_26NcnCooldownOperatorBuilder21add_remaining_account
FN:142,_RNvMs1_NtNtNtCs7b1zZ6GD7vQ_21jito_restaking_client9generated12instructions21ncn_cooldown_operatorNtB5_26NcnCooldownOperatorBuilder22add_remaining_accounts
FN:150,_RNvMs1_NtNtNtCs7b1zZ6GD7vQ_21jito_restaking_client9generated12instructions21ncn_cooldown_operatorNtB5_26NcnCooldownOperatorBuilder11instruction
FN:195,_RNvMs2_NtNtNtCs7b1zZ6GD7vQ_21jito_restaking_client9generated12instructions21ncn_cooldown_operatorNtB5_22NcnCooldownOperatorCpi3new
FN:209,_RNvMs2_NtNtNtCs7b1zZ6GD7vQ_21jito_restaking_client9generated12instructions21ncn_cooldown_operatorNtB5_22NcnCooldownOperatorCpi6invoke
FN:213,_RNvMs2_NtNtNtCs7b1zZ6GD7vQ_21jito_restaking_client9generated12instructions21ncn_cooldown_operatorNtB5_22NcnCooldownOperatorCpi30invoke_with_remaining_accounts
FN:224,_RNvMs2_NtNtNtCs7b1zZ6GD7vQ_21jito_restaking_client9generated12instructions21ncn_cooldown_operatorNtB5_22NcnCooldownOperatorCpi13invoke_signed
FN:232,_RNvMs2_NtNtNtCs7b1zZ6GD7vQ_21jito_restaking_client9generated12instructions21ncn_cooldown_operatorNtB5_22NcnCooldownOperatorCpi37invoke_signed_with_remaining_accounts
FN:262,_RNCNvMs2_NtNtNtCs7b1zZ6GD7vQ_21jito_restaking_client9generated12instructions21ncn_cooldown_operatorNtB7_22NcnCooldownOperatorCpi37invoke_signed_with_remaining_accounts0Bd_
FN:287,_RNCNvMs2_NtNtNtCs7b1zZ6GD7vQ_21jito_restaking_client9generated12instructions21ncn_cooldown_operatorNtB7_22NcnCooldownOperatorCpi37invoke_signed_with_remaining_accountss_0Bd_
FN:312,_RNvMs3_NtNtNtCs7b1zZ6GD7vQ_21jito_restaking_client9generated12instructions21ncn_cooldown_operatorNtB5_29NcnCooldownOperatorCpiBuilder3new
FN:325,_RNvMs3_NtNtNtCs7b1zZ6GD7vQ_21jito_restaking_client9generated12instructions21ncn_cooldown_operatorNtB5_29NcnCooldownOperatorCpiBuilder6config
FN:333,_RNvMs3_NtNtNtCs7b1zZ6GD7vQ_21jito_restaking_client9generated12instructions21ncn_cooldown_operatorNtB5_29NcnCooldownOperatorCpiBuilder3ncn
FN:338,_RNvMs3_NtNtNtCs7b1zZ6GD7vQ_21jito_restaking_client9generated12instructions21ncn_cooldown_operatorNtB5_29NcnCooldownOperatorCpiBuilder8operator
FN:346,_RNvMs3_NtNtNtCs7b1zZ6GD7vQ_21jito_restaking_client9generated12instructions21ncn_cooldown_operatorNtB5_29NcnCooldownOperatorCpiBuilder18ncn_operator_state
FN:354,_RNvMs3_NtNtNtCs7b1zZ6GD7vQ_21jito_restaking_client9generated12instructions21ncn_cooldown_operatorNtB5_29NcnCooldownOperatorCpiBuilder5admin
FN:360,_RNvMs3_NtNtNtCs7b1zZ6GD7vQ_21jito_restaking_client9generated12instructions21ncn_cooldown_operatorNtB5_29NcnCooldownOperatorCpiBuilder21add_remaining_account
FN:376,_RNvMs3_NtNtNtCs7b1zZ6GD7vQ_21jito_restaking_client9generated12instructions21ncn_cooldown_operatorNtB5_29NcnCooldownOperatorCpiBuilder22add_remaining_accounts
FN:390,_RNvMs3_NtNtNtCs7b1zZ6GD7vQ_21jito_restaking_client9generated12instructions21ncn_cooldown_operatorNtB5_29NcnCooldownOperatorCpiBuilder6invoke
FN:395,_RNvMs3_NtNtNtCs7b1zZ6GD7vQ_21jito_restaking_client9generated12instructions21ncn_cooldown_operatorNtB5_29NcnCooldownOperatorCpiBuilder13invoke_signed
FNDA:0,_RNvMNtNtNtCs7b1zZ6GD7vQ_21jito_restaking_client9generated12instructions21ncn_cooldown_operatorNtB2_19NcnCooldownOperator11instruction
FNDA:0,_RNvMNtNtNtCs7b1zZ6GD7vQ_21jito_restaking_client9generated12instructions21ncn_cooldown_operatorNtB2_19NcnCooldownOperator35instruction_with_remaining_accounts
FNDA:0,_RINvXs4_NtNtNtCs7b1zZ6GD7vQ_21jito_restaking_client9generated12instructions21ncn_cooldown_operatorNtB6_34NcnCooldownOperatorInstructionDataNtNtCs7MwDlaQ6RmC_5borsh2de16BorshDeserialize18deserialize_readerpEBc_
FNDA:0,_RINvXs5_NtNtNtCs7b1zZ6GD7vQ_21jito_restaking_client9generated12instructions21ncn_cooldown_operatorNtB6_34NcnCooldownOperatorInstructionDataNtNtCs7MwDlaQ6RmC_5borsh3ser14BorshSerialize9serializepEBc_
FNDA:0,_RNvMs_NtNtNtCs7b1zZ6GD7vQ_21jito_restaking_client9generated12instructions21ncn_cooldown_operatorNtB4_34NcnCooldownOperatorInstructionData3new
FNDA:0,_RNvXs0_NtNtNtCs7b1zZ6GD7vQ_21jito_restaking_client9generated12instructions21ncn_cooldown_operatorNtB5_34NcnCooldownOperatorInstructionDataNtNtCs2ke5FKHNm4X_4core7default7Default7default
FNDA:0,_RNvMs1_NtNtNtCs7b1zZ6GD7vQ_21jito_restaking_client9generated12instructions21ncn_cooldown_operatorNtB5_26NcnCooldownOperatorBuilder3new
FNDA:0,_RNvMs1_NtNtNtCs7b1zZ6GD7vQ_21jito_restaking_client9generated12instructions21ncn_cooldown_operatorNtB5_26NcnCooldownOperatorBuilder6config
FNDA:0,_RNvMs1_NtNtNtCs7b1zZ6GD7vQ_21jito_restaking_client9generated12instructions21ncn_cooldown_operatorNtB5_26NcnCooldownOperatorBuilder3ncn
FNDA:0,_RNvMs1_NtNtNtCs7b1zZ6GD7vQ_21jito_restaking_client9generated12instructions21ncn_cooldown_operatorNtB5_26NcnCooldownOperatorBuilder8operator
FNDA:0,_RNvMs1_NtNtNtCs7b1zZ6GD7vQ_21jito_restaking_client9generated12instructions21ncn_cooldown_operatorNtB5_26NcnCooldownOperatorBuilder18ncn_operator_state
FNDA:0,_RNvMs1_NtNtNtCs7b1zZ6GD7vQ_21jito_restaking_client9generated12instructions21ncn_cooldown_operatorNtB5_26NcnCooldownOperatorBuilder5admin
FNDA:0,_RNvMs1_NtNtNtCs7b1zZ6GD7vQ_21jito_restaking_client9generated12instructions21ncn_cooldown_operatorNtB5_26NcnCooldownOperatorBuilder21add_remaining_account
FNDA:0,_RNvMs1_NtNtNtCs7b1zZ6GD7vQ_21jito_restaking_client9generated12instructions21ncn_cooldown_operatorNtB5_26NcnCooldownOperatorBuilder22add_remaining_accounts
FNDA:0,_RNvMs1_NtNtNtCs7b1zZ6GD7vQ_21jito_restaking_client9generated12instructions21ncn_cooldown_operatorNtB5_26NcnCooldownOperatorBuilder11instruction
FNDA:0,_RNvMs2_NtNtNtCs7b1zZ6GD7vQ_21jito_restaking_client9generated12instructions21ncn_cooldown_operatorNtB5_22NcnCooldownOperatorCpi3new
FNDA:0,_RNvMs2_NtNtNtCs7b1zZ6GD7vQ_21jito_restaking_client9generated12instructions21ncn_cooldown_operatorNtB5_22NcnCooldownOperatorCpi6invoke
FNDA:0,_RNvMs2_NtNtNtCs7b1zZ6GD7vQ_21jito_restaking_client9generated12instructions21ncn_cooldown_operatorNtB5_22NcnCooldownOperatorCpi30invoke_with_remaining_accounts
FNDA:0,_RNvMs2_NtNtNtCs7b1zZ6GD7vQ_21jito_restaking_client9generated12instructions21ncn_cooldown_operatorNtB5_22NcnCooldownOperatorCpi13invoke_signed
FNDA:0,_RNvMs2_NtNtNtCs7b1zZ6GD7vQ_21jito_restaking_client9generated12instructions21ncn_cooldown_operatorNtB5_22NcnCooldownOperatorCpi37invoke_signed_with_remaining_accounts
FNDA:0,_RNCNvMs2_NtNtNtCs7b1zZ6GD7vQ_21jito_restaking_client9generated12instructions21ncn_cooldown_operatorNtB7_22NcnCooldownOperatorCpi37invoke_signed_with_remaining_accounts0Bd_
FNDA:0,_RNCNvMs2_NtNtNtCs7b1zZ6GD7vQ_21jito_restaking_client9generated12instructions21ncn_cooldown_operatorNtB7_22NcnCooldownOperatorCpi37invoke_signed_with_remaining_accountss_0Bd_
FNDA:0,_RNvMs3_NtNtNtCs7b1zZ6GD7vQ_21jito_restaking_client9generated12instructions21ncn_cooldown_operatorNtB5_29NcnCooldownOperatorCpiBuilder3new
FNDA:0,_RNvMs3_NtNtNtCs7b1zZ6GD7vQ_21jito_restaking_client9generated12instructions21ncn_cooldown_operatorNtB5_29NcnCooldownOperatorCpiBuilder6config
FNDA:0,_RNvMs3_NtNtNtCs7b1zZ6GD7vQ_21jito_restaking_client9generated12instructions21ncn_cooldown_operatorNtB5_29NcnCooldownOperatorCpiBuilder3ncn
FNDA:0,_RNvMs3_NtNtNtCs7b1zZ6GD7vQ_21jito_restaking_client9generated12instructions21ncn_cooldown_operatorNtB5_29NcnCooldownOperatorCpiBuilder8operator
FNDA:0,_RNvMs3_NtNtNtCs7b1zZ6GD7vQ_21jito_restaking_client9generated12instructions21ncn_cooldown_operatorNtB5_29NcnCooldownOperatorCpiBuilder18ncn_operator_state
FNDA:0,_RNvMs3_NtNtNtCs7b1zZ6GD7vQ_21jito_restaking_client9generated12instructions21ncn_cooldown_operatorNtB5_29NcnCooldownOperatorCpiBuilder5admin
FNDA:0,_RNvMs3_NtNtNtCs7b1zZ6GD7vQ_21jito_restaking_client9generated12instructions21ncn_cooldown_operatorNtB5_29NcnCooldownOperatorCpiBuilder21add_remaining_account
FNDA:0,_RNvMs3_NtNtNtCs7b1zZ6GD7vQ_21jito_restaking_client9generated12instructions21ncn_cooldown_operatorNtB5_29NcnCooldownOperatorCpiBuilder22add_remaining_accounts
FNDA:0,_RNvMs3_NtNtNtCs7b1zZ6GD7vQ_21jito_restaking_client9generated12instructions21ncn_cooldown_operatorNtB5_29NcnCooldownOperatorCpiBuilder6invoke
FNDA:0,_RNvMs3_NtNtNtCs7b1zZ6GD7vQ_21jito_restaking_client9generated12instructions21ncn_cooldown_operatorNtB5_29NcnCooldownOperatorCpiBuilder13invoke_signed
FNF:32
FNH:0
DA:23,0
DA:24,0
DA:25,0
DA:27,0
DA:28,0
DA:29,0
DA:30,0
DA:31,0
DA:32,0
DA:33,0
DA:34,0
DA:35,0
DA:36,0
DA:37,0
DA:38,0
DA:39,0
DA:40,0
DA:41,0
DA:42,0
DA:43,0
DA:44,0
DA:45,0
DA:46,0
DA:47,0
DA:48,0
DA:49,0
DA:50,0
DA:51,0
DA:52,0
DA:53,0
DA:54,0
DA:55,0
DA:56,0
DA:57,0
DA:58,0
DA:59,0
DA:60,0
DA:63,0
DA:69,0
DA:70,0
DA:71,0
DA:75,0
DA:76,0
DA:77,0
DA:100,0
DA:101,0
DA:102,0
DA:104,0
DA:105,0
DA:106,0
DA:107,0
DA:109,0
DA:110,0
DA:111,0
DA:112,0
DA:114,0
DA:115,0
DA:116,0
DA:117,0
DA:119,0
DA:120,0
DA:121,0
DA:122,0
DA:123,0
DA:124,0
DA:125,0
DA:127,0
DA:128,0
DA:129,0
DA:130,0
DA:133,0
DA:134,0
DA:135,0
DA:136,0
DA:137,0
DA:138,0
DA:139,0
DA:142,0
DA:143,0
DA:144,0
DA:145,0
DA:146,0
DA:147,0
DA:148,0
DA:150,0
DA:151,0
DA:152,0
DA:153,0
DA:154,0
DA:155,0
DA:156,0
DA:157,0
DA:158,0
DA:159,0
DA:160,0
DA:161,0
DA:162,0
DA:195,0
DA:196,0
DA:197,0
DA:198,0
DA:199,0
DA:200,0
DA:201,0
DA:202,0
DA:203,0
DA:204,0
DA:205,0
DA:206,0
DA:207,0
DA:209,0
DA:210,0
DA:211,0
DA:213,0
DA:214,0
DA:215,0
DA:216,0
DA:217,0
DA:218,0
DA:219,0
DA:220,0
DA:221,0
DA:222,0
DA:224,0
DA:225,0
DA:226,0
DA:227,0
DA:228,0
DA:229,0
DA:232,0
DA:233,0
DA:234,0
DA:235,0
DA:236,0
DA:237,0
DA:238,0
DA:239,0
DA:240,0
DA:241,0
DA:242,0
DA:243,0
DA:244,0
DA:245,0
DA:246,0
DA:247,0
DA:248,0
DA:249,0
DA:250,0
DA:251,0
DA:252,0
DA:253,0
DA:254,0
DA:255,0
DA:256,0
DA:257,0
DA:258,0
DA:259,0
DA:260,0
DA:261,0
DA:262,0
DA:263,0
DA:264,0
DA:265,0
DA:266,0
DA:267,0
DA:268,0
DA:269,0
DA:270,0
DA:271,0
DA:272,0
DA:273,0
DA:274,0
DA:275,0
DA:276,0
DA:277,0
DA:278,0
DA:279,0
DA:280,0
DA:281,0
DA:282,0
DA:283,0
DA:284,0
DA:285,0
DA:286,0
DA:287,0
DA:288,0
DA:289,0
DA:290,0
DA:292,0
DA:294,0
DA:312,0
DA:313,0
DA:314,0
DA:315,0
DA:316,0
DA:317,0
DA:318,0
DA:319,0
DA:320,0
DA:321,0
DA:322,0
DA:323,0
DA:325,0
DA:326,0
DA:327,0
DA:328,0
DA:329,0
DA:330,0
DA:331,0
DA:333,0
DA:334,0
DA:335,0
DA:336,0
DA:338,0
DA:339,0
DA:340,0
DA:341,0
DA:342,0
DA:343,0
DA:344,0
DA:346,0
DA:347,0
DA:348,0
DA:349,0
DA:350,0
DA:351,0
DA:352,0
DA:354,0
DA:355,0
DA:356,0
DA:357,0
DA:360,0
DA:361,0
DA:362,0
DA:363,0
DA:364,0
DA:365,0
DA:366,0
DA:367,0
DA:368,0
DA:369,0
DA:370,0
DA:376,0
DA:377,0
DA:378,0
DA:379,0
DA:380,0
DA:381,0
DA:382,0
DA:383,0
DA:384,0
DA:385,0
DA:386,0
DA:387,0
DA:388,0
DA:390,0
DA:391,0
DA:392,0
DA:395,0
DA:396,0
DA:397,0
DA:398,0
DA:399,0
DA:400,0
DA:401,0
DA:402,0
DA:403,0
DA:404,0
DA:405,0
DA:406,0
DA:407,0
DA:408,0
DA:409,0
DA:410,0
DA:411,0
DA:412,0
DA:413,0
DA:414,0
DA:415,0
DA:416,0
DA:417,0
DA:418,0
DA:419,0
BRF:0
BRH:0
LF:287
LH:0
end_of_record
SF:/Users/coach/Documents/Jito/restaking/clients/rust/restaking_client/src/generated/instructions/ncn_delegate_token_account.rs
FN:25,_RNvMNtNtNtCs7b1zZ6GD7vQ_21jito_restaking_client9generated12instructions26ncn_delegate_token_accountNtB2_23NcnDelegateTokenAccount11instruction
FN:29,_RNvMNtNtNtCs7b1zZ6GD7vQ_21jito_restaking_client9generated12instructions26ncn_delegate_token_accountNtB2_23NcnDelegateTokenAccount35instruction_with_remaining_accounts
FN:70,_RINvXs4_NtNtNtCs7b1zZ6GD7vQ_21jito_restaking_client9generated12instructions26ncn_delegate_token_accountNtB6_38NcnDelegateTokenAccountInstructionDataNtNtCs7MwDlaQ6RmC_5borsh2de16BorshDeserialize18deserialize_readerpEBc_
FN:70,_RINvXs5_NtNtNtCs7b1zZ6GD7vQ_21jito_restaking_client9generated12instructions26ncn_delegate_token_accountNtB6_38NcnDelegateTokenAccountInstructionDataNtNtCs7MwDlaQ6RmC_5borsh3ser14BorshSerialize9serializepEBc_
FN:76,_RNvMs_NtNtNtCs7b1zZ6GD7vQ_21jito_restaking_client9generated12instructions26ncn_delegate_token_accountNtB4_38NcnDelegateTokenAccountInstructionData3new
FN:82,_RNvXs0_NtNtNtCs7b1zZ6GD7vQ_21jito_restaking_client9generated12instructions26ncn_delegate_token_accountNtB5_38NcnDelegateTokenAccountInstructionDataNtNtCs2ke5FKHNm4X_4core7default7Default7default
FN:109,_RNvMs1_NtNtNtCs7b1zZ6GD7vQ_21jito_restaking_client9generated12instructions26ncn_delegate_token_accountNtB5_30NcnDelegateTokenAccountBuilder3new
FN:113,_RNvMs1_NtNtNtCs7b1zZ6GD7vQ_21jito_restaking_client9generated12instructions26ncn_delegate_token_accountNtB5_30NcnDelegateTokenAccountBuilder3ncn
FN:118,_RNvMs1_NtNtNtCs7b1zZ6GD7vQ_21jito_restaking_client9generated12instructions26ncn_delegate_token_accountNtB5_30NcnDelegateTokenAccountBuilder14delegate_admin
FN:123,_RNvMs1_NtNtNtCs7b1zZ6GD7vQ_21jito_restaking_client9generated12instructions26ncn_delegate_token_accountNtB5_30NcnDelegateTokenAccountBuilder10token_mint
FN:128,_RNvMs1_NtNtNtCs7b1zZ6GD7vQ_21jito_restaking_client9generated12instructions26ncn_delegate_token_accountNtB5_30NcnDelegateTokenAccountBuilder13token_account
FN:133,_RNvMs1_NtNtNtCs7b1zZ6GD7vQ_21jito_restaking_client9generated12instructions26ncn_delegate_token_accountNtB5_30NcnDelegateTokenAccountBuilder8delegate
FN:139,_RNvMs1_NtNtNtCs7b1zZ6GD7vQ_21jito_restaking_client9generated12instructions26ncn_delegate_token_accountNtB5_30NcnDelegateTokenAccountBuilder13token_program
FN:145,_RNvMs1_NtNtNtCs7b1zZ6GD7vQ_21jito_restaking_client9generated12instructions26ncn_delegate_token_accountNtB5_30NcnDelegateTokenAccountBuilder21add_remaining_account
FN:154,_RNvMs1_NtNtNtCs7b1zZ6GD7vQ_21jito_restaking_client9generated12instructions26ncn_delegate_token_accountNtB5_30NcnDelegateTokenAccountBuilder22add_remaining_accounts
FN:162,_RNvMs1_NtNtNtCs7b1zZ6GD7vQ_21jito_restaking_client9generated12instructions26ncn_delegate_token_accountNtB5_30NcnDelegateTokenAccountBuilder11instruction
FN:212,_RNvMs2_NtNtNtCs7b1zZ6GD7vQ_21jito_restaking_client9generated12instructions26ncn_delegate_token_accountNtB5_26NcnDelegateTokenAccountCpi3new
FN:227,_RNvMs2_NtNtNtCs7b1zZ6GD7vQ_21jito_restaking_client9generated12instructions26ncn_delegate_token_accountNtB5_26NcnDelegateTokenAccountCpi6invoke
FN:231,_RNvMs2_NtNtNtCs7b1zZ6GD7vQ_21jito_restaking_client9generated12instructions26ncn_delegate_token_accountNtB5_26NcnDelegateTokenAccountCpi30invoke_with_remaining_accounts
FN:242,_RNvMs2_NtNtNtCs7b1zZ6GD7vQ_21jito_restaking_client9generated12instructions26ncn_delegate_token_accountNtB5_26NcnDelegateTokenAccountCpi13invoke_signed
FN:250,_RNvMs2_NtNtNtCs7b1zZ6GD7vQ_21jito_restaking_client9generated12instructions26ncn_delegate_token_accountNtB5_26NcnDelegateTokenAccountCpi37invoke_signed_with_remaining_accounts
FN:284,_RNCNvMs2_NtNtNtCs7b1zZ6GD7vQ_21jito_restaking_client9generated12instructions26ncn_delegate_token_accountNtB7_26NcnDelegateTokenAccountCpi37invoke_signed_with_remaining_accounts0Bd_
FN:310,_RNCNvMs2_NtNtNtCs7b1zZ6GD7vQ_21jito_restaking_client9generated12instructions26ncn_delegate_token_accountNtB7_26NcnDelegateTokenAccountCpi37invoke_signed_with_remaining_accountss_0Bd_
FN:336,_RNvMs3_NtNtNtCs7b1zZ6GD7vQ_21jito_restaking_client9generated12instructions26ncn_delegate_token_accountNtB5_33NcnDelegateTokenAccountCpiBuilder3new
FN:350,_RNvMs3_NtNtNtCs7b1zZ6GD7vQ_21jito_restaking_client9generated12instructions26ncn_delegate_token_accountNtB5_33NcnDelegateTokenAccountCpiBuilder3ncn
FN:355,_RNvMs3_NtNtNtCs7b1zZ6GD7vQ_21jito_restaking_client9generated12instructions26ncn_delegate_token_accountNtB5_33NcnDelegateTokenAccountCpiBuilder14delegate_admin
FN:363,_RNvMs3_NtNtNtCs7b1zZ6GD7vQ_21jito_restaking_client9generated12instructions26ncn_delegate_token_accountNtB5_33NcnDelegateTokenAccountCpiBuilder10token_mint
FN:371,_RNvMs3_NtNtNtCs7b1zZ6GD7vQ_21jito_restaking_client9generated12instructions26ncn_delegate_token_accountNtB5_33NcnDelegateTokenAccountCpiBuilder13token_account
FN:379,_RNvMs3_NtNtNtCs7b1zZ6GD7vQ_21jito_restaking_client9generated12instructions26ncn_delegate_token_accountNtB5_33NcnDelegateTokenAccountCpiBuilder8delegate
FN:387,_RNvMs3_NtNtNtCs7b1zZ6GD7vQ_21jito_restaking_client9generated12instructions26ncn_delegate_token_accountNtB5_33NcnDelegateTokenAccountCpiBuilder13token_program
FN:396,_RNvMs3_NtNtNtCs7b1zZ6GD7vQ_21jito_restaking_client9generated12instructions26ncn_delegate_token_accountNtB5_33NcnDelegateTokenAccountCpiBuilder21add_remaining_account
FN:412,_RNvMs3_NtNtNtCs7b1zZ6GD7vQ_21jito_restaking_client9generated12instructions26ncn_delegate_token_accountNtB5_33NcnDelegateTokenAccountCpiBuilder22add_remaining_accounts
FN:426,_RNvMs3_NtNtNtCs7b1zZ6GD7vQ_21jito_restaking_client9generated12instructions26ncn_delegate_token_accountNtB5_33NcnDelegateTokenAccountCpiBuilder6invoke
FN:431,_RNvMs3_NtNtNtCs7b1zZ6GD7vQ_21jito_restaking_client9generated12instructions26ncn_delegate_token_accountNtB5_33NcnDelegateTokenAccountCpiBuilder13invoke_signed
FNDA:0,_RNvMNtNtNtCs7b1zZ6GD7vQ_21jito_restaking_client9generated12instructions26ncn_delegate_token_accountNtB2_23NcnDelegateTokenAccount11instruction
FNDA:0,_RNvMNtNtNtCs7b1zZ6GD7vQ_21jito_restaking_client9generated12instructions26ncn_delegate_token_accountNtB2_23NcnDelegateTokenAccount35instruction_with_remaining_accounts
FNDA:0,_RINvXs4_NtNtNtCs7b1zZ6GD7vQ_21jito_restaking_client9generated12instructions26ncn_delegate_token_accountNtB6_38NcnDelegateTokenAccountInstructionDataNtNtCs7MwDlaQ6RmC_5borsh2de16BorshDeserialize18deserialize_readerpEBc_
FNDA:0,_RINvXs5_NtNtNtCs7b1zZ6GD7vQ_21jito_restaking_client9generated12instructions26ncn_delegate_token_accountNtB6_38NcnDelegateTokenAccountInstructionDataNtNtCs7MwDlaQ6RmC_5borsh3ser14BorshSerialize9serializepEBc_
FNDA:0,_RNvMs_NtNtNtCs7b1zZ6GD7vQ_21jito_restaking_client9generated12instructions26ncn_delegate_token_accountNtB4_38NcnDelegateTokenAccountInstructionData3new
FNDA:0,_RNvXs0_NtNtNtCs7b1zZ6GD7vQ_21jito_restaking_client9generated12instructions26ncn_delegate_token_accountNtB5_38NcnDelegateTokenAccountInstructionDataNtNtCs2ke5FKHNm4X_4core7default7Default7default
FNDA:0,_RNvMs1_NtNtNtCs7b1zZ6GD7vQ_21jito_restaking_client9generated12instructions26ncn_delegate_token_accountNtB5_30NcnDelegateTokenAccountBuilder3new
FNDA:0,_RNvMs1_NtNtNtCs7b1zZ6GD7vQ_21jito_restaking_client9generated12instructions26ncn_delegate_token_accountNtB5_30NcnDelegateTokenAccountBuilder3ncn
FNDA:0,_RNvMs1_NtNtNtCs7b1zZ6GD7vQ_21jito_restaking_client9generated12instructions26ncn_delegate_token_accountNtB5_30NcnDelegateTokenAccountBuilder14delegate_admin
FNDA:0,_RNvMs1_NtNtNtCs7b1zZ6GD7vQ_21jito_restaking_client9generated12instructions26ncn_delegate_token_accountNtB5_30NcnDelegateTokenAccountBuilder10token_mint
FNDA:0,_RNvMs1_NtNtNtCs7b1zZ6GD7vQ_21jito_restaking_client9generated12instructions26ncn_delegate_token_accountNtB5_30NcnDelegateTokenAccountBuilder13token_account
FNDA:0,_RNvMs1_NtNtNtCs7b1zZ6GD7vQ_21jito_restaking_client9generated12instructions26ncn_delegate_token_accountNtB5_30NcnDelegateTokenAccountBuilder8delegate
FNDA:0,_RNvMs1_NtNtNtCs7b1zZ6GD7vQ_21jito_restaking_client9generated12instructions26ncn_delegate_token_accountNtB5_30NcnDelegateTokenAccountBuilder13token_program
FNDA:0,_RNvMs1_NtNtNtCs7b1zZ6GD7vQ_21jito_restaking_client9generated12instructions26ncn_delegate_token_accountNtB5_30NcnDelegateTokenAccountBuilder21add_remaining_account
FNDA:0,_RNvMs1_NtNtNtCs7b1zZ6GD7vQ_21jito_restaking_client9generated12instructions26ncn_delegate_token_accountNtB5_30NcnDelegateTokenAccountBuilder22add_remaining_accounts
FNDA:0,_RNvMs1_NtNtNtCs7b1zZ6GD7vQ_21jito_restaking_client9generated12instructions26ncn_delegate_token_accountNtB5_30NcnDelegateTokenAccountBuilder11instruction
FNDA:0,_RNvMs2_NtNtNtCs7b1zZ6GD7vQ_21jito_restaking_client9generated12instructions26ncn_delegate_token_accountNtB5_26NcnDelegateTokenAccountCpi3new
FNDA:0,_RNvMs2_NtNtNtCs7b1zZ6GD7vQ_21jito_restaking_client9generated12instructions26ncn_delegate_token_accountNtB5_26NcnDelegateTokenAccountCpi6invoke
FNDA:0,_RNvMs2_NtNtNtCs7b1zZ6GD7vQ_21jito_restaking_client9generated12instructions26ncn_delegate_token_accountNtB5_26NcnDelegateTokenAccountCpi30invoke_with_remaining_accounts
FNDA:0,_RNvMs2_NtNtNtCs7b1zZ6GD7vQ_21jito_restaking_client9generated12instructions26ncn_delegate_token_accountNtB5_26NcnDelegateTokenAccountCpi13invoke_signed
FNDA:0,_RNvMs2_NtNtNtCs7b1zZ6GD7vQ_21jito_restaking_client9generated12instructions26ncn_delegate_token_accountNtB5_26NcnDelegateTokenAccountCpi37invoke_signed_with_remaining_accounts
FNDA:0,_RNCNvMs2_NtNtNtCs7b1zZ6GD7vQ_21jito_restaking_client9generated12instructions26ncn_delegate_token_accountNtB7_26NcnDelegateTokenAccountCpi37invoke_signed_with_remaining_accounts0Bd_
FNDA:0,_RNCNvMs2_NtNtNtCs7b1zZ6GD7vQ_21jito_restaking_client9generated12instructions26ncn_delegate_token_accountNtB7_26NcnDelegateTokenAccountCpi37invoke_signed_with_remaining_accountss_0Bd_
FNDA:0,_RNvMs3_NtNtNtCs7b1zZ6GD7vQ_21jito_restaking_client9generated12instructions26ncn_delegate_token_accountNtB5_33NcnDelegateTokenAccountCpiBuilder3new
FNDA:0,_RNvMs3_NtNtNtCs7b1zZ6GD7vQ_21jito_restaking_client9generated12instructions26ncn_delegate_token_accountNtB5_33NcnDelegateTokenAccountCpiBuilder3ncn
FNDA:0,_RNvMs3_NtNtNtCs7b1zZ6GD7vQ_21jito_restaking_client9generated12instructions26ncn_delegate_token_accountNtB5_33NcnDelegateTokenAccountCpiBuilder14delegate_admin
FNDA:0,_RNvMs3_NtNtNtCs7b1zZ6GD7vQ_21jito_restaking_client9generated12instructions26ncn_delegate_token_accountNtB5_33NcnDelegateTokenAccountCpiBuilder10token_mint
FNDA:0,_RNvMs3_NtNtNtCs7b1zZ6GD7vQ_21jito_restaking_client9generated12instructions26ncn_delegate_token_accountNtB5_33NcnDelegateTokenAccountCpiBuilder13token_account
FNDA:0,_RNvMs3_NtNtNtCs7b1zZ6GD7vQ_21jito_restaking_client9generated12instructions26ncn_delegate_token_accountNtB5_33NcnDelegateTokenAccountCpiBuilder8delegate
FNDA:0,_RNvMs3_NtNtNtCs7b1zZ6GD7vQ_21jito_restaking_client9generated12instructions26ncn_delegate_token_accountNtB5_33NcnDelegateTokenAccountCpiBuilder13token_program
FNDA:0,_RNvMs3_NtNtNtCs7b1zZ6GD7vQ_21jito_restaking_client9generated12instructions26ncn_delegate_token_accountNtB5_33NcnDelegateTokenAccountCpiBuilder21add_remaining_account
FNDA:0,_RNvMs3_NtNtNtCs7b1zZ6GD7vQ_21jito_restaking_client9generated12instructions26ncn_delegate_token_accountNtB5_33NcnDelegateTokenAccountCpiBuilder22add_remaining_accounts
FNDA:0,_RNvMs3_NtNtNtCs7b1zZ6GD7vQ_21jito_restaking_client9generated12instructions26ncn_delegate_token_accountNtB5_33NcnDelegateTokenAccountCpiBuilder6invoke
FNDA:0,_RNvMs3_NtNtNtCs7b1zZ6GD7vQ_21jito_restaking_client9generated12instructions26ncn_delegate_token_accountNtB5_33NcnDelegateTokenAccountCpiBuilder13invoke_signed
FNF:34
FNH:0
DA:25,0
DA:26,0
DA:27,0
DA:29,0
DA:30,0
DA:31,0
DA:32,0
DA:33,0
DA:34,0
DA:35,0
DA:36,0
DA:37,0
DA:38,0
DA:39,0
DA:40,0
DA:41,0
DA:42,0
DA:43,0
DA:44,0
DA:45,0
DA:46,0
DA:47,0
DA:48,0
DA:49,0
DA:50,0
DA:51,0
DA:52,0
DA:53,0
DA:54,0
DA:55,0
DA:56,0
DA:57,0
DA:58,0
DA:59,0
DA:60,0
DA:61,0
DA:62,0
DA:63,0
DA:64,0
DA:65,0
DA:66,0
DA:67,0
DA:70,0
DA:76,0
DA:77,0
DA:78,0
DA:82,0
DA:83,0
DA:84,0
DA:109,0
DA:110,0
DA:111,0
DA:113,0
DA:114,0
DA:115,0
DA:116,0
DA:118,0
DA:119,0
DA:120,0
DA:121,0
DA:123,0
DA:124,0
DA:125,0
DA:126,0
DA:128,0
DA:129,0
DA:130,0
DA:131,0
DA:133,0
DA:134,0
DA:135,0
DA:136,0
DA:139,0
DA:140,0
DA:141,0
DA:142,0
DA:145,0
DA:146,0
DA:147,0
DA:148,0
DA:149,0
DA:150,0
DA:151,0
DA:154,0
DA:155,0
DA:156,0
DA:157,0
DA:158,0
DA:159,0
DA:160,0
DA:162,0
DA:163,0
DA:164,0
DA:165,0
DA:166,0
DA:167,0
DA:168,0
DA:169,0
DA:170,0
DA:171,0
DA:172,0
DA:173,0
DA:174,0
DA:175,0
DA:212,0
DA:213,0
DA:214,0
DA:215,0
DA:216,0
DA:217,0
DA:218,0
DA:219,0
DA:220,0
DA:221,0
DA:222,0
DA:223,0
DA:224,0
DA:225,0
DA:227,0
DA:228,0
DA:229,0
DA:231,0
DA:232,0
DA:233,0
DA:234,0
DA:235,0
DA:236,0
DA:237,0
DA:238,0
DA:239,0
DA:240,0
DA:242,0
DA:243,0
DA:244,0
DA:245,0
DA:246,0
DA:247,0
DA:250,0
DA:251,0
DA:252,0
DA:253,0
DA:254,0
DA:255,0
DA:256,0
DA:257,0
DA:258,0
DA:259,0
DA:260,0
DA:261,0
DA:262,0
DA:263,0
DA:264,0
DA:265,0
DA:266,0
DA:267,0
DA:268,0
DA:269,0
DA:270,0
DA:271,0
DA:272,0
DA:273,0
DA:274,0
DA:275,0
DA:276,0
DA:277,0
DA:278,0
DA:279,0
DA:280,0
DA:281,0
DA:282,0
DA:283,0
DA:284,0
DA:285,0
DA:286,0
DA:287,0
DA:288,0
DA:289,0
DA:290,0
DA:291,0
DA:292,0
DA:293,0
DA:294,0
DA:295,0
DA:296,0
DA:297,0
DA:298,0
DA:299,0
DA:300,0
DA:301,0
DA:302,0
DA:303,0
DA:304,0
DA:305,0
DA:306,0
DA:307,0
DA:308,0
DA:309,0
DA:310,0
DA:311,0
DA:312,0
DA:313,0
DA:315,0
DA:317,0
DA:336,0
DA:337,0
DA:338,0
DA:339,0
DA:340,0
DA:341,0
DA:342,0
DA:343,0
DA:344,0
DA:345,0
DA:346,0
DA:347,0
DA:348,0
DA:350,0
DA:351,0
DA:352,0
DA:353,0
DA:355,0
DA:356,0
DA:357,0
DA:358,0
DA:359,0
DA:360,0
DA:361,0
DA:363,0
DA:364,0
DA:365,0
DA:366,0
DA:367,0
DA:368,0
DA:369,0
DA:371,0
DA:372,0
DA:373,0
DA:374,0
DA:375,0
DA:376,0
DA:377,0
DA:379,0
DA:380,0
DA:381,0
DA:382,0
DA:383,0
DA:384,0
DA:385,0
DA:387,0
DA:388,0
DA:389,0
DA:390,0
DA:391,0
DA:392,0
DA:393,0
DA:396,0
DA:397,0
DA:398,0
DA:399,0
DA:400,0
DA:401,0
DA:402,0
DA:403,0
DA:404,0
DA:405,0
DA:406,0
DA:412,0
DA:413,0
DA:414,0
DA:415,0
DA:416,0
DA:417,0
DA:418,0
DA:419,0
DA:420,0
DA:421,0
DA:422,0
DA:423,0
DA:424,0
DA:426,0
DA:427,0
DA:428,0
DA:431,0
DA:432,0
DA:433,0
DA:434,0
DA:435,0
DA:436,0
DA:437,0
DA:438,0
DA:439,0
DA:440,0
DA:441,0
DA:442,0
DA:443,0
DA:444,0
DA:445,0
DA:446,0
DA:447,0
DA:448,0
DA:449,0
DA:450,0
DA:451,0
DA:452,0
DA:453,0
DA:454,0
DA:455,0
DA:456,0
DA:457,0
DA:458,0
DA:459,0
DA:460,0
DA:461,0
DA:462,0
DA:463,0
BRF:0
BRH:0
LF:319
LH:0
end_of_record
SF:/Users/coach/Documents/Jito/restaking/clients/rust/restaking_client/src/generated/instructions/ncn_set_admin.rs
FN:19,_RNvMNtNtNtCs7b1zZ6GD7vQ_21jito_restaking_client9generated12instructions13ncn_set_adminNtB2_11NcnSetAdmin11instruction
FN:23,_RNvMNtNtNtCs7b1zZ6GD7vQ_21jito_restaking_client9generated12instructions13ncn_set_adminNtB2_11NcnSetAdmin35instruction_with_remaining_accounts
FN:50,_RINvXs4_NtNtNtCs7b1zZ6GD7vQ_21jito_restaking_client9generated12instructions13ncn_set_adminNtB6_26NcnSetAdminInstructionDataNtNtCs7MwDlaQ6RmC_5borsh2de16BorshDeserialize18deserialize_readerpEBc_
FN:50,_RINvXs5_NtNtNtCs7b1zZ6GD7vQ_21jito_restaking_client9generated12instructions13ncn_set_adminNtB6_26NcnSetAdminInstructionDataNtNtCs7MwDlaQ6RmC_5borsh3ser14BorshSerialize9serializepEBc_
FN:56,_RNvMs_NtNtNtCs7b1zZ6GD7vQ_21jito_restaking_client9generated12instructions13ncn_set_adminNtB4_26NcnSetAdminInstructionData3new
FN:62,_RNvXs0_NtNtNtCs7b1zZ6GD7vQ_21jito_restaking_client9generated12instructions13ncn_set_adminNtB5_26NcnSetAdminInstructionDataNtNtCs2ke5FKHNm4X_4core7default7Default7default
FN:83,_RNvMs1_NtNtNtCs7b1zZ6GD7vQ_21jito_restaking_client9generated12instructions13ncn_set_adminNtB5_18NcnSetAdminBuilder3new
FN:87,_RNvMs1_NtNtNtCs7b1zZ6GD7vQ_21jito_restaking_client9generated12instructions13ncn_set_adminNtB5_18NcnSetAdminBuilder3ncn
FN:92,_RNvMs1_NtNtNtCs7b1zZ6GD7vQ_21jito_restaking_client9generated12instructions13ncn_set_adminNtB5_18NcnSetAdminBuilder9old_admin
FN:97,_RNvMs1_NtNtNtCs7b1zZ6GD7vQ_21jito_restaking_client9generated12instructions13ncn_set_adminNtB5_18NcnSetAdminBuilder9new_admin
FN:103,_RNvMs1_NtNtNtCs7b1zZ6GD7vQ_21jito_restaking_client9generated12instructions13ncn_set_adminNtB5_18NcnSetAdminBuilder21add_remaining_account
FN:112,_RNvMs1_NtNtNtCs7b1zZ6GD7vQ_21jito_restaking_client9generated12instructions13ncn_set_adminNtB5_18NcnSetAdminBuilder22add_remaining_accounts
FN:120,_RNvMs1_NtNtNtCs7b1zZ6GD7vQ_21jito_restaking_client9generated12instructions13ncn_set_adminNtB5_18NcnSetAdminBuilder11instruction
FN:153,_RNvMs2_NtNtNtCs7b1zZ6GD7vQ_21jito_restaking_client9generated12instructions13ncn_set_adminNtB5_14NcnSetAdminCpi3new
FN:165,_RNvMs2_NtNtNtCs7b1zZ6GD7vQ_21jito_restaking_client9generated12instructions13ncn_set_adminNtB5_14NcnSetAdminCpi6invoke
FN:169,_RNvMs2_NtNtNtCs7b1zZ6GD7vQ_21jito_restaking_client9generated12instructions13ncn_set_adminNtB5_14NcnSetAdminCpi30invoke_with_remaining_accounts
FN:180,_RNvMs2_NtNtNtCs7b1zZ6GD7vQ_21jito_restaking_client9generated12instructions13ncn_set_adminNtB5_14NcnSetAdminCpi13invoke_signed
FN:188,_RNvMs2_NtNtNtCs7b1zZ6GD7vQ_21jito_restaking_client9generated12instructions13ncn_set_adminNtB5_14NcnSetAdminCpi37invoke_signed_with_remaining_accounts
FN:210,_RNCNvMs2_NtNtNtCs7b1zZ6GD7vQ_21jito_restaking_client9generated12instructions13ncn_set_adminNtB7_14NcnSetAdminCpi37invoke_signed_with_remaining_accounts0Bd_
FN:231,_RNCNvMs2_NtNtNtCs7b1zZ6GD7vQ_21jito_restaking_client9generated12instructions13ncn_set_adminNtB7_14NcnSetAdminCpi37invoke_signed_with_remaining_accountss_0Bd_
FN:254,_RNvMs3_NtNtNtCs7b1zZ6GD7vQ_21jito_restaking_client9generated12instructions13ncn_set_adminNtB5_21NcnSetAdminCpiBuilder3new
FN:265,_RNvMs3_NtNtNtCs7b1zZ6GD7vQ_21jito_restaking_client9generated12instructions13ncn_set_adminNtB5_21NcnSetAdminCpiBuilder3ncn
FN:270,_RNvMs3_NtNtNtCs7b1zZ6GD7vQ_21jito_restaking_client9generated12instructions13ncn_set_adminNtB5_21NcnSetAdminCpiBuilder9old_admin
FN:278,_RNvMs3_NtNtNtCs7b1zZ6GD7vQ_21jito_restaking_client9generated12instructions13ncn_set_adminNtB5_21NcnSetAdminCpiBuilder9new_admin
FN:287,_RNvMs3_NtNtNtCs7b1zZ6GD7vQ_21jito_restaking_client9generated12instructions13ncn_set_adminNtB5_21NcnSetAdminCpiBuilder21add_remaining_account
FN:303,_RNvMs3_NtNtNtCs7b1zZ6GD7vQ_21jito_restaking_client9generated12instructions13ncn_set_adminNtB5_21NcnSetAdminCpiBuilder22add_remaining_accounts
FN:317,_RNvMs3_NtNtNtCs7b1zZ6GD7vQ_21jito_restaking_client9generated12instructions13ncn_set_adminNtB5_21NcnSetAdminCpiBuilder6invoke
FN:322,_RNvMs3_NtNtNtCs7b1zZ6GD7vQ_21jito_restaking_client9generated12instructions13ncn_set_adminNtB5_21NcnSetAdminCpiBuilder13invoke_signed
FNDA:0,_RNvMNtNtNtCs7b1zZ6GD7vQ_21jito_restaking_client9generated12instructions13ncn_set_adminNtB2_11NcnSetAdmin11instruction
FNDA:0,_RNvMNtNtNtCs7b1zZ6GD7vQ_21jito_restaking_client9generated12instructions13ncn_set_adminNtB2_11NcnSetAdmin35instruction_with_remaining_accounts
FNDA:0,_RINvXs4_NtNtNtCs7b1zZ6GD7vQ_21jito_restaking_client9generated12instructions13ncn_set_adminNtB6_26NcnSetAdminInstructionDataNtNtCs7MwDlaQ6RmC_5borsh2de16BorshDeserialize18deserialize_readerpEBc_
FNDA:0,_RINvXs5_NtNtNtCs7b1zZ6GD7vQ_21jito_restaking_client9generated12instructions13ncn_set_adminNtB6_26NcnSetAdminInstructionDataNtNtCs7MwDlaQ6RmC_5borsh3ser14BorshSerialize9serializepEBc_
FNDA:0,_RNvMs_NtNtNtCs7b1zZ6GD7vQ_21jito_restaking_client9generated12instructions13ncn_set_adminNtB4_26NcnSetAdminInstructionData3new
FNDA:0,_RNvXs0_NtNtNtCs7b1zZ6GD7vQ_21jito_restaking_client9generated12instructions13ncn_set_adminNtB5_26NcnSetAdminInstructionDataNtNtCs2ke5FKHNm4X_4core7default7Default7default
FNDA:0,_RNvMs1_NtNtNtCs7b1zZ6GD7vQ_21jito_restaking_client9generated12instructions13ncn_set_adminNtB5_18NcnSetAdminBuilder3new
FNDA:0,_RNvMs1_NtNtNtCs7b1zZ6GD7vQ_21jito_restaking_client9generated12instructions13ncn_set_adminNtB5_18NcnSetAdminBuilder3ncn
FNDA:0,_RNvMs1_NtNtNtCs7b1zZ6GD7vQ_21jito_restaking_client9generated12instructions13ncn_set_adminNtB5_18NcnSetAdminBuilder9old_admin
FNDA:0,_RNvMs1_NtNtNtCs7b1zZ6GD7vQ_21jito_restaking_client9generated12instructions13ncn_set_adminNtB5_18NcnSetAdminBuilder9new_admin
FNDA:0,_RNvMs1_NtNtNtCs7b1zZ6GD7vQ_21jito_restaking_client9generated12instructions13ncn_set_adminNtB5_18NcnSetAdminBuilder21add_remaining_account
FNDA:0,_RNvMs1_NtNtNtCs7b1zZ6GD7vQ_21jito_restaking_client9generated12instructions13ncn_set_adminNtB5_18NcnSetAdminBuilder22add_remaining_accounts
FNDA:0,_RNvMs1_NtNtNtCs7b1zZ6GD7vQ_21jito_restaking_client9generated12instructions13ncn_set_adminNtB5_18NcnSetAdminBuilder11instruction
FNDA:0,_RNvMs2_NtNtNtCs7b1zZ6GD7vQ_21jito_restaking_client9generated12instructions13ncn_set_adminNtB5_14NcnSetAdminCpi3new
FNDA:0,_RNvMs2_NtNtNtCs7b1zZ6GD7vQ_21jito_restaking_client9generated12instructions13ncn_set_adminNtB5_14NcnSetAdminCpi6invoke
FNDA:0,_RNvMs2_NtNtNtCs7b1zZ6GD7vQ_21jito_restaking_client9generated12instructions13ncn_set_adminNtB5_14NcnSetAdminCpi30invoke_with_remaining_accounts
FNDA:0,_RNvMs2_NtNtNtCs7b1zZ6GD7vQ_21jito_restaking_client9generated12instructions13ncn_set_adminNtB5_14NcnSetAdminCpi13invoke_signed
FNDA:0,_RNvMs2_NtNtNtCs7b1zZ6GD7vQ_21jito_restaking_client9generated12instructions13ncn_set_adminNtB5_14NcnSetAdminCpi37invoke_signed_with_remaining_accounts
FNDA:0,_RNCNvMs2_NtNtNtCs7b1zZ6GD7vQ_21jito_restaking_client9generated12instructions13ncn_set_adminNtB7_14NcnSetAdminCpi37invoke_signed_with_remaining_accounts0Bd_
FNDA:0,_RNCNvMs2_NtNtNtCs7b1zZ6GD7vQ_21jito_restaking_client9generated12instructions13ncn_set_adminNtB7_14NcnSetAdminCpi37invoke_signed_with_remaining_accountss_0Bd_
FNDA:0,_RNvMs3_NtNtNtCs7b1zZ6GD7vQ_21jito_restaking_client9generated12instructions13ncn_set_adminNtB5_21NcnSetAdminCpiBuilder3new
FNDA:0,_RNvMs3_NtNtNtCs7b1zZ6GD7vQ_21jito_restaking_client9generated12instructions13ncn_set_adminNtB5_21NcnSetAdminCpiBuilder3ncn
FNDA:0,_RNvMs3_NtNtNtCs7b1zZ6GD7vQ_21jito_restaking_client9generated12instructions13ncn_set_adminNtB5_21NcnSetAdminCpiBuilder9old_admin
FNDA:0,_RNvMs3_NtNtNtCs7b1zZ6GD7vQ_21jito_restaking_client9generated12instructions13ncn_set_adminNtB5_21NcnSetAdminCpiBuilder9new_admin
FNDA:0,_RNvMs3_NtNtNtCs7b1zZ6GD7vQ_21jito_restaking_client9generated12instructions13ncn_set_adminNtB5_21NcnSetAdminCpiBuilder21add_remaining_account
FNDA:0,_RNvMs3_NtNtNtCs7b1zZ6GD7vQ_21jito_restaking_client9generated12instructions13ncn_set_adminNtB5_21NcnSetAdminCpiBuilder22add_remaining_accounts
FNDA:0,_RNvMs3_NtNtNtCs7b1zZ6GD7vQ_21jito_restaking_client9generated12instructions13ncn_set_adminNtB5_21NcnSetAdminCpiBuilder6invoke
FNDA:0,_RNvMs3_NtNtNtCs7b1zZ6GD7vQ_21jito_restaking_client9generated12instructions13ncn_set_adminNtB5_21NcnSetAdminCpiBuilder13invoke_signed
FNF:28
FNH:0
DA:19,0
DA:20,0
DA:21,0
DA:23,0
DA:24,0
DA:25,0
DA:26,0
DA:27,0
DA:28,0
DA:29,0
DA:30,0
DA:31,0
DA:32,0
DA:33,0
DA:34,0
DA:35,0
DA:36,0
DA:37,0
DA:38,0
DA:39,0
DA:40,0
DA:41,0
DA:42,0
DA:43,0
DA:44,0
DA:45,0
DA:46,0
DA:47,0
DA:50,0
DA:56,0
DA:57,0
DA:58,0
DA:62,0
DA:63,0
DA:64,0
DA:83,0
DA:84,0
DA:85,0
DA:87,0
DA:88,0
DA:89,0
DA:90,0
DA:92,0
DA:93,0
DA:94,0
DA:95,0
DA:97,0
DA:98,0
DA:99,0
DA:100,0
DA:103,0
DA:104,0
DA:105,0
DA:106,0
DA:107,0
DA:108,0
DA:109,0
DA:112,0
DA:113,0
DA:114,0
DA:115,0
DA:116,0
DA:117,0
DA:118,0
DA:120,0
DA:121,0
DA:122,0
DA:123,0
DA:124,0
DA:125,0
DA:126,0
DA:127,0
DA:128,0
DA:153,0
DA:154,0
DA:155,0
DA:156,0
DA:157,0
DA:158,0
DA:159,0
DA:160,0
DA:161,0
DA:162,0
DA:163,0
DA:165,0
DA:166,0
DA:167,0
DA:169,0
DA:170,0
DA:171,0
DA:172,0
DA:173,0
DA:174,0
DA:175,0
DA:176,0
DA:177,0
DA:178,0
DA:180,0
DA:181,0
DA:182,0
DA:183,0
DA:184,0
DA:185,0
DA:188,0
DA:189,0
DA:190,0
DA:191,0
DA:192,0
DA:193,0
DA:194,0
DA:195,0
DA:196,0
DA:197,0
DA:198,0
DA:199,0
DA:200,0
DA:201,0
DA:202,0
DA:203,0
DA:204,0
DA:205,0
DA:206,0
DA:207,0
DA:208,0
DA:209,0
DA:210,0
DA:211,0
DA:212,0
DA:213,0
DA:214,0
DA:215,0
DA:216,0
DA:217,0
DA:218,0
DA:219,0
DA:220,0
DA:221,0
DA:222,0
DA:223,0
DA:224,0
DA:225,0
DA:226,0
DA:227,0
DA:228,0
DA:229,0
DA:230,0
DA:231,0
DA:232,0
DA:233,0
DA:234,0
DA:236,0
DA:238,0
DA:254,0
DA:255,0
DA:256,0
DA:257,0
DA:258,0
DA:259,0
DA:260,0
DA:261,0
DA:262,0
DA:263,0
DA:265,0
DA:266,0
DA:267,0
DA:268,0
DA:270,0
DA:271,0
DA:272,0
DA:273,0
DA:274,0
DA:275,0
DA:276,0
DA:278,0
DA:279,0
DA:280,0
DA:281,0
DA:282,0
DA:283,0
DA:284,0
DA:287,0
DA:288,0
DA:289,0
DA:290,0
DA:291,0
DA:292,0
DA:293,0
DA:294,0
DA:295,0
DA:296,0
DA:297,0
DA:303,0
DA:304,0
DA:305,0
DA:306,0
DA:307,0
DA:308,0
DA:309,0
DA:310,0
DA:311,0
DA:312,0
DA:313,0
DA:314,0
DA:315,0
DA:317,0
DA:318,0
DA:319,0
DA:322,0
DA:323,0
DA:324,0
DA:325,0
DA:326,0
DA:327,0
DA:328,0
DA:329,0
DA:330,0
DA:331,0
DA:332,0
DA:333,0
DA:334,0
DA:335,0
DA:336,0
DA:337,0
DA:338,0
DA:339,0
BRF:0
BRH:0
LF:229
LH:0
end_of_record
SF:/Users/coach/Documents/Jito/restaking/clients/rust/restaking_client/src/generated/instructions/ncn_set_secondary_admin.rs
FN:21,_RNvMNtNtNtCs7b1zZ6GD7vQ_21jito_restaking_client9generated12instructions23ncn_set_secondary_adminNtB2_20NcnSetSecondaryAdmin11instruction
FN:28,_RNvMNtNtNtCs7b1zZ6GD7vQ_21jito_restaking_client9generated12instructions23ncn_set_secondary_adminNtB2_20NcnSetSecondaryAdmin35instruction_with_remaining_accounts
FN:59,_RINvXs4_NtNtNtCs7b1zZ6GD7vQ_21jito_restaking_client9generated12instructions23ncn_set_secondary_adminNtB6_35NcnSetSecondaryAdminInstructionDataNtNtCs7MwDlaQ6RmC_5borsh2de16BorshDeserialize18deserialize_readerpEBc_
FN:59,_RINvXs5_NtNtNtCs7b1zZ6GD7vQ_21jito_restaking_client9generated12instructions23ncn_set_secondary_adminNtB6_35NcnSetSecondaryAdminInstructionDataNtNtCs7MwDlaQ6RmC_5borsh3ser14BorshSerialize9serializepEBc_
FN:65,_RNvMs_NtNtNtCs7b1zZ6GD7vQ_21jito_restaking_client9generated12instructions23ncn_set_secondary_adminNtB4_35NcnSetSecondaryAdminInstructionData3new
FN:71,_RNvXs0_NtNtNtCs7b1zZ6GD7vQ_21jito_restaking_client9generated12instructions23ncn_set_secondary_adminNtB5_35NcnSetSecondaryAdminInstructionDataNtNtCs2ke5FKHNm4X_4core7default7Default7default
FN:77,_RNvXNvXNvNtNtNtCs7b1zZ6GD7vQ_21jito_restaking_client9generated12instructions23ncn_set_secondary_admins_1__NtB7_35NcnSetSecondaryAdminInstructionArgsNtNtCsdCf1W31ya0G_5serde2de11Deserialize11deserializeNtB2_14___FieldVisitorNtB2o_7Visitor9expecting
FN:77,_RINvXNvXNvNtNtNtCs7b1zZ6GD7vQ_21jito_restaking_client9generated12instructions23ncn_set_secondary_admins_1__NtB8_35NcnSetSecondaryAdminInstructionArgsNtNtCsdCf1W31ya0G_5serde2de11Deserialize11deserializeNtB3_14___FieldVisitorNtB2p_7Visitor9visit_u64pEBe_
FN:77,_RINvXNvXNvNtNtNtCs7b1zZ6GD7vQ_21jito_restaking_client9generated12instructions23ncn_set_secondary_admins_1__NtB8_35NcnSetSecondaryAdminInstructionArgsNtNtCsdCf1W31ya0G_5serde2de11Deserialize11deserializeNtB3_14___FieldVisitorNtB2p_7Visitor9visit_strpEBe_
FN:77,_RINvXNvXNvNtNtNtCs7b1zZ6GD7vQ_21jito_restaking_client9generated12instructions23ncn_set_secondary_admins_1__NtB8_35NcnSetSecondaryAdminInstructionArgsNtNtCsdCf1W31ya0G_5serde2de11Deserialize11deserializeNtB3_14___FieldVisitorNtB2p_7Visitor11visit_bytespEBe_
FN:77,_RINvXs_NvXNvNtNtNtCs7b1zZ6GD7vQ_21jito_restaking_client9generated12instructions23ncn_set_secondary_admins_1__NtBa_35NcnSetSecondaryAdminInstructionArgsNtNtCsdCf1W31ya0G_5serde2de11Deserialize11deserializeNtB5_7___FieldB2p_11deserializepEBg_
FN:77,_RNvXs0_NvXNvNtNtNtCs7b1zZ6GD7vQ_21jito_restaking_client9generated12instructions23ncn_set_secondary_admins_1__NtBa_35NcnSetSecondaryAdminInstructionArgsNtNtCsdCf1W31ya0G_5serde2de11Deserialize11deserializeNtB5_9___VisitorNtB2r_7Visitor9expecting
FN:77,_RINvXs0_NvXNvNtNtNtCs7b1zZ6GD7vQ_21jito_restaking_client9generated12instructions23ncn_set_secondary_admins_1__NtBb_35NcnSetSecondaryAdminInstructionArgsNtNtCsdCf1W31ya0G_5serde2de11Deserialize11deserializeNtB6_9___VisitorNtB2s_7Visitor9visit_seqpEBh_
FN:77,_RINvXs0_NvXNvNtNtNtCs7b1zZ6GD7vQ_21jito_restaking_client9generated12instructions23ncn_set_secondary_admins_1__NtBb_35NcnSetSecondaryAdminInstructionArgsNtNtCsdCf1W31ya0G_5serde2de11Deserialize11deserializeNtB6_9___VisitorNtB2s_7Visitor9visit_mappEBh_
FN:76,_RINvXs6_NtNtNtCs7b1zZ6GD7vQ_21jito_restaking_client9generated12instructions23ncn_set_secondary_adminNtB6_35NcnSetSecondaryAdminInstructionArgsNtNtCs7MwDlaQ6RmC_5borsh3ser14BorshSerialize9serializepEBc_
FN:76,_RINvXs7_NtNtNtCs7b1zZ6GD7vQ_21jito_restaking_client9generated12instructions23ncn_set_secondary_adminNtB6_35NcnSetSecondaryAdminInstructionArgsNtNtCs7MwDlaQ6RmC_5borsh2de16BorshDeserialize18deserialize_readerpEBc_
FN:99,_RNvMs1_NtNtNtCs7b1zZ6GD7vQ_21jito_restaking_client9generated12instructions23ncn_set_secondary_adminNtB5_27NcnSetSecondaryAdminBuilder3new
FN:103,_RNvMs1_NtNtNtCs7b1zZ6GD7vQ_21jito_restaking_client9generated12instructions23ncn_set_secondary_adminNtB5_27NcnSetSecondaryAdminBuilder3ncn
FN:108,_RNvMs1_NtNtNtCs7b1zZ6GD7vQ_21jito_restaking_client9generated12instructions23ncn_set_secondary_adminNtB5_27NcnSetSecondaryAdminBuilder5admin
FN:113,_RNvMs1_NtNtNtCs7b1zZ6GD7vQ_21jito_restaking_client9generated12instructions23ncn_set_secondary_adminNtB5_27NcnSetSecondaryAdminBuilder9new_admin
FN:118,_RNvMs1_NtNtNtCs7b1zZ6GD7vQ_21jito_restaking_client9generated12instructions23ncn_set_secondary_adminNtB5_27NcnSetSecondaryAdminBuilder14ncn_admin_role
FN:124,_RNvMs1_NtNtNtCs7b1zZ6GD7vQ_21jito_restaking_client9generated12instructions23ncn_set_secondary_adminNtB5_27NcnSetSecondaryAdminBuilder21add_remaining_account
FN:133,_RNvMs1_NtNtNtCs7b1zZ6GD7vQ_21jito_restaking_client9generated12instructions23ncn_set_secondary_adminNtB5_27NcnSetSecondaryAdminBuilder22add_remaining_accounts
FN:141,_RNvMs1_NtNtNtCs7b1zZ6GD7vQ_21jito_restaking_client9generated12instructions23ncn_set_secondary_adminNtB5_27NcnSetSecondaryAdminBuilder11instruction
FN:182,_RNvMs2_NtNtNtCs7b1zZ6GD7vQ_21jito_restaking_client9generated12instructions23ncn_set_secondary_adminNtB5_23NcnSetSecondaryAdminCpi3new
FN:196,_RNvMs2_NtNtNtCs7b1zZ6GD7vQ_21jito_restaking_client9generated12instructions23ncn_set_secondary_adminNtB5_23NcnSetSecondaryAdminCpi6invoke
FN:200,_RNvMs2_NtNtNtCs7b1zZ6GD7vQ_21jito_restaking_client9generated12instructions23ncn_set_secondary_adminNtB5_23NcnSetSecondaryAdminCpi30invoke_with_remaining_accounts
FN:211,_RNvMs2_NtNtNtCs7b1zZ6GD7vQ_21jito_restaking_client9generated12instructions23ncn_set_secondary_adminNtB5_23NcnSetSecondaryAdminCpi13invoke_signed
FN:219,_RNvMs2_NtNtNtCs7b1zZ6GD7vQ_21jito_restaking_client9generated12instructions23ncn_set_secondary_adminNtB5_23NcnSetSecondaryAdminCpi37invoke_signed_with_remaining_accounts
FN:241,_RNCNvMs2_NtNtNtCs7b1zZ6GD7vQ_21jito_restaking_client9generated12instructions23ncn_set_secondary_adminNtB7_23NcnSetSecondaryAdminCpi37invoke_signed_with_remaining_accounts0Bd_
FN:266,_RNCNvMs2_NtNtNtCs7b1zZ6GD7vQ_21jito_restaking_client9generated12instructions23ncn_set_secondary_adminNtB7_23NcnSetSecondaryAdminCpi37invoke_signed_with_remaining_accountss_0Bd_
FN:289,_RNvMs3_NtNtNtCs7b1zZ6GD7vQ_21jito_restaking_client9generated12instructions23ncn_set_secondary_adminNtB5_30NcnSetSecondaryAdminCpiBuilder3new
FN:301,_RNvMs3_NtNtNtCs7b1zZ6GD7vQ_21jito_restaking_client9generated12instructions23ncn_set_secondary_adminNtB5_30NcnSetSecondaryAdminCpiBuilder3ncn
FN:306,_RNvMs3_NtNtNtCs7b1zZ6GD7vQ_21jito_restaking_client9generated12instructions23ncn_set_secondary_adminNtB5_30NcnSetSecondaryAdminCpiBuilder5admin
FN:311,_RNvMs3_NtNtNtCs7b1zZ6GD7vQ_21jito_restaking_client9generated12instructions23ncn_set_secondary_adminNtB5_30NcnSetSecondaryAdminCpiBuilder9new_admin
FN:319,_RNvMs3_NtNtNtCs7b1zZ6GD7vQ_21jito_restaking_client9generated12instructions23ncn_set_secondary_adminNtB5_30NcnSetSecondaryAdminCpiBuilder14ncn_admin_role
FN:325,_RNvMs3_NtNtNtCs7b1zZ6GD7vQ_21jito_restaking_client9generated12instructions23ncn_set_secondary_adminNtB5_30NcnSetSecondaryAdminCpiBuilder21add_remaining_account
FN:341,_RNvMs3_NtNtNtCs7b1zZ6GD7vQ_21jito_restaking_client9generated12instructions23ncn_set_secondary_adminNtB5_30NcnSetSecondaryAdminCpiBuilder22add_remaining_accounts
FN:355,_RNvMs3_NtNtNtCs7b1zZ6GD7vQ_21jito_restaking_client9generated12instructions23ncn_set_secondary_adminNtB5_30NcnSetSecondaryAdminCpiBuilder6invoke
FN:360,_RNvMs3_NtNtNtCs7b1zZ6GD7vQ_21jito_restaking_client9generated12instructions23ncn_set_secondary_adminNtB5_30NcnSetSecondaryAdminCpiBuilder13invoke_signed
FNDA:0,_RNvMNtNtNtCs7b1zZ6GD7vQ_21jito_restaking_client9generated12instructions23ncn_set_secondary_adminNtB2_20NcnSetSecondaryAdmin11instruction
FNDA:0,_RNvMNtNtNtCs7b1zZ6GD7vQ_21jito_restaking_client9generated12instructions23ncn_set_secondary_adminNtB2_20NcnSetSecondaryAdmin35instruction_with_remaining_accounts
FNDA:0,_RINvXs4_NtNtNtCs7b1zZ6GD7vQ_21jito_restaking_client9generated12instructions23ncn_set_secondary_adminNtB6_35NcnSetSecondaryAdminInstructionDataNtNtCs7MwDlaQ6RmC_5borsh2de16BorshDeserialize18deserialize_readerpEBc_
FNDA:0,_RINvXs5_NtNtNtCs7b1zZ6GD7vQ_21jito_restaking_client9generated12instructions23ncn_set_secondary_adminNtB6_35NcnSetSecondaryAdminInstructionDataNtNtCs7MwDlaQ6RmC_5borsh3ser14BorshSerialize9serializepEBc_
FNDA:0,_RNvMs_NtNtNtCs7b1zZ6GD7vQ_21jito_restaking_client9generated12instructions23ncn_set_secondary_adminNtB4_35NcnSetSecondaryAdminInstructionData3new
FNDA:0,_RNvXs0_NtNtNtCs7b1zZ6GD7vQ_21jito_restaking_client9generated12instructions23ncn_set_secondary_adminNtB5_35NcnSetSecondaryAdminInstructionDataNtNtCs2ke5FKHNm4X_4core7default7Default7default
FNDA:0,_RNvXNvXNvNtNtNtCs7b1zZ6GD7vQ_21jito_restaking_client9generated12instructions23ncn_set_secondary_admins_1__NtB7_35NcnSetSecondaryAdminInstructionArgsNtNtCsdCf1W31ya0G_5serde2de11Deserialize11deserializeNtB2_14___FieldVisitorNtB2o_7Visitor9expecting
FNDA:0,_RINvXNvXNvNtNtNtCs7b1zZ6GD7vQ_21jito_restaking_client9generated12instructions23ncn_set_secondary_admins_1__NtB8_35NcnSetSecondaryAdminInstructionArgsNtNtCsdCf1W31ya0G_5serde2de11Deserialize11deserializeNtB3_14___FieldVisitorNtB2p_7Visitor9visit_u64pEBe_
FNDA:0,_RINvXNvXNvNtNtNtCs7b1zZ6GD7vQ_21jito_restaking_client9generated12instructions23ncn_set_secondary_admins_1__NtB8_35NcnSetSecondaryAdminInstructionArgsNtNtCsdCf1W31ya0G_5serde2de11Deserialize11deserializeNtB3_14___FieldVisitorNtB2p_7Visitor9visit_strpEBe_
FNDA:0,_RINvXNvXNvNtNtNtCs7b1zZ6GD7vQ_21jito_restaking_client9generated12instructions23ncn_set_secondary_admins_1__NtB8_35NcnSetSecondaryAdminInstructionArgsNtNtCsdCf1W31ya0G_5serde2de11Deserialize11deserializeNtB3_14___FieldVisitorNtB2p_7Visitor11visit_bytespEBe_
FNDA:0,_RINvXs_NvXNvNtNtNtCs7b1zZ6GD7vQ_21jito_restaking_client9generated12instructions23ncn_set_secondary_admins_1__NtBa_35NcnSetSecondaryAdminInstructionArgsNtNtCsdCf1W31ya0G_5serde2de11Deserialize11deserializeNtB5_7___FieldB2p_11deserializepEBg_
FNDA:0,_RNvXs0_NvXNvNtNtNtCs7b1zZ6GD7vQ_21jito_restaking_client9generated12instructions23ncn_set_secondary_admins_1__NtBa_35NcnSetSecondaryAdminInstructionArgsNtNtCsdCf1W31ya0G_5serde2de11Deserialize11deserializeNtB5_9___VisitorNtB2r_7Visitor9expecting
FNDA:0,_RINvXs0_NvXNvNtNtNtCs7b1zZ6GD7vQ_21jito_restaking_client9generated12instructions23ncn_set_secondary_admins_1__NtBb_35NcnSetSecondaryAdminInstructionArgsNtNtCsdCf1W31ya0G_5serde2de11Deserialize11deserializeNtB6_9___VisitorNtB2s_7Visitor9visit_seqpEBh_
FNDA:0,_RINvXs0_NvXNvNtNtNtCs7b1zZ6GD7vQ_21jito_restaking_client9generated12instructions23ncn_set_secondary_admins_1__NtBb_35NcnSetSecondaryAdminInstructionArgsNtNtCsdCf1W31ya0G_5serde2de11Deserialize11deserializeNtB6_9___VisitorNtB2s_7Visitor9visit_mappEBh_
FNDA:0,_RINvXs6_NtNtNtCs7b1zZ6GD7vQ_21jito_restaking_client9generated12instructions23ncn_set_secondary_adminNtB6_35NcnSetSecondaryAdminInstructionArgsNtNtCs7MwDlaQ6RmC_5borsh3ser14BorshSerialize9serializepEBc_
FNDA:0,_RINvXs7_NtNtNtCs7b1zZ6GD7vQ_21jito_restaking_client9generated12instructions23ncn_set_secondary_adminNtB6_35NcnSetSecondaryAdminInstructionArgsNtNtCs7MwDlaQ6RmC_5borsh2de16BorshDeserialize18deserialize_readerpEBc_
FNDA:0,_RNvMs1_NtNtNtCs7b1zZ6GD7vQ_21jito_restaking_client9generated12instructions23ncn_set_secondary_adminNtB5_27NcnSetSecondaryAdminBuilder3new
FNDA:0,_RNvMs1_NtNtNtCs7b1zZ6GD7vQ_21jito_restaking_client9generated12instructions23ncn_set_secondary_adminNtB5_27NcnSetSecondaryAdminBuilder3ncn
FNDA:0,_RNvMs1_NtNtNtCs7b1zZ6GD7vQ_21jito_restaking_client9generated12instructions23ncn_set_secondary_adminNtB5_27NcnSetSecondaryAdminBuilder5admin
FNDA:0,_RNvMs1_NtNtNtCs7b1zZ6GD7vQ_21jito_restaking_client9generated12instructions23ncn_set_secondary_adminNtB5_27NcnSetSecondaryAdminBuilder9new_admin
FNDA:0,_RNvMs1_NtNtNtCs7b1zZ6GD7vQ_21jito_restaking_client9generated12instructions23ncn_set_secondary_adminNtB5_27NcnSetSecondaryAdminBuilder14ncn_admin_role
FNDA:0,_RNvMs1_NtNtNtCs7b1zZ6GD7vQ_21jito_restaking_client9generated12instructions23ncn_set_secondary_adminNtB5_27NcnSetSecondaryAdminBuilder21add_remaining_account
FNDA:0,_RNvMs1_NtNtNtCs7b1zZ6GD7vQ_21jito_restaking_client9generated12instructions23ncn_set_secondary_adminNtB5_27NcnSetSecondaryAdminBuilder22add_remaining_accounts
FNDA:0,_RNvMs1_NtNtNtCs7b1zZ6GD7vQ_21jito_restaking_client9generated12instructions23ncn_set_secondary_adminNtB5_27NcnSetSecondaryAdminBuilder11instruction
FNDA:0,_RNvMs2_NtNtNtCs7b1zZ6GD7vQ_21jito_restaking_client9generated12instructions23ncn_set_secondary_adminNtB5_23NcnSetSecondaryAdminCpi3new
FNDA:0,_RNvMs2_NtNtNtCs7b1zZ6GD7vQ_21jito_restaking_client9generated12instructions23ncn_set_secondary_adminNtB5_23NcnSetSecondaryAdminCpi6invoke
FNDA:0,_RNvMs2_NtNtNtCs7b1zZ6GD7vQ_21jito_restaking_client9generated12instructions23ncn_set_secondary_adminNtB5_23NcnSetSecondaryAdminCpi30invoke_with_remaining_accounts
FNDA:0,_RNvMs2_NtNtNtCs7b1zZ6GD7vQ_21jito_restaking_client9generated12instructions23ncn_set_secondary_adminNtB5_23NcnSetSecondaryAdminCpi13invoke_signed
FNDA:0,_RNvMs2_NtNtNtCs7b1zZ6GD7vQ_21jito_restaking_client9generated12instructions23ncn_set_secondary_adminNtB5_23NcnSetSecondaryAdminCpi37invoke_signed_with_remaining_accounts
FNDA:0,_RNCNvMs2_NtNtNtCs7b1zZ6GD7vQ_21jito_restaking_client9generated12instructions23ncn_set_secondary_adminNtB7_23NcnSetSecondaryAdminCpi37invoke_signed_with_remaining_accounts0Bd_
FNDA:0,_RNCNvMs2_NtNtNtCs7b1zZ6GD7vQ_21jito_restaking_client9generated12instructions23ncn_set_secondary_adminNtB7_23NcnSetSecondaryAdminCpi37invoke_signed_with_remaining_accountss_0Bd_
FNDA:0,_RNvMs3_NtNtNtCs7b1zZ6GD7vQ_21jito_restaking_client9generated12instructions23ncn_set_secondary_adminNtB5_30NcnSetSecondaryAdminCpiBuilder3new
FNDA:0,_RNvMs3_NtNtNtCs7b1zZ6GD7vQ_21jito_restaking_client9generated12instructions23ncn_set_secondary_adminNtB5_30NcnSetSecondaryAdminCpiBuilder3ncn
FNDA:0,_RNvMs3_NtNtNtCs7b1zZ6GD7vQ_21jito_restaking_client9generated12instructions23ncn_set_secondary_adminNtB5_30NcnSetSecondaryAdminCpiBuilder5admin
FNDA:0,_RNvMs3_NtNtNtCs7b1zZ6GD7vQ_21jito_restaking_client9generated12instructions23ncn_set_secondary_adminNtB5_30NcnSetSecondaryAdminCpiBuilder9new_admin
FNDA:0,_RNvMs3_NtNtNtCs7b1zZ6GD7vQ_21jito_restaking_client9generated12instructions23ncn_set_secondary_adminNtB5_30NcnSetSecondaryAdminCpiBuilder14ncn_admin_role
FNDA:0,_RNvMs3_NtNtNtCs7b1zZ6GD7vQ_21jito_restaking_client9generated12instructions23ncn_set_secondary_adminNtB5_30NcnSetSecondaryAdminCpiBuilder21add_remaining_account
FNDA:0,_RNvMs3_NtNtNtCs7b1zZ6GD7vQ_21jito_restaking_client9generated12instructions23ncn_set_secondary_adminNtB5_30NcnSetSecondaryAdminCpiBuilder22add_remaining_accounts
FNDA:0,_RNvMs3_NtNtNtCs7b1zZ6GD7vQ_21jito_restaking_client9generated12instructions23ncn_set_secondary_adminNtB5_30NcnSetSecondaryAdminCpiBuilder6invoke
FNDA:0,_RNvMs3_NtNtNtCs7b1zZ6GD7vQ_21jito_restaking_client9generated12instructions23ncn_set_secondary_adminNtB5_30NcnSetSecondaryAdminCpiBuilder13invoke_signed
FNF:33
FNH:0
DA:21,0
DA:22,0
DA:23,0
DA:24,0
DA:25,0
DA:26,0
DA:28,0
DA:29,0
DA:30,0
DA:31,0
DA:32,0
DA:33,0
DA:34,0
DA:35,0
DA:36,0
DA:37,0
DA:38,0
DA:39,0
DA:40,0
DA:41,0
DA:42,0
DA:43,0
DA:44,0
DA:45,0
DA:46,0
DA:47,0
DA:48,0
DA:49,0
DA:50,0
DA:51,0
DA:52,0
DA:53,0
DA:54,0
DA:55,0
DA:56,0
DA:59,0
DA:65,0
DA:66,0
DA:67,0
DA:71,0
DA:72,0
DA:73,0
DA:76,0
DA:77,0
DA:99,0
DA:100,0
DA:101,0
DA:103,0
DA:104,0
DA:105,0
DA:106,0
DA:108,0
DA:109,0
DA:110,0
DA:111,0
DA:113,0
DA:114,0
DA:115,0
DA:116,0
DA:118,0
DA:119,0
DA:120,0
DA:121,0
DA:124,0
DA:125,0
DA:126,0
DA:127,0
DA:128,0
DA:129,0
DA:130,0
DA:133,0
DA:134,0
DA:135,0
DA:136,0
DA:137,0
DA:138,0
DA:139,0
DA:141,0
DA:142,0
DA:143,0
DA:144,0
DA:145,0
DA:146,0
DA:147,0
DA:148,0
DA:149,0
DA:150,0
DA:151,0
DA:152,0
DA:153,0
DA:154,0
DA:155,0
DA:182,0
DA:183,0
DA:184,0
DA:185,0
DA:186,0
DA:187,0
DA:188,0
DA:189,0
DA:190,0
DA:191,0
DA:192,0
DA:193,0
DA:194,0
DA:196,0
DA:197,0
DA:198,0
DA:200,0
DA:201,0
DA:202,0
DA:203,0
DA:204,0
DA:205,0
DA:206,0
DA:207,0
DA:208,0
DA:209,0
DA:211,0
DA:212,0
DA:213,0
DA:214,0
DA:215,0
DA:216,0
DA:219,0
DA:220,0
DA:221,0
DA:222,0
DA:223,0
DA:224,0
DA:225,0
DA:226,0
DA:227,0
DA:228,0
DA:229,0
DA:230,0
DA:231,0
DA:232,0
DA:233,0
DA:234,0
DA:235,0
DA:236,0
DA:237,0
DA:238,0
DA:239,0
DA:240,0
DA:241,0
DA:242,0
DA:243,0
DA:244,0
DA:245,0
DA:246,0
DA:247,0
DA:248,0
DA:249,0
DA:250,0
DA:251,0
DA:252,0
DA:253,0
DA:254,0
DA:255,0
DA:256,0
DA:257,0
DA:258,0
DA:259,0
DA:260,0
DA:261,0
DA:262,0
DA:263,0
DA:264,0
DA:265,0
DA:266,0
DA:267,0
DA:268,0
DA:269,0
DA:271,0
DA:273,0
DA:289,0
DA:290,0
DA:291,0
DA:292,0
DA:293,0
DA:294,0
DA:295,0
DA:296,0
DA:297,0
DA:298,0
DA:299,0
DA:301,0
DA:302,0
DA:303,0
DA:304,0
DA:306,0
DA:307,0
DA:308,0
DA:309,0
DA:311,0
DA:312,0
DA:313,0
DA:314,0
DA:315,0
DA:316,0
DA:317,0
DA:319,0
DA:320,0
DA:321,0
DA:322,0
DA:325,0
DA:326,0
DA:327,0
DA:328,0
DA:329,0
DA:330,0
DA:331,0
DA:332,0
DA:333,0
DA:334,0
DA:335,0
DA:341,0
DA:342,0
DA:343,0
DA:344,0
DA:345,0
DA:346,0
DA:347,0
DA:348,0
DA:349,0
DA:350,0
DA:351,0
DA:352,0
DA:353,0
DA:355,0
DA:356,0
DA:357,0
DA:360,0
DA:361,0
DA:362,0
DA:363,0
DA:364,0
DA:365,0
DA:366,0
DA:367,0
DA:368,0
DA:369,0
DA:370,0
DA:371,0
DA:372,0
DA:373,0
DA:374,0
DA:375,0
DA:376,0
DA:377,0
DA:378,0
DA:379,0
DA:380,0
DA:381,0
DA:382,0
DA:383,0
DA:384,0
DA:385,0
BRF:0
BRH:0
LF:265
LH:0
end_of_record
SF:/Users/coach/Documents/Jito/restaking/clients/rust/restaking_client/src/generated/instructions/ncn_warmup_operator.rs
FN:23,_RNvMNtNtNtCs7b1zZ6GD7vQ_21jito_restaking_client9generated12instructions19ncn_warmup_operatorNtB2_17NcnWarmupOperator11instruction
FN:27,_RNvMNtNtNtCs7b1zZ6GD7vQ_21jito_restaking_client9generated12instructions19ncn_warmup_operatorNtB2_17NcnWarmupOperator35instruction_with_remaining_accounts
FN:63,_RINvXs4_NtNtNtCs7b1zZ6GD7vQ_21jito_restaking_client9generated12instructions19ncn_warmup_operatorNtB6_32NcnWarmupOperatorInstructionDataNtNtCs7MwDlaQ6RmC_5borsh2de16BorshDeserialize18deserialize_readerpEBc_
FN:63,_RINvXs5_NtNtNtCs7b1zZ6GD7vQ_21jito_restaking_client9generated12instructions19ncn_warmup_operatorNtB6_32NcnWarmupOperatorInstructionDataNtNtCs7MwDlaQ6RmC_5borsh3ser14BorshSerialize9serializepEBc_
FN:69,_RNvMs_NtNtNtCs7b1zZ6GD7vQ_21jito_restaking_client9generated12instructions19ncn_warmup_operatorNtB4_32NcnWarmupOperatorInstructionData3new
FN:75,_RNvXs0_NtNtNtCs7b1zZ6GD7vQ_21jito_restaking_client9generated12instructions19ncn_warmup_operatorNtB5_32NcnWarmupOperatorInstructionDataNtNtCs2ke5FKHNm4X_4core7default7Default7default
FN:100,_RNvMs1_NtNtNtCs7b1zZ6GD7vQ_21jito_restaking_client9generated12instructions19ncn_warmup_operatorNtB5_24NcnWarmupOperatorBuilder3new
FN:104,_RNvMs1_NtNtNtCs7b1zZ6GD7vQ_21jito_restaking_client9generated12instructions19ncn_warmup_operatorNtB5_24NcnWarmupOperatorBuilder6config
FN:109,_RNvMs1_NtNtNtCs7b1zZ6GD7vQ_21jito_restaking_client9generated12instructions19ncn_warmup_operatorNtB5_24NcnWarmupOperatorBuilder3ncn
FN:114,_RNvMs1_NtNtNtCs7b1zZ6GD7vQ_21jito_restaking_client9generated12instructions19ncn_warmup_operatorNtB5_24NcnWarmupOperatorBuilder8operator
FN:119,_RNvMs1_NtNtNtCs7b1zZ6GD7vQ_21jito_restaking_client9generated12instructions19ncn_warmup_operatorNtB5_24NcnWarmupOperatorBuilder18ncn_operator_state
FN:127,_RNvMs1_NtNtNtCs7b1zZ6GD7vQ_21jito_restaking_client9generated12instructions19ncn_warmup_operatorNtB5_24NcnWarmupOperatorBuilder5admin
FN:133,_RNvMs1_NtNtNtCs7b1zZ6GD7vQ_21jito_restaking_client9generated12instructions19ncn_warmup_operatorNtB5_24NcnWarmupOperatorBuilder21add_remaining_account
FN:142,_RNvMs1_NtNtNtCs7b1zZ6GD7vQ_21jito_restaking_client9generated12instructions19ncn_warmup_operatorNtB5_24NcnWarmupOperatorBuilder22add_remaining_accounts
FN:150,_RNvMs1_NtNtNtCs7b1zZ6GD7vQ_21jito_restaking_client9generated12instructions19ncn_warmup_operatorNtB5_24NcnWarmupOperatorBuilder11instruction
FN:195,_RNvMs2_NtNtNtCs7b1zZ6GD7vQ_21jito_restaking_client9generated12instructions19ncn_warmup_operatorNtB5_20NcnWarmupOperatorCpi3new
FN:209,_RNvMs2_NtNtNtCs7b1zZ6GD7vQ_21jito_restaking_client9generated12instructions19ncn_warmup_operatorNtB5_20NcnWarmupOperatorCpi6invoke
FN:213,_RNvMs2_NtNtNtCs7b1zZ6GD7vQ_21jito_restaking_client9generated12instructions19ncn_warmup_operatorNtB5_20NcnWarmupOperatorCpi30invoke_with_remaining_accounts
FN:224,_RNvMs2_NtNtNtCs7b1zZ6GD7vQ_21jito_restaking_client9generated12instructions19ncn_warmup_operatorNtB5_20NcnWarmupOperatorCpi13invoke_signed
FN:232,_RNvMs2_NtNtNtCs7b1zZ6GD7vQ_21jito_restaking_client9generated12instructions19ncn_warmup_operatorNtB5_20NcnWarmupOperatorCpi37invoke_signed_with_remaining_accounts
FN:262,_RNCNvMs2_NtNtNtCs7b1zZ6GD7vQ_21jito_restaking_client9generated12instructions19ncn_warmup_operatorNtB7_20NcnWarmupOperatorCpi37invoke_signed_with_remaining_accounts0Bd_
FN:287,_RNCNvMs2_NtNtNtCs7b1zZ6GD7vQ_21jito_restaking_client9generated12instructions19ncn_warmup_operatorNtB7_20NcnWarmupOperatorCpi37invoke_signed_with_remaining_accountss_0Bd_
FN:312,_RNvMs3_NtNtNtCs7b1zZ6GD7vQ_21jito_restaking_client9generated12instructions19ncn_warmup_operatorNtB5_27NcnWarmupOperatorCpiBuilder3new
FN:325,_RNvMs3_NtNtNtCs7b1zZ6GD7vQ_21jito_restaking_client9generated12instructions19ncn_warmup_operatorNtB5_27NcnWarmupOperatorCpiBuilder6config
FN:333,_RNvMs3_NtNtNtCs7b1zZ6GD7vQ_21jito_restaking_client9generated12instructions19ncn_warmup_operatorNtB5_27NcnWarmupOperatorCpiBuilder3ncn
FN:338,_RNvMs3_NtNtNtCs7b1zZ6GD7vQ_21jito_restaking_client9generated12instructions19ncn_warmup_operatorNtB5_27NcnWarmupOperatorCpiBuilder8operator
FN:346,_RNvMs3_NtNtNtCs7b1zZ6GD7vQ_21jito_restaking_client9generated12instructions19ncn_warmup_operatorNtB5_27NcnWarmupOperatorCpiBuilder18ncn_operator_state
FN:354,_RNvMs3_NtNtNtCs7b1zZ6GD7vQ_21jito_restaking_client9generated12instructions19ncn_warmup_operatorNtB5_27NcnWarmupOperatorCpiBuilder5admin
FN:360,_RNvMs3_NtNtNtCs7b1zZ6GD7vQ_21jito_restaking_client9generated12instructions19ncn_warmup_operatorNtB5_27NcnWarmupOperatorCpiBuilder21add_remaining_account
FN:376,_RNvMs3_NtNtNtCs7b1zZ6GD7vQ_21jito_restaking_client9generated12instructions19ncn_warmup_operatorNtB5_27NcnWarmupOperatorCpiBuilder22add_remaining_accounts
FN:390,_RNvMs3_NtNtNtCs7b1zZ6GD7vQ_21jito_restaking_client9generated12instructions19ncn_warmup_operatorNtB5_27NcnWarmupOperatorCpiBuilder6invoke
FN:395,_RNvMs3_NtNtNtCs7b1zZ6GD7vQ_21jito_restaking_client9generated12instructions19ncn_warmup_operatorNtB5_27NcnWarmupOperatorCpiBuilder13invoke_signed
FNDA:0,_RNvMNtNtNtCs7b1zZ6GD7vQ_21jito_restaking_client9generated12instructions19ncn_warmup_operatorNtB2_17NcnWarmupOperator11instruction
FNDA:0,_RNvMNtNtNtCs7b1zZ6GD7vQ_21jito_restaking_client9generated12instructions19ncn_warmup_operatorNtB2_17NcnWarmupOperator35instruction_with_remaining_accounts
FNDA:0,_RINvXs4_NtNtNtCs7b1zZ6GD7vQ_21jito_restaking_client9generated12instructions19ncn_warmup_operatorNtB6_32NcnWarmupOperatorInstructionDataNtNtCs7MwDlaQ6RmC_5borsh2de16BorshDeserialize18deserialize_readerpEBc_
FNDA:0,_RINvXs5_NtNtNtCs7b1zZ6GD7vQ_21jito_restaking_client9generated12instructions19ncn_warmup_operatorNtB6_32NcnWarmupOperatorInstructionDataNtNtCs7MwDlaQ6RmC_5borsh3ser14BorshSerialize9serializepEBc_
FNDA:0,_RNvMs_NtNtNtCs7b1zZ6GD7vQ_21jito_restaking_client9generated12instructions19ncn_warmup_operatorNtB4_32NcnWarmupOperatorInstructionData3new
FNDA:0,_RNvXs0_NtNtNtCs7b1zZ6GD7vQ_21jito_restaking_client9generated12instructions19ncn_warmup_operatorNtB5_32NcnWarmupOperatorInstructionDataNtNtCs2ke5FKHNm4X_4core7default7Default7default
FNDA:0,_RNvMs1_NtNtNtCs7b1zZ6GD7vQ_21jito_restaking_client9generated12instructions19ncn_warmup_operatorNtB5_24NcnWarmupOperatorBuilder3new
FNDA:0,_RNvMs1_NtNtNtCs7b1zZ6GD7vQ_21jito_restaking_client9generated12instructions19ncn_warmup_operatorNtB5_24NcnWarmupOperatorBuilder6config
FNDA:0,_RNvMs1_NtNtNtCs7b1zZ6GD7vQ_21jito_restaking_client9generated12instructions19ncn_warmup_operatorNtB5_24NcnWarmupOperatorBuilder3ncn
FNDA:0,_RNvMs1_NtNtNtCs7b1zZ6GD7vQ_21jito_restaking_client9generated12instructions19ncn_warmup_operatorNtB5_24NcnWarmupOperatorBuilder8operator
FNDA:0,_RNvMs1_NtNtNtCs7b1zZ6GD7vQ_21jito_restaking_client9generated12instructions19ncn_warmup_operatorNtB5_24NcnWarmupOperatorBuilder18ncn_operator_state
FNDA:0,_RNvMs1_NtNtNtCs7b1zZ6GD7vQ_21jito_restaking_client9generated12instructions19ncn_warmup_operatorNtB5_24NcnWarmupOperatorBuilder5admin
FNDA:0,_RNvMs1_NtNtNtCs7b1zZ6GD7vQ_21jito_restaking_client9generated12instructions19ncn_warmup_operatorNtB5_24NcnWarmupOperatorBuilder21add_remaining_account
FNDA:0,_RNvMs1_NtNtNtCs7b1zZ6GD7vQ_21jito_restaking_client9generated12instructions19ncn_warmup_operatorNtB5_24NcnWarmupOperatorBuilder22add_remaining_accounts
FNDA:0,_RNvMs1_NtNtNtCs7b1zZ6GD7vQ_21jito_restaking_client9generated12instructions19ncn_warmup_operatorNtB5_24NcnWarmupOperatorBuilder11instruction
FNDA:0,_RNvMs2_NtNtNtCs7b1zZ6GD7vQ_21jito_restaking_client9generated12instructions19ncn_warmup_operatorNtB5_20NcnWarmupOperatorCpi3new
FNDA:0,_RNvMs2_NtNtNtCs7b1zZ6GD7vQ_21jito_restaking_client9generated12instructions19ncn_warmup_operatorNtB5_20NcnWarmupOperatorCpi6invoke
FNDA:0,_RNvMs2_NtNtNtCs7b1zZ6GD7vQ_21jito_restaking_client9generated12instructions19ncn_warmup_operatorNtB5_20NcnWarmupOperatorCpi30invoke_with_remaining_accounts
FNDA:0,_RNvMs2_NtNtNtCs7b1zZ6GD7vQ_21jito_restaking_client9generated12instructions19ncn_warmup_operatorNtB5_20NcnWarmupOperatorCpi13invoke_signed
FNDA:0,_RNvMs2_NtNtNtCs7b1zZ6GD7vQ_21jito_restaking_client9generated12instructions19ncn_warmup_operatorNtB5_20NcnWarmupOperatorCpi37invoke_signed_with_remaining_accounts
FNDA:0,_RNCNvMs2_NtNtNtCs7b1zZ6GD7vQ_21jito_restaking_client9generated12instructions19ncn_warmup_operatorNtB7_20NcnWarmupOperatorCpi37invoke_signed_with_remaining_accounts0Bd_
FNDA:0,_RNCNvMs2_NtNtNtCs7b1zZ6GD7vQ_21jito_restaking_client9generated12instructions19ncn_warmup_operatorNtB7_20NcnWarmupOperatorCpi37invoke_signed_with_remaining_accountss_0Bd_
FNDA:0,_RNvMs3_NtNtNtCs7b1zZ6GD7vQ_21jito_restaking_client9generated12instructions19ncn_warmup_operatorNtB5_27NcnWarmupOperatorCpiBuilder3new
FNDA:0,_RNvMs3_NtNtNtCs7b1zZ6GD7vQ_21jito_restaking_client9generated12instructions19ncn_warmup_operatorNtB5_27NcnWarmupOperatorCpiBuilder6config
FNDA:0,_RNvMs3_NtNtNtCs7b1zZ6GD7vQ_21jito_restaking_client9generated12instructions19ncn_warmup_operatorNtB5_27NcnWarmupOperatorCpiBuilder3ncn
FNDA:0,_RNvMs3_NtNtNtCs7b1zZ6GD7vQ_21jito_restaking_client9generated12instructions19ncn_warmup_operatorNtB5_27NcnWarmupOperatorCpiBuilder8operator
FNDA:0,_RNvMs3_NtNtNtCs7b1zZ6GD7vQ_21jito_restaking_client9generated12instructions19ncn_warmup_operatorNtB5_27NcnWarmupOperatorCpiBuilder18ncn_operator_state
FNDA:0,_RNvMs3_NtNtNtCs7b1zZ6GD7vQ_21jito_restaking_client9generated12instructions19ncn_warmup_operatorNtB5_27NcnWarmupOperatorCpiBuilder5admin
FNDA:0,_RNvMs3_NtNtNtCs7b1zZ6GD7vQ_21jito_restaking_client9generated12instructions19ncn_warmup_operatorNtB5_27NcnWarmupOperatorCpiBuilder21add_remaining_account
FNDA:0,_RNvMs3_NtNtNtCs7b1zZ6GD7vQ_21jito_restaking_client9generated12instructions19ncn_warmup_operatorNtB5_27NcnWarmupOperatorCpiBuilder22add_remaining_accounts
FNDA:0,_RNvMs3_NtNtNtCs7b1zZ6GD7vQ_21jito_restaking_client9generated12instructions19ncn_warmup_operatorNtB5_27NcnWarmupOperatorCpiBuilder6invoke
FNDA:0,_RNvMs3_NtNtNtCs7b1zZ6GD7vQ_21jito_restaking_client9generated12instructions19ncn_warmup_operatorNtB5_27NcnWarmupOperatorCpiBuilder13invoke_signed
FNF:32
FNH:0
DA:23,0
DA:24,0
DA:25,0
DA:27,0
DA:28,0
DA:29,0
DA:30,0
DA:31,0
DA:32,0
DA:33,0
DA:34,0
DA:35,0
DA:36,0
DA:37,0
DA:38,0
DA:39,0
DA:40,0
DA:41,0
DA:42,0
DA:43,0
DA:44,0
DA:45,0
DA:46,0
DA:47,0
DA:48,0
DA:49,0
DA:50,0
DA:51,0
DA:52,0
DA:53,0
DA:54,0
DA:55,0
DA:56,0
DA:57,0
DA:58,0
DA:59,0
DA:60,0
DA:63,0
DA:69,0
DA:70,0
DA:71,0
DA:75,0
DA:76,0
DA:77,0
DA:100,0
DA:101,0
DA:102,0
DA:104,0
DA:105,0
DA:106,0
DA:107,0
DA:109,0
DA:110,0
DA:111,0
DA:112,0
DA:114,0
DA:115,0
DA:116,0
DA:117,0
DA:119,0
DA:120,0
DA:121,0
DA:122,0
DA:123,0
DA:124,0
DA:125,0
DA:127,0
DA:128,0
DA:129,0
DA:130,0
DA:133,0
DA:134,0
DA:135,0
DA:136,0
DA:137,0
DA:138,0
DA:139,0
DA:142,0
DA:143,0
DA:144,0
DA:145,0
DA:146,0
DA:147,0
DA:148,0
DA:150,0
DA:151,0
DA:152,0
DA:153,0
DA:154,0
DA:155,0
DA:156,0
DA:157,0
DA:158,0
DA:159,0
DA:160,0
DA:161,0
DA:162,0
DA:195,0
DA:196,0
DA:197,0
DA:198,0
DA:199,0
DA:200,0
DA:201,0
DA:202,0
DA:203,0
DA:204,0
DA:205,0
DA:206,0
DA:207,0
DA:209,0
DA:210,0
DA:211,0
DA:213,0
DA:214,0
DA:215,0
DA:216,0
DA:217,0
DA:218,0
DA:219,0
DA:220,0
DA:221,0
DA:222,0
DA:224,0
DA:225,0
DA:226,0
DA:227,0
DA:228,0
DA:229,0
DA:232,0
DA:233,0
DA:234,0
DA:235,0
DA:236,0
DA:237,0
DA:238,0
DA:239,0
DA:240,0
DA:241,0
DA:242,0
DA:243,0
DA:244,0
DA:245,0
DA:246,0
DA:247,0
DA:248,0
DA:249,0
DA:250,0
DA:251,0
DA:252,0
DA:253,0
DA:254,0
DA:255,0
DA:256,0
DA:257,0
DA:258,0
DA:259,0
DA:260,0
DA:261,0
DA:262,0
DA:263,0
DA:264,0
DA:265,0
DA:266,0
DA:267,0
DA:268,0
DA:269,0
DA:270,0
DA:271,0
DA:272,0
DA:273,0
DA:274,0
DA:275,0
DA:276,0
DA:277,0
DA:278,0
DA:279,0
DA:280,0
DA:281,0
DA:282,0
DA:283,0
DA:284,0
DA:285,0
DA:286,0
DA:287,0
DA:288,0
DA:289,0
DA:290,0
DA:292,0
DA:294,0
DA:312,0
DA:313,0
DA:314,0
DA:315,0
DA:316,0
DA:317,0
DA:318,0
DA:319,0
DA:320,0
DA:321,0
DA:322,0
DA:323,0
DA:325,0
DA:326,0
DA:327,0
DA:328,0
DA:329,0
DA:330,0
DA:331,0
DA:333,0
DA:334,0
DA:335,0
DA:336,0
DA:338,0
DA:339,0
DA:340,0
DA:341,0
DA:342,0
DA:343,0
DA:344,0
DA:346,0
DA:347,0
DA:348,0
DA:349,0
DA:350,0
DA:351,0
DA:352,0
DA:354,0
DA:355,0
DA:356,0
DA:357,0
DA:360,0
DA:361,0
DA:362,0
DA:363,0
DA:364,0
DA:365,0
DA:366,0
DA:367,0
DA:368,0
DA:369,0
DA:370,0
DA:376,0
DA:377,0
DA:378,0
DA:379,0
DA:380,0
DA:381,0
DA:382,0
DA:383,0
DA:384,0
DA:385,0
DA:386,0
DA:387,0
DA:388,0
DA:390,0
DA:391,0
DA:392,0
DA:395,0
DA:396,0
DA:397,0
DA:398,0
DA:399,0
DA:400,0
DA:401,0
DA:402,0
DA:403,0
DA:404,0
DA:405,0
DA:406,0
DA:407,0
DA:408,0
DA:409,0
DA:410,0
DA:411,0
DA:412,0
DA:413,0
DA:414,0
DA:415,0
DA:416,0
DA:417,0
DA:418,0
DA:419,0
BRF:0
BRH:0
LF:287
LH:0
end_of_record
SF:/Users/coach/Documents/Jito/restaking/clients/rust/restaking_client/src/generated/instructions/operator_cooldown_ncn.rs
FN:23,_RNvMNtNtNtCs7b1zZ6GD7vQ_21jito_restaking_client9generated12instructions21operator_cooldown_ncnNtB2_19OperatorCooldownNcn11instruction
FN:27,_RNvMNtNtNtCs7b1zZ6GD7vQ_21jito_restaking_client9generated12instructions21operator_cooldown_ncnNtB2_19OperatorCooldownNcn35instruction_with_remaining_accounts
FN:63,_RINvXs4_NtNtNtCs7b1zZ6GD7vQ_21jito_restaking_client9generated12instructions21operator_cooldown_ncnNtB6_34OperatorCooldownNcnInstructionDataNtNtCs7MwDlaQ6RmC_5borsh2de16BorshDeserialize18deserialize_readerpEBc_
FN:63,_RINvXs5_NtNtNtCs7b1zZ6GD7vQ_21jito_restaking_client9generated12instructions21operator_cooldown_ncnNtB6_34OperatorCooldownNcnInstructionDataNtNtCs7MwDlaQ6RmC_5borsh3ser14BorshSerialize9serializepEBc_
FN:69,_RNvMs_NtNtNtCs7b1zZ6GD7vQ_21jito_restaking_client9generated12instructions21operator_cooldown_ncnNtB4_34OperatorCooldownNcnInstructionData3new
FN:75,_RNvXs0_NtNtNtCs7b1zZ6GD7vQ_21jito_restaking_client9generated12instructions21operator_cooldown_ncnNtB5_34OperatorCooldownNcnInstructionDataNtNtCs2ke5FKHNm4X_4core7default7Default7default
FN:100,_RNvMs1_NtNtNtCs7b1zZ6GD7vQ_21jito_restaking_client9generated12instructions21operator_cooldown_ncnNtB5_26OperatorCooldownNcnBuilder3new
FN:104,_RNvMs1_NtNtNtCs7b1zZ6GD7vQ_21jito_restaking_client9generated12instructions21operator_cooldown_ncnNtB5_26OperatorCooldownNcnBuilder6config
FN:109,_RNvMs1_NtNtNtCs7b1zZ6GD7vQ_21jito_restaking_client9generated12instructions21operator_cooldown_ncnNtB5_26OperatorCooldownNcnBuilder3ncn
FN:114,_RNvMs1_NtNtNtCs7b1zZ6GD7vQ_21jito_restaking_client9generated12instructions21operator_cooldown_ncnNtB5_26OperatorCooldownNcnBuilder8operator
FN:119,_RNvMs1_NtNtNtCs7b1zZ6GD7vQ_21jito_restaking_client9generated12instructions21operator_cooldown_ncnNtB5_26OperatorCooldownNcnBuilder18ncn_operator_state
FN:127,_RNvMs1_NtNtNtCs7b1zZ6GD7vQ_21jito_restaking_client9generated12instructions21operator_cooldown_ncnNtB5_26OperatorCooldownNcnBuilder5admin
FN:133,_RNvMs1_NtNtNtCs7b1zZ6GD7vQ_21jito_restaking_client9generated12instructions21operator_cooldown_ncnNtB5_26OperatorCooldownNcnBuilder21add_remaining_account
FN:142,_RNvMs1_NtNtNtCs7b1zZ6GD7vQ_21jito_restaking_client9generated12instructions21operator_cooldown_ncnNtB5_26OperatorCooldownNcnBuilder22add_remaining_accounts
FN:150,_RNvMs1_NtNtNtCs7b1zZ6GD7vQ_21jito_restaking_client9generated12instructions21operator_cooldown_ncnNtB5_26OperatorCooldownNcnBuilder11instruction
FN:195,_RNvMs2_NtNtNtCs7b1zZ6GD7vQ_21jito_restaking_client9generated12instructions21operator_cooldown_ncnNtB5_22OperatorCooldownNcnCpi3new
FN:209,_RNvMs2_NtNtNtCs7b1zZ6GD7vQ_21jito_restaking_client9generated12instructions21operator_cooldown_ncnNtB5_22OperatorCooldownNcnCpi6invoke
FN:213,_RNvMs2_NtNtNtCs7b1zZ6GD7vQ_21jito_restaking_client9generated12instructions21operator_cooldown_ncnNtB5_22OperatorCooldownNcnCpi30invoke_with_remaining_accounts
FN:224,_RNvMs2_NtNtNtCs7b1zZ6GD7vQ_21jito_restaking_client9generated12instructions21operator_cooldown_ncnNtB5_22OperatorCooldownNcnCpi13invoke_signed
FN:232,_RNvMs2_NtNtNtCs7b1zZ6GD7vQ_21jito_restaking_client9generated12instructions21operator_cooldown_ncnNtB5_22OperatorCooldownNcnCpi37invoke_signed_with_remaining_accounts
FN:262,_RNCNvMs2_NtNtNtCs7b1zZ6GD7vQ_21jito_restaking_client9generated12instructions21operator_cooldown_ncnNtB7_22OperatorCooldownNcnCpi37invoke_signed_with_remaining_accounts0Bd_
FN:287,_RNCNvMs2_NtNtNtCs7b1zZ6GD7vQ_21jito_restaking_client9generated12instructions21operator_cooldown_ncnNtB7_22OperatorCooldownNcnCpi37invoke_signed_with_remaining_accountss_0Bd_
FN:312,_RNvMs3_NtNtNtCs7b1zZ6GD7vQ_21jito_restaking_client9generated12instructions21operator_cooldown_ncnNtB5_29OperatorCooldownNcnCpiBuilder3new
FN:325,_RNvMs3_NtNtNtCs7b1zZ6GD7vQ_21jito_restaking_client9generated12instructions21operator_cooldown_ncnNtB5_29OperatorCooldownNcnCpiBuilder6config
FN:333,_RNvMs3_NtNtNtCs7b1zZ6GD7vQ_21jito_restaking_client9generated12instructions21operator_cooldown_ncnNtB5_29OperatorCooldownNcnCpiBuilder3ncn
FN:338,_RNvMs3_NtNtNtCs7b1zZ6GD7vQ_21jito_restaking_client9generated12instructions21operator_cooldown_ncnNtB5_29OperatorCooldownNcnCpiBuilder8operator
FN:346,_RNvMs3_NtNtNtCs7b1zZ6GD7vQ_21jito_restaking_client9generated12instructions21operator_cooldown_ncnNtB5_29OperatorCooldownNcnCpiBuilder18ncn_operator_state
FN:354,_RNvMs3_NtNtNtCs7b1zZ6GD7vQ_21jito_restaking_client9generated12instructions21operator_cooldown_ncnNtB5_29OperatorCooldownNcnCpiBuilder5admin
FN:360,_RNvMs3_NtNtNtCs7b1zZ6GD7vQ_21jito_restaking_client9generated12instructions21operator_cooldown_ncnNtB5_29OperatorCooldownNcnCpiBuilder21add_remaining_account
FN:376,_RNvMs3_NtNtNtCs7b1zZ6GD7vQ_21jito_restaking_client9generated12instructions21operator_cooldown_ncnNtB5_29OperatorCooldownNcnCpiBuilder22add_remaining_accounts
FN:390,_RNvMs3_NtNtNtCs7b1zZ6GD7vQ_21jito_restaking_client9generated12instructions21operator_cooldown_ncnNtB5_29OperatorCooldownNcnCpiBuilder6invoke
FN:395,_RNvMs3_NtNtNtCs7b1zZ6GD7vQ_21jito_restaking_client9generated12instructions21operator_cooldown_ncnNtB5_29OperatorCooldownNcnCpiBuilder13invoke_signed
FNDA:0,_RNvMNtNtNtCs7b1zZ6GD7vQ_21jito_restaking_client9generated12instructions21operator_cooldown_ncnNtB2_19OperatorCooldownNcn11instruction
FNDA:0,_RNvMNtNtNtCs7b1zZ6GD7vQ_21jito_restaking_client9generated12instructions21operator_cooldown_ncnNtB2_19OperatorCooldownNcn35instruction_with_remaining_accounts
FNDA:0,_RINvXs4_NtNtNtCs7b1zZ6GD7vQ_21jito_restaking_client9generated12instructions21operator_cooldown_ncnNtB6_34OperatorCooldownNcnInstructionDataNtNtCs7MwDlaQ6RmC_5borsh2de16BorshDeserialize18deserialize_readerpEBc_
FNDA:0,_RINvXs5_NtNtNtCs7b1zZ6GD7vQ_21jito_restaking_client9generated12instructions21operator_cooldown_ncnNtB6_34OperatorCooldownNcnInstructionDataNtNtCs7MwDlaQ6RmC_5borsh3ser14BorshSerialize9serializepEBc_
FNDA:0,_RNvMs_NtNtNtCs7b1zZ6GD7vQ_21jito_restaking_client9generated12instructions21operator_cooldown_ncnNtB4_34OperatorCooldownNcnInstructionData3new
FNDA:0,_RNvXs0_NtNtNtCs7b1zZ6GD7vQ_21jito_restaking_client9generated12instructions21operator_cooldown_ncnNtB5_34OperatorCooldownNcnInstructionDataNtNtCs2ke5FKHNm4X_4core7default7Default7default
FNDA:0,_RNvMs1_NtNtNtCs7b1zZ6GD7vQ_21jito_restaking_client9generated12instructions21operator_cooldown_ncnNtB5_26OperatorCooldownNcnBuilder3new
FNDA:0,_RNvMs1_NtNtNtCs7b1zZ6GD7vQ_21jito_restaking_client9generated12instructions21operator_cooldown_ncnNtB5_26OperatorCooldownNcnBuilder6config
FNDA:0,_RNvMs1_NtNtNtCs7b1zZ6GD7vQ_21jito_restaking_client9generated12instructions21operator_cooldown_ncnNtB5_26OperatorCooldownNcnBuilder3ncn
FNDA:0,_RNvMs1_NtNtNtCs7b1zZ6GD7vQ_21jito_restaking_client9generated12instructions21operator_cooldown_ncnNtB5_26OperatorCooldownNcnBuilder8operator
FNDA:0,_RNvMs1_NtNtNtCs7b1zZ6GD7vQ_21jito_restaking_client9generated12instructions21operator_cooldown_ncnNtB5_26OperatorCooldownNcnBuilder18ncn_operator_state
FNDA:0,_RNvMs1_NtNtNtCs7b1zZ6GD7vQ_21jito_restaking_client9generated12instructions21operator_cooldown_ncnNtB5_26OperatorCooldownNcnBuilder5admin
FNDA:0,_RNvMs1_NtNtNtCs7b1zZ6GD7vQ_21jito_restaking_client9generated12instructions21operator_cooldown_ncnNtB5_26OperatorCooldownNcnBuilder21add_remaining_account
FNDA:0,_RNvMs1_NtNtNtCs7b1zZ6GD7vQ_21jito_restaking_client9generated12instructions21operator_cooldown_ncnNtB5_26OperatorCooldownNcnBuilder22add_remaining_accounts
FNDA:0,_RNvMs1_NtNtNtCs7b1zZ6GD7vQ_21jito_restaking_client9generated12instructions21operator_cooldown_ncnNtB5_26OperatorCooldownNcnBuilder11instruction
FNDA:0,_RNvMs2_NtNtNtCs7b1zZ6GD7vQ_21jito_restaking_client9generated12instructions21operator_cooldown_ncnNtB5_22OperatorCooldownNcnCpi3new
FNDA:0,_RNvMs2_NtNtNtCs7b1zZ6GD7vQ_21jito_restaking_client9generated12instructions21operator_cooldown_ncnNtB5_22OperatorCooldownNcnCpi6invoke
FNDA:0,_RNvMs2_NtNtNtCs7b1zZ6GD7vQ_21jito_restaking_client9generated12instructions21operator_cooldown_ncnNtB5_22OperatorCooldownNcnCpi30invoke_with_remaining_accounts
FNDA:0,_RNvMs2_NtNtNtCs7b1zZ6GD7vQ_21jito_restaking_client9generated12instructions21operator_cooldown_ncnNtB5_22OperatorCooldownNcnCpi13invoke_signed
FNDA:0,_RNvMs2_NtNtNtCs7b1zZ6GD7vQ_21jito_restaking_client9generated12instructions21operator_cooldown_ncnNtB5_22OperatorCooldownNcnCpi37invoke_signed_with_remaining_accounts
FNDA:0,_RNCNvMs2_NtNtNtCs7b1zZ6GD7vQ_21jito_restaking_client9generated12instructions21operator_cooldown_ncnNtB7_22OperatorCooldownNcnCpi37invoke_signed_with_remaining_accounts0Bd_
FNDA:0,_RNCNvMs2_NtNtNtCs7b1zZ6GD7vQ_21jito_restaking_client9generated12instructions21operator_cooldown_ncnNtB7_22OperatorCooldownNcnCpi37invoke_signed_with_remaining_accountss_0Bd_
FNDA:0,_RNvMs3_NtNtNtCs7b1zZ6GD7vQ_21jito_restaking_client9generated12instructions21operator_cooldown_ncnNtB5_29OperatorCooldownNcnCpiBuilder3new
FNDA:0,_RNvMs3_NtNtNtCs7b1zZ6GD7vQ_21jito_restaking_client9generated12instructions21operator_cooldown_ncnNtB5_29OperatorCooldownNcnCpiBuilder6config
FNDA:0,_RNvMs3_NtNtNtCs7b1zZ6GD7vQ_21jito_restaking_client9generated12instructions21operator_cooldown_ncnNtB5_29OperatorCooldownNcnCpiBuilder3ncn
FNDA:0,_RNvMs3_NtNtNtCs7b1zZ6GD7vQ_21jito_restaking_client9generated12instructions21operator_cooldown_ncnNtB5_29OperatorCooldownNcnCpiBuilder8operator
FNDA:0,_RNvMs3_NtNtNtCs7b1zZ6GD7vQ_21jito_restaking_client9generated12instructions21operator_cooldown_ncnNtB5_29OperatorCooldownNcnCpiBuilder18ncn_operator_state
FNDA:0,_RNvMs3_NtNtNtCs7b1zZ6GD7vQ_21jito_restaking_client9generated12instructions21operator_cooldown_ncnNtB5_29OperatorCooldownNcnCpiBuilder5admin
FNDA:0,_RNvMs3_NtNtNtCs7b1zZ6GD7vQ_21jito_restaking_client9generated12instructions21operator_cooldown_ncnNtB5_29OperatorCooldownNcnCpiBuilder21add_remaining_account
FNDA:0,_RNvMs3_NtNtNtCs7b1zZ6GD7vQ_21jito_restaking_client9generated12instructions21operator_cooldown_ncnNtB5_29OperatorCooldownNcnCpiBuilder22add_remaining_accounts
FNDA:0,_RNvMs3_NtNtNtCs7b1zZ6GD7vQ_21jito_restaking_client9generated12instructions21operator_cooldown_ncnNtB5_29OperatorCooldownNcnCpiBuilder6invoke
FNDA:0,_RNvMs3_NtNtNtCs7b1zZ6GD7vQ_21jito_restaking_client9generated12instructions21operator_cooldown_ncnNtB5_29OperatorCooldownNcnCpiBuilder13invoke_signed
FNF:32
FNH:0
DA:23,0
DA:24,0
DA:25,0
DA:27,0
DA:28,0
DA:29,0
DA:30,0
DA:31,0
DA:32,0
DA:33,0
DA:34,0
DA:35,0
DA:36,0
DA:37,0
DA:38,0
DA:39,0
DA:40,0
DA:41,0
DA:42,0
DA:43,0
DA:44,0
DA:45,0
DA:46,0
DA:47,0
DA:48,0
DA:49,0
DA:50,0
DA:51,0
DA:52,0
DA:53,0
DA:54,0
DA:55,0
DA:56,0
DA:57,0
DA:58,0
DA:59,0
DA:60,0
DA:63,0
DA:69,0
DA:70,0
DA:71,0
DA:75,0
DA:76,0
DA:77,0
DA:100,0
DA:101,0
DA:102,0
DA:104,0
DA:105,0
DA:106,0
DA:107,0
DA:109,0
DA:110,0
DA:111,0
DA:112,0
DA:114,0
DA:115,0
DA:116,0
DA:117,0
DA:119,0
DA:120,0
DA:121,0
DA:122,0
DA:123,0
DA:124,0
DA:125,0
DA:127,0
DA:128,0
DA:129,0
DA:130,0
DA:133,0
DA:134,0
DA:135,0
DA:136,0
DA:137,0
DA:138,0
DA:139,0
DA:142,0
DA:143,0
DA:144,0
DA:145,0
DA:146,0
DA:147,0
DA:148,0
DA:150,0
DA:151,0
DA:152,0
DA:153,0
DA:154,0
DA:155,0
DA:156,0
DA:157,0
DA:158,0
DA:159,0
DA:160,0
DA:161,0
DA:162,0
DA:195,0
DA:196,0
DA:197,0
DA:198,0
DA:199,0
DA:200,0
DA:201,0
DA:202,0
DA:203,0
DA:204,0
DA:205,0
DA:206,0
DA:207,0
DA:209,0
DA:210,0
DA:211,0
DA:213,0
DA:214,0
DA:215,0
DA:216,0
DA:217,0
DA:218,0
DA:219,0
DA:220,0
DA:221,0
DA:222,0
DA:224,0
DA:225,0
DA:226,0
DA:227,0
DA:228,0
DA:229,0
DA:232,0
DA:233,0
DA:234,0
DA:235,0
DA:236,0
DA:237,0
DA:238,0
DA:239,0
DA:240,0
DA:241,0
DA:242,0
DA:243,0
DA:244,0
DA:245,0
DA:246,0
DA:247,0
DA:248,0
DA:249,0
DA:250,0
DA:251,0
DA:252,0
DA:253,0
DA:254,0
DA:255,0
DA:256,0
DA:257,0
DA:258,0
DA:259,0
DA:260,0
DA:261,0
DA:262,0
DA:263,0
DA:264,0
DA:265,0
DA:266,0
DA:267,0
DA:268,0
DA:269,0
DA:270,0
DA:271,0
DA:272,0
DA:273,0
DA:274,0
DA:275,0
DA:276,0
DA:277,0
DA:278,0
DA:279,0
DA:280,0
DA:281,0
DA:282,0
DA:283,0
DA:284,0
DA:285,0
DA:286,0
DA:287,0
DA:288,0
DA:289,0
DA:290,0
DA:292,0
DA:294,0
DA:312,0
DA:313,0
DA:314,0
DA:315,0
DA:316,0
DA:317,0
DA:318,0
DA:319,0
DA:320,0
DA:321,0
DA:322,0
DA:323,0
DA:325,0
DA:326,0
DA:327,0
DA:328,0
DA:329,0
DA:330,0
DA:331,0
DA:333,0
DA:334,0
DA:335,0
DA:336,0
DA:338,0
DA:339,0
DA:340,0
DA:341,0
DA:342,0
DA:343,0
DA:344,0
DA:346,0
DA:347,0
DA:348,0
DA:349,0
DA:350,0
DA:351,0
DA:352,0
DA:354,0
DA:355,0
DA:356,0
DA:357,0
DA:360,0
DA:361,0
DA:362,0
DA:363,0
DA:364,0
DA:365,0
DA:366,0
DA:367,0
DA:368,0
DA:369,0
DA:370,0
DA:376,0
DA:377,0
DA:378,0
DA:379,0
DA:380,0
DA:381,0
DA:382,0
DA:383,0
DA:384,0
DA:385,0
DA:386,0
DA:387,0
DA:388,0
DA:390,0
DA:391,0
DA:392,0
DA:395,0
DA:396,0
DA:397,0
DA:398,0
DA:399,0
DA:400,0
DA:401,0
DA:402,0
DA:403,0
DA:404,0
DA:405,0
DA:406,0
DA:407,0
DA:408,0
DA:409,0
DA:410,0
DA:411,0
DA:412,0
DA:413,0
DA:414,0
DA:415,0
DA:416,0
DA:417,0
DA:418,0
DA:419,0
BRF:0
BRH:0
LF:287
LH:0
end_of_record
SF:/Users/coach/Documents/Jito/restaking/clients/rust/restaking_client/src/generated/instructions/operator_delegate_token_account.rs
FN:25,_RNvMNtNtNtCs7b1zZ6GD7vQ_21jito_restaking_client9generated12instructions31operator_delegate_token_accountNtB2_28OperatorDelegateTokenAccount11instruction
FN:29,_RNvMNtNtNtCs7b1zZ6GD7vQ_21jito_restaking_client9generated12instructions31operator_delegate_token_accountNtB2_28OperatorDelegateTokenAccount35instruction_with_remaining_accounts
FN:71,_RINvXs4_NtNtNtCs7b1zZ6GD7vQ_21jito_restaking_client9generated12instructions31operator_delegate_token_accountNtB6_43OperatorDelegateTokenAccountInstructionDataNtNtCs7MwDlaQ6RmC_5borsh2de16BorshDeserialize18deserialize_readerpEBc_
FN:71,_RINvXs5_NtNtNtCs7b1zZ6GD7vQ_21jito_restaking_client9generated12instructions31operator_delegate_token_accountNtB6_43OperatorDelegateTokenAccountInstructionDataNtNtCs7MwDlaQ6RmC_5borsh3ser14BorshSerialize9serializepEBc_
FN:77,_RNvMs_NtNtNtCs7b1zZ6GD7vQ_21jito_restaking_client9generated12instructions31operator_delegate_token_accountNtB4_43OperatorDelegateTokenAccountInstructionData3new
FN:83,_RNvXs0_NtNtNtCs7b1zZ6GD7vQ_21jito_restaking_client9generated12instructions31operator_delegate_token_accountNtB5_43OperatorDelegateTokenAccountInstructionDataNtNtCs2ke5FKHNm4X_4core7default7Default7default
FN:110,_RNvMs1_NtNtNtCs7b1zZ6GD7vQ_21jito_restaking_client9generated12instructions31operator_delegate_token_accountNtB5_35OperatorDelegateTokenAccountBuilder3new
FN:114,_RNvMs1_NtNtNtCs7b1zZ6GD7vQ_21jito_restaking_client9generated12instructions31operator_delegate_token_accountNtB5_35OperatorDelegateTokenAccountBuilder8operator
FN:119,_RNvMs1_NtNtNtCs7b1zZ6GD7vQ_21jito_restaking_client9generated12instructions31operator_delegate_token_accountNtB5_35OperatorDelegateTokenAccountBuilder14delegate_admin
FN:124,_RNvMs1_NtNtNtCs7b1zZ6GD7vQ_21jito_restaking_client9generated12instructions31operator_delegate_token_accountNtB5_35OperatorDelegateTokenAccountBuilder10token_mint
FN:129,_RNvMs1_NtNtNtCs7b1zZ6GD7vQ_21jito_restaking_client9generated12instructions31operator_delegate_token_accountNtB5_35OperatorDelegateTokenAccountBuilder13token_account
FN:134,_RNvMs1_NtNtNtCs7b1zZ6GD7vQ_21jito_restaking_client9generated12instructions31operator_delegate_token_accountNtB5_35OperatorDelegateTokenAccountBuilder8delegate
FN:140,_RNvMs1_NtNtNtCs7b1zZ6GD7vQ_21jito_restaking_client9generated12instructions31operator_delegate_token_accountNtB5_35OperatorDelegateTokenAccountBuilder13token_program
FN:146,_RNvMs1_NtNtNtCs7b1zZ6GD7vQ_21jito_restaking_client9generated12instructions31operator_delegate_token_accountNtB5_35OperatorDelegateTokenAccountBuilder21add_remaining_account
FN:155,_RNvMs1_NtNtNtCs7b1zZ6GD7vQ_21jito_restaking_client9generated12instructions31operator_delegate_token_accountNtB5_35OperatorDelegateTokenAccountBuilder22add_remaining_accounts
FN:163,_RNvMs1_NtNtNtCs7b1zZ6GD7vQ_21jito_restaking_client9generated12instructions31operator_delegate_token_accountNtB5_35OperatorDelegateTokenAccountBuilder11instruction
FN:213,_RNvMs2_NtNtNtCs7b1zZ6GD7vQ_21jito_restaking_client9generated12instructions31operator_delegate_token_accountNtB5_31OperatorDelegateTokenAccountCpi3new
FN:228,_RNvMs2_NtNtNtCs7b1zZ6GD7vQ_21jito_restaking_client9generated12instructions31operator_delegate_token_accountNtB5_31OperatorDelegateTokenAccountCpi6invoke
FN:232,_RNvMs2_NtNtNtCs7b1zZ6GD7vQ_21jito_restaking_client9generated12instructions31operator_delegate_token_accountNtB5_31OperatorDelegateTokenAccountCpi30invoke_with_remaining_accounts
FN:243,_RNvMs2_NtNtNtCs7b1zZ6GD7vQ_21jito_restaking_client9generated12instructions31operator_delegate_token_accountNtB5_31OperatorDelegateTokenAccountCpi13invoke_signed
FN:251,_RNvMs2_NtNtNtCs7b1zZ6GD7vQ_21jito_restaking_client9generated12instructions31operator_delegate_token_accountNtB5_31OperatorDelegateTokenAccountCpi37invoke_signed_with_remaining_accounts
FN:285,_RNCNvMs2_NtNtNtCs7b1zZ6GD7vQ_21jito_restaking_client9generated12instructions31operator_delegate_token_accountNtB7_31OperatorDelegateTokenAccountCpi37invoke_signed_with_remaining_accounts0Bd_
FN:311,_RNCNvMs2_NtNtNtCs7b1zZ6GD7vQ_21jito_restaking_client9generated12instructions31operator_delegate_token_accountNtB7_31OperatorDelegateTokenAccountCpi37invoke_signed_with_remaining_accountss_0Bd_
FN:337,_RNvMs3_NtNtNtCs7b1zZ6GD7vQ_21jito_restaking_client9generated12instructions31operator_delegate_token_accountNtB5_38OperatorDelegateTokenAccountCpiBuilder3new
FN:351,_RNvMs3_NtNtNtCs7b1zZ6GD7vQ_21jito_restaking_client9generated12instructions31operator_delegate_token_accountNtB5_38OperatorDelegateTokenAccountCpiBuilder8operator
FN:359,_RNvMs3_NtNtNtCs7b1zZ6GD7vQ_21jito_restaking_client9generated12instructions31operator_delegate_token_accountNtB5_38OperatorDelegateTokenAccountCpiBuilder14delegate_admin
FN:367,_RNvMs3_NtNtNtCs7b1zZ6GD7vQ_21jito_restaking_client9generated12instructions31operator_delegate_token_accountNtB5_38OperatorDelegateTokenAccountCpiBuilder10token_mint
FN:375,_RNvMs3_NtNtNtCs7b1zZ6GD7vQ_21jito_restaking_client9generated12instructions31operator_delegate_token_accountNtB5_38OperatorDelegateTokenAccountCpiBuilder13token_account
FN:383,_RNvMs3_NtNtNtCs7b1zZ6GD7vQ_21jito_restaking_client9generated12instructions31operator_delegate_token_accountNtB5_38OperatorDelegateTokenAccountCpiBuilder8delegate
FN:391,_RNvMs3_NtNtNtCs7b1zZ6GD7vQ_21jito_restaking_client9generated12instructions31operator_delegate_token_accountNtB5_38OperatorDelegateTokenAccountCpiBuilder13token_program
FN:400,_RNvMs3_NtNtNtCs7b1zZ6GD7vQ_21jito_restaking_client9generated12instructions31operator_delegate_token_accountNtB5_38OperatorDelegateTokenAccountCpiBuilder21add_remaining_account
FN:416,_RNvMs3_NtNtNtCs7b1zZ6GD7vQ_21jito_restaking_client9generated12instructions31operator_delegate_token_accountNtB5_38OperatorDelegateTokenAccountCpiBuilder22add_remaining_accounts
FN:430,_RNvMs3_NtNtNtCs7b1zZ6GD7vQ_21jito_restaking_client9generated12instructions31operator_delegate_token_accountNtB5_38OperatorDelegateTokenAccountCpiBuilder6invoke
FN:435,_RNvMs3_NtNtNtCs7b1zZ6GD7vQ_21jito_restaking_client9generated12instructions31operator_delegate_token_accountNtB5_38OperatorDelegateTokenAccountCpiBuilder13invoke_signed
FNDA:0,_RNvMNtNtNtCs7b1zZ6GD7vQ_21jito_restaking_client9generated12instructions31operator_delegate_token_accountNtB2_28OperatorDelegateTokenAccount11instruction
FNDA:0,_RNvMNtNtNtCs7b1zZ6GD7vQ_21jito_restaking_client9generated12instructions31operator_delegate_token_accountNtB2_28OperatorDelegateTokenAccount35instruction_with_remaining_accounts
FNDA:0,_RINvXs4_NtNtNtCs7b1zZ6GD7vQ_21jito_restaking_client9generated12instructions31operator_delegate_token_accountNtB6_43OperatorDelegateTokenAccountInstructionDataNtNtCs7MwDlaQ6RmC_5borsh2de16BorshDeserialize18deserialize_readerpEBc_
FNDA:0,_RINvXs5_NtNtNtCs7b1zZ6GD7vQ_21jito_restaking_client9generated12instructions31operator_delegate_token_accountNtB6_43OperatorDelegateTokenAccountInstructionDataNtNtCs7MwDlaQ6RmC_5borsh3ser14BorshSerialize9serializepEBc_
FNDA:0,_RNvMs_NtNtNtCs7b1zZ6GD7vQ_21jito_restaking_client9generated12instructions31operator_delegate_token_accountNtB4_43OperatorDelegateTokenAccountInstructionData3new
FNDA:0,_RNvXs0_NtNtNtCs7b1zZ6GD7vQ_21jito_restaking_client9generated12instructions31operator_delegate_token_accountNtB5_43OperatorDelegateTokenAccountInstructionDataNtNtCs2ke5FKHNm4X_4core7default7Default7default
FNDA:0,_RNvMs1_NtNtNtCs7b1zZ6GD7vQ_21jito_restaking_client9generated12instructions31operator_delegate_token_accountNtB5_35OperatorDelegateTokenAccountBuilder3new
FNDA:0,_RNvMs1_NtNtNtCs7b1zZ6GD7vQ_21jito_restaking_client9generated12instructions31operator_delegate_token_accountNtB5_35OperatorDelegateTokenAccountBuilder8operator
FNDA:0,_RNvMs1_NtNtNtCs7b1zZ6GD7vQ_21jito_restaking_client9generated12instructions31operator_delegate_token_accountNtB5_35OperatorDelegateTokenAccountBuilder14delegate_admin
FNDA:0,_RNvMs1_NtNtNtCs7b1zZ6GD7vQ_21jito_restaking_client9generated12instructions31operator_delegate_token_accountNtB5_35OperatorDelegateTokenAccountBuilder10token_mint
FNDA:0,_RNvMs1_NtNtNtCs7b1zZ6GD7vQ_21jito_restaking_client9generated12instructions31operator_delegate_token_accountNtB5_35OperatorDelegateTokenAccountBuilder13token_account
FNDA:0,_RNvMs1_NtNtNtCs7b1zZ6GD7vQ_21jito_restaking_client9generated12instructions31operator_delegate_token_accountNtB5_35OperatorDelegateTokenAccountBuilder8delegate
FNDA:0,_RNvMs1_NtNtNtCs7b1zZ6GD7vQ_21jito_restaking_client9generated12instructions31operator_delegate_token_accountNtB5_35OperatorDelegateTokenAccountBuilder13token_program
FNDA:0,_RNvMs1_NtNtNtCs7b1zZ6GD7vQ_21jito_restaking_client9generated12instructions31operator_delegate_token_accountNtB5_35OperatorDelegateTokenAccountBuilder21add_remaining_account
FNDA:0,_RNvMs1_NtNtNtCs7b1zZ6GD7vQ_21jito_restaking_client9generated12instructions31operator_delegate_token_accountNtB5_35OperatorDelegateTokenAccountBuilder22add_remaining_accounts
FNDA:0,_RNvMs1_NtNtNtCs7b1zZ6GD7vQ_21jito_restaking_client9generated12instructions31operator_delegate_token_accountNtB5_35OperatorDelegateTokenAccountBuilder11instruction
FNDA:0,_RNvMs2_NtNtNtCs7b1zZ6GD7vQ_21jito_restaking_client9generated12instructions31operator_delegate_token_accountNtB5_31OperatorDelegateTokenAccountCpi3new
FNDA:0,_RNvMs2_NtNtNtCs7b1zZ6GD7vQ_21jito_restaking_client9generated12instructions31operator_delegate_token_accountNtB5_31OperatorDelegateTokenAccountCpi6invoke
FNDA:0,_RNvMs2_NtNtNtCs7b1zZ6GD7vQ_21jito_restaking_client9generated12instructions31operator_delegate_token_accountNtB5_31OperatorDelegateTokenAccountCpi30invoke_with_remaining_accounts
FNDA:0,_RNvMs2_NtNtNtCs7b1zZ6GD7vQ_21jito_restaking_client9generated12instructions31operator_delegate_token_accountNtB5_31OperatorDelegateTokenAccountCpi13invoke_signed
FNDA:0,_RNvMs2_NtNtNtCs7b1zZ6GD7vQ_21jito_restaking_client9generated12instructions31operator_delegate_token_accountNtB5_31OperatorDelegateTokenAccountCpi37invoke_signed_with_remaining_accounts
FNDA:0,_RNCNvMs2_NtNtNtCs7b1zZ6GD7vQ_21jito_restaking_client9generated12instructions31operator_delegate_token_accountNtB7_31OperatorDelegateTokenAccountCpi37invoke_signed_with_remaining_accounts0Bd_
FNDA:0,_RNCNvMs2_NtNtNtCs7b1zZ6GD7vQ_21jito_restaking_client9generated12instructions31operator_delegate_token_accountNtB7_31OperatorDelegateTokenAccountCpi37invoke_signed_with_remaining_accountss_0Bd_
FNDA:0,_RNvMs3_NtNtNtCs7b1zZ6GD7vQ_21jito_restaking_client9generated12instructions31operator_delegate_token_accountNtB5_38OperatorDelegateTokenAccountCpiBuilder3new
FNDA:0,_RNvMs3_NtNtNtCs7b1zZ6GD7vQ_21jito_restaking_client9generated12instructions31operator_delegate_token_accountNtB5_38OperatorDelegateTokenAccountCpiBuilder8operator
FNDA:0,_RNvMs3_NtNtNtCs7b1zZ6GD7vQ_21jito_restaking_client9generated12instructions31operator_delegate_token_accountNtB5_38OperatorDelegateTokenAccountCpiBuilder14delegate_admin
FNDA:0,_RNvMs3_NtNtNtCs7b1zZ6GD7vQ_21jito_restaking_client9generated12instructions31operator_delegate_token_accountNtB5_38OperatorDelegateTokenAccountCpiBuilder10token_mint
FNDA:0,_RNvMs3_NtNtNtCs7b1zZ6GD7vQ_21jito_restaking_client9generated12instructions31operator_delegate_token_accountNtB5_38OperatorDelegateTokenAccountCpiBuilder13token_account
FNDA:0,_RNvMs3_NtNtNtCs7b1zZ6GD7vQ_21jito_restaking_client9generated12instructions31operator_delegate_token_accountNtB5_38OperatorDelegateTokenAccountCpiBuilder8delegate
FNDA:0,_RNvMs3_NtNtNtCs7b1zZ6GD7vQ_21jito_restaking_client9generated12instructions31operator_delegate_token_accountNtB5_38OperatorDelegateTokenAccountCpiBuilder13token_program
FNDA:0,_RNvMs3_NtNtNtCs7b1zZ6GD7vQ_21jito_restaking_client9generated12instructions31operator_delegate_token_accountNtB5_38OperatorDelegateTokenAccountCpiBuilder21add_remaining_account
FNDA:0,_RNvMs3_NtNtNtCs7b1zZ6GD7vQ_21jito_restaking_client9generated12instructions31operator_delegate_token_accountNtB5_38OperatorDelegateTokenAccountCpiBuilder22add_remaining_accounts
FNDA:0,_RNvMs3_NtNtNtCs7b1zZ6GD7vQ_21jito_restaking_client9generated12instructions31operator_delegate_token_accountNtB5_38OperatorDelegateTokenAccountCpiBuilder6invoke
FNDA:0,_RNvMs3_NtNtNtCs7b1zZ6GD7vQ_21jito_restaking_client9generated12instructions31operator_delegate_token_accountNtB5_38OperatorDelegateTokenAccountCpiBuilder13invoke_signed
FNF:34
FNH:0
DA:25,0
DA:26,0
DA:27,0
DA:29,0
DA:30,0
DA:31,0
DA:32,0
DA:33,0
DA:34,0
DA:35,0
DA:36,0
DA:37,0
DA:38,0
DA:39,0
DA:40,0
DA:41,0
DA:42,0
DA:43,0
DA:44,0
DA:45,0
DA:46,0
DA:47,0
DA:48,0
DA:49,0
DA:50,0
DA:51,0
DA:52,0
DA:53,0
DA:54,0
DA:55,0
DA:56,0
DA:57,0
DA:58,0
DA:59,0
DA:60,0
DA:61,0
DA:62,0
DA:63,0
DA:64,0
DA:65,0
DA:66,0
DA:67,0
DA:68,0
DA:71,0
DA:77,0
DA:78,0
DA:79,0
DA:83,0
DA:84,0
DA:85,0
DA:110,0
DA:111,0
DA:112,0
DA:114,0
DA:115,0
DA:116,0
DA:117,0
DA:119,0
DA:120,0
DA:121,0
DA:122,0
DA:124,0
DA:125,0
DA:126,0
DA:127,0
DA:129,0
DA:130,0
DA:131,0
DA:132,0
DA:134,0
DA:135,0
DA:136,0
DA:137,0
DA:140,0
DA:141,0
DA:142,0
DA:143,0
DA:146,0
DA:147,0
DA:148,0
DA:149,0
DA:150,0
DA:151,0
DA:152,0
DA:155,0
DA:156,0
DA:157,0
DA:158,0
DA:159,0
DA:160,0
DA:161,0
DA:163,0
DA:164,0
DA:165,0
DA:166,0
DA:167,0
DA:168,0
DA:169,0
DA:170,0
DA:171,0
DA:172,0
DA:173,0
DA:174,0
DA:175,0
DA:176,0
DA:213,0
DA:214,0
DA:215,0
DA:216,0
DA:217,0
DA:218,0
DA:219,0
DA:220,0
DA:221,0
DA:222,0
DA:223,0
DA:224,0
DA:225,0
DA:226,0
DA:228,0
DA:229,0
DA:230,0
DA:232,0
DA:233,0
DA:234,0
DA:235,0
DA:236,0
DA:237,0
DA:238,0
DA:239,0
DA:240,0
DA:241,0
DA:243,0
DA:244,0
DA:245,0
DA:246,0
DA:247,0
DA:248,0
DA:251,0
DA:252,0
DA:253,0
DA:254,0
DA:255,0
DA:256,0
DA:257,0
DA:258,0
DA:259,0
DA:260,0
DA:261,0
DA:262,0
DA:263,0
DA:264,0
DA:265,0
DA:266,0
DA:267,0
DA:268,0
DA:269,0
DA:270,0
DA:271,0
DA:272,0
DA:273,0
DA:274,0
DA:275,0
DA:276,0
DA:277,0
DA:278,0
DA:279,0
DA:280,0
DA:281,0
DA:282,0
DA:283,0
DA:284,0
DA:285,0
DA:286,0
DA:287,0
DA:288,0
DA:289,0
DA:290,0
DA:291,0
DA:292,0
DA:293,0
DA:294,0
DA:295,0
DA:296,0
DA:297,0
DA:298,0
DA:299,0
DA:300,0
DA:301,0
DA:302,0
DA:303,0
DA:304,0
DA:305,0
DA:306,0
DA:307,0
DA:308,0
DA:309,0
DA:310,0
DA:311,0
DA:312,0
DA:313,0
DA:314,0
DA:316,0
DA:318,0
DA:337,0
DA:338,0
DA:339,0
DA:340,0
DA:341,0
DA:342,0
DA:343,0
DA:344,0
DA:345,0
DA:346,0
DA:347,0
DA:348,0
DA:349,0
DA:351,0
DA:352,0
DA:353,0
DA:354,0
DA:355,0
DA:356,0
DA:357,0
DA:359,0
DA:360,0
DA:361,0
DA:362,0
DA:363,0
DA:364,0
DA:365,0
DA:367,0
DA:368,0
DA:369,0
DA:370,0
DA:371,0
DA:372,0
DA:373,0
DA:375,0
DA:376,0
DA:377,0
DA:378,0
DA:379,0
DA:380,0
DA:381,0
DA:383,0
DA:384,0
DA:385,0
DA:386,0
DA:387,0
DA:388,0
DA:389,0
DA:391,0
DA:392,0
DA:393,0
DA:394,0
DA:395,0
DA:396,0
DA:397,0
DA:400,0
DA:401,0
DA:402,0
DA:403,0
DA:404,0
DA:405,0
DA:406,0
DA:407,0
DA:408,0
DA:409,0
DA:410,0
DA:416,0
DA:417,0
DA:418,0
DA:419,0
DA:420,0
DA:421,0
DA:422,0
DA:423,0
DA:424,0
DA:425,0
DA:426,0
DA:427,0
DA:428,0
DA:430,0
DA:431,0
DA:432,0
DA:435,0
DA:436,0
DA:437,0
DA:438,0
DA:439,0
DA:440,0
DA:441,0
DA:442,0
DA:443,0
DA:444,0
DA:445,0
DA:446,0
DA:447,0
DA:448,0
DA:449,0
DA:450,0
DA:451,0
DA:452,0
DA:453,0
DA:454,0
DA:455,0
DA:456,0
DA:457,0
DA:458,0
DA:459,0
DA:460,0
DA:461,0
DA:462,0
DA:463,0
DA:464,0
DA:465,0
DA:466,0
DA:467,0
BRF:0
BRH:0
LF:323
LH:0
end_of_record
SF:/Users/coach/Documents/Jito/restaking/clients/rust/restaking_client/src/generated/instructions/operator_set_admin.rs
FN:19,_RNvMNtNtNtCs7b1zZ6GD7vQ_21jito_restaking_client9generated12instructions18operator_set_adminNtB2_16OperatorSetAdmin11instruction
FN:23,_RNvMNtNtNtCs7b1zZ6GD7vQ_21jito_restaking_client9generated12instructions18operator_set_adminNtB2_16OperatorSetAdmin35instruction_with_remaining_accounts
FN:51,_RINvXs4_NtNtNtCs7b1zZ6GD7vQ_21jito_restaking_client9generated12instructions18operator_set_adminNtB6_31OperatorSetAdminInstructionDataNtNtCs7MwDlaQ6RmC_5borsh2de16BorshDeserialize18deserialize_readerpEBc_
FN:51,_RINvXs5_NtNtNtCs7b1zZ6GD7vQ_21jito_restaking_client9generated12instructions18operator_set_adminNtB6_31OperatorSetAdminInstructionDataNtNtCs7MwDlaQ6RmC_5borsh3ser14BorshSerialize9serializepEBc_
FN:57,_RNvMs_NtNtNtCs7b1zZ6GD7vQ_21jito_restaking_client9generated12instructions18operator_set_adminNtB4_31OperatorSetAdminInstructionData3new
FN:63,_RNvXs0_NtNtNtCs7b1zZ6GD7vQ_21jito_restaking_client9generated12instructions18operator_set_adminNtB5_31OperatorSetAdminInstructionDataNtNtCs2ke5FKHNm4X_4core7default7Default7default
FN:84,_RNvMs1_NtNtNtCs7b1zZ6GD7vQ_21jito_restaking_client9generated12instructions18operator_set_adminNtB5_23OperatorSetAdminBuilder3new
FN:88,_RNvMs1_NtNtNtCs7b1zZ6GD7vQ_21jito_restaking_client9generated12instructions18operator_set_adminNtB5_23OperatorSetAdminBuilder8operator
FN:93,_RNvMs1_NtNtNtCs7b1zZ6GD7vQ_21jito_restaking_client9generated12instructions18operator_set_adminNtB5_23OperatorSetAdminBuilder9old_admin
FN:98,_RNvMs1_NtNtNtCs7b1zZ6GD7vQ_21jito_restaking_client9generated12instructions18operator_set_adminNtB5_23OperatorSetAdminBuilder9new_admin
FN:104,_RNvMs1_NtNtNtCs7b1zZ6GD7vQ_21jito_restaking_client9generated12instructions18operator_set_adminNtB5_23OperatorSetAdminBuilder21add_remaining_account
FN:113,_RNvMs1_NtNtNtCs7b1zZ6GD7vQ_21jito_restaking_client9generated12instructions18operator_set_adminNtB5_23OperatorSetAdminBuilder22add_remaining_accounts
FN:121,_RNvMs1_NtNtNtCs7b1zZ6GD7vQ_21jito_restaking_client9generated12instructions18operator_set_adminNtB5_23OperatorSetAdminBuilder11instruction
FN:154,_RNvMs2_NtNtNtCs7b1zZ6GD7vQ_21jito_restaking_client9generated12instructions18operator_set_adminNtB5_19OperatorSetAdminCpi3new
FN:166,_RNvMs2_NtNtNtCs7b1zZ6GD7vQ_21jito_restaking_client9generated12instructions18operator_set_adminNtB5_19OperatorSetAdminCpi6invoke
FN:170,_RNvMs2_NtNtNtCs7b1zZ6GD7vQ_21jito_restaking_client9generated12instructions18operator_set_adminNtB5_19OperatorSetAdminCpi30invoke_with_remaining_accounts
FN:181,_RNvMs2_NtNtNtCs7b1zZ6GD7vQ_21jito_restaking_client9generated12instructions18operator_set_adminNtB5_19OperatorSetAdminCpi13invoke_signed
FN:189,_RNvMs2_NtNtNtCs7b1zZ6GD7vQ_21jito_restaking_client9generated12instructions18operator_set_adminNtB5_19OperatorSetAdminCpi37invoke_signed_with_remaining_accounts
FN:211,_RNCNvMs2_NtNtNtCs7b1zZ6GD7vQ_21jito_restaking_client9generated12instructions18operator_set_adminNtB7_19OperatorSetAdminCpi37invoke_signed_with_remaining_accounts0Bd_
FN:232,_RNCNvMs2_NtNtNtCs7b1zZ6GD7vQ_21jito_restaking_client9generated12instructions18operator_set_adminNtB7_19OperatorSetAdminCpi37invoke_signed_with_remaining_accountss_0Bd_
FN:255,_RNvMs3_NtNtNtCs7b1zZ6GD7vQ_21jito_restaking_client9generated12instructions18operator_set_adminNtB5_26OperatorSetAdminCpiBuilder3new
FN:266,_RNvMs3_NtNtNtCs7b1zZ6GD7vQ_21jito_restaking_client9generated12instructions18operator_set_adminNtB5_26OperatorSetAdminCpiBuilder8operator
FN:274,_RNvMs3_NtNtNtCs7b1zZ6GD7vQ_21jito_restaking_client9generated12instructions18operator_set_adminNtB5_26OperatorSetAdminCpiBuilder9old_admin
FN:282,_RNvMs3_NtNtNtCs7b1zZ6GD7vQ_21jito_restaking_client9generated12instructions18operator_set_adminNtB5_26OperatorSetAdminCpiBuilder9new_admin
FN:291,_RNvMs3_NtNtNtCs7b1zZ6GD7vQ_21jito_restaking_client9generated12instructions18operator_set_adminNtB5_26OperatorSetAdminCpiBuilder21add_remaining_account
FN:307,_RNvMs3_NtNtNtCs7b1zZ6GD7vQ_21jito_restaking_client9generated12instructions18operator_set_adminNtB5_26OperatorSetAdminCpiBuilder22add_remaining_accounts
FN:321,_RNvMs3_NtNtNtCs7b1zZ6GD7vQ_21jito_restaking_client9generated12instructions18operator_set_adminNtB5_26OperatorSetAdminCpiBuilder6invoke
FN:326,_RNvMs3_NtNtNtCs7b1zZ6GD7vQ_21jito_restaking_client9generated12instructions18operator_set_adminNtB5_26OperatorSetAdminCpiBuilder13invoke_signed
FNDA:0,_RNvMNtNtNtCs7b1zZ6GD7vQ_21jito_restaking_client9generated12instructions18operator_set_adminNtB2_16OperatorSetAdmin11instruction
FNDA:0,_RNvMNtNtNtCs7b1zZ6GD7vQ_21jito_restaking_client9generated12instructions18operator_set_adminNtB2_16OperatorSetAdmin35instruction_with_remaining_accounts
FNDA:0,_RINvXs4_NtNtNtCs7b1zZ6GD7vQ_21jito_restaking_client9generated12instructions18operator_set_adminNtB6_31OperatorSetAdminInstructionDataNtNtCs7MwDlaQ6RmC_5borsh2de16BorshDeserialize18deserialize_readerpEBc_
FNDA:0,_RINvXs5_NtNtNtCs7b1zZ6GD7vQ_21jito_restaking_client9generated12instructions18operator_set_adminNtB6_31OperatorSetAdminInstructionDataNtNtCs7MwDlaQ6RmC_5borsh3ser14BorshSerialize9serializepEBc_
FNDA:0,_RNvMs_NtNtNtCs7b1zZ6GD7vQ_21jito_restaking_client9generated12instructions18operator_set_adminNtB4_31OperatorSetAdminInstructionData3new
FNDA:0,_RNvXs0_NtNtNtCs7b1zZ6GD7vQ_21jito_restaking_client9generated12instructions18operator_set_adminNtB5_31OperatorSetAdminInstructionDataNtNtCs2ke5FKHNm4X_4core7default7Default7default
FNDA:0,_RNvMs1_NtNtNtCs7b1zZ6GD7vQ_21jito_restaking_client9generated12instructions18operator_set_adminNtB5_23OperatorSetAdminBuilder3new
FNDA:0,_RNvMs1_NtNtNtCs7b1zZ6GD7vQ_21jito_restaking_client9generated12instructions18operator_set_adminNtB5_23OperatorSetAdminBuilder8operator
FNDA:0,_RNvMs1_NtNtNtCs7b1zZ6GD7vQ_21jito_restaking_client9generated12instructions18operator_set_adminNtB5_23OperatorSetAdminBuilder9old_admin
FNDA:0,_RNvMs1_NtNtNtCs7b1zZ6GD7vQ_21jito_restaking_client9generated12instructions18operator_set_adminNtB5_23OperatorSetAdminBuilder9new_admin
FNDA:0,_RNvMs1_NtNtNtCs7b1zZ6GD7vQ_21jito_restaking_client9generated12instructions18operator_set_adminNtB5_23OperatorSetAdminBuilder21add_remaining_account
FNDA:0,_RNvMs1_NtNtNtCs7b1zZ6GD7vQ_21jito_restaking_client9generated12instructions18operator_set_adminNtB5_23OperatorSetAdminBuilder22add_remaining_accounts
FNDA:0,_RNvMs1_NtNtNtCs7b1zZ6GD7vQ_21jito_restaking_client9generated12instructions18operator_set_adminNtB5_23OperatorSetAdminBuilder11instruction
FNDA:0,_RNvMs2_NtNtNtCs7b1zZ6GD7vQ_21jito_restaking_client9generated12instructions18operator_set_adminNtB5_19OperatorSetAdminCpi3new
FNDA:0,_RNvMs2_NtNtNtCs7b1zZ6GD7vQ_21jito_restaking_client9generated12instructions18operator_set_adminNtB5_19OperatorSetAdminCpi6invoke
FNDA:0,_RNvMs2_NtNtNtCs7b1zZ6GD7vQ_21jito_restaking_client9generated12instructions18operator_set_adminNtB5_19OperatorSetAdminCpi30invoke_with_remaining_accounts
FNDA:0,_RNvMs2_NtNtNtCs7b1zZ6GD7vQ_21jito_restaking_client9generated12instructions18operator_set_adminNtB5_19OperatorSetAdminCpi13invoke_signed
FNDA:0,_RNvMs2_NtNtNtCs7b1zZ6GD7vQ_21jito_restaking_client9generated12instructions18operator_set_adminNtB5_19OperatorSetAdminCpi37invoke_signed_with_remaining_accounts
FNDA:0,_RNCNvMs2_NtNtNtCs7b1zZ6GD7vQ_21jito_restaking_client9generated12instructions18operator_set_adminNtB7_19OperatorSetAdminCpi37invoke_signed_with_remaining_accounts0Bd_
FNDA:0,_RNCNvMs2_NtNtNtCs7b1zZ6GD7vQ_21jito_restaking_client9generated12instructions18operator_set_adminNtB7_19OperatorSetAdminCpi37invoke_signed_with_remaining_accountss_0Bd_
FNDA:0,_RNvMs3_NtNtNtCs7b1zZ6GD7vQ_21jito_restaking_client9generated12instructions18operator_set_adminNtB5_26OperatorSetAdminCpiBuilder3new
FNDA:0,_RNvMs3_NtNtNtCs7b1zZ6GD7vQ_21jito_restaking_client9generated12instructions18operator_set_adminNtB5_26OperatorSetAdminCpiBuilder8operator
FNDA:0,_RNvMs3_NtNtNtCs7b1zZ6GD7vQ_21jito_restaking_client9generated12instructions18operator_set_adminNtB5_26OperatorSetAdminCpiBuilder9old_admin
FNDA:0,_RNvMs3_NtNtNtCs7b1zZ6GD7vQ_21jito_restaking_client9generated12instructions18operator_set_adminNtB5_26OperatorSetAdminCpiBuilder9new_admin
FNDA:0,_RNvMs3_NtNtNtCs7b1zZ6GD7vQ_21jito_restaking_client9generated12instructions18operator_set_adminNtB5_26OperatorSetAdminCpiBuilder21add_remaining_account
FNDA:0,_RNvMs3_NtNtNtCs7b1zZ6GD7vQ_21jito_restaking_client9generated12instructions18operator_set_adminNtB5_26OperatorSetAdminCpiBuilder22add_remaining_accounts
FNDA:0,_RNvMs3_NtNtNtCs7b1zZ6GD7vQ_21jito_restaking_client9generated12instructions18operator_set_adminNtB5_26OperatorSetAdminCpiBuilder6invoke
FNDA:0,_RNvMs3_NtNtNtCs7b1zZ6GD7vQ_21jito_restaking_client9generated12instructions18operator_set_adminNtB5_26OperatorSetAdminCpiBuilder13invoke_signed
FNF:28
FNH:0
DA:19,0
DA:20,0
DA:21,0
DA:23,0
DA:24,0
DA:25,0
DA:26,0
DA:27,0
DA:28,0
DA:29,0
DA:30,0
DA:31,0
DA:32,0
DA:33,0
DA:34,0
DA:35,0
DA:36,0
DA:37,0
DA:38,0
DA:39,0
DA:40,0
DA:41,0
DA:42,0
DA:43,0
DA:44,0
DA:45,0
DA:46,0
DA:47,0
DA:48,0
DA:51,0
DA:57,0
DA:58,0
DA:59,0
DA:63,0
DA:64,0
DA:65,0
DA:84,0
DA:85,0
DA:86,0
DA:88,0
DA:89,0
DA:90,0
DA:91,0
DA:93,0
DA:94,0
DA:95,0
DA:96,0
DA:98,0
DA:99,0
DA:100,0
DA:101,0
DA:104,0
DA:105,0
DA:106,0
DA:107,0
DA:108,0
DA:109,0
DA:110,0
DA:113,0
DA:114,0
DA:115,0
DA:116,0
DA:117,0
DA:118,0
DA:119,0
DA:121,0
DA:122,0
DA:123,0
DA:124,0
DA:125,0
DA:126,0
DA:127,0
DA:128,0
DA:129,0
DA:154,0
DA:155,0
DA:156,0
DA:157,0
DA:158,0
DA:159,0
DA:160,0
DA:161,0
DA:162,0
DA:163,0
DA:164,0
DA:166,0
DA:167,0
DA:168,0
DA:170,0
DA:171,0
DA:172,0
DA:173,0
DA:174,0
DA:175,0
DA:176,0
DA:177,0
DA:178,0
DA:179,0
DA:181,0
DA:182,0
DA:183,0
DA:184,0
DA:185,0
DA:186,0
DA:189,0
DA:190,0
DA:191,0
DA:192,0
DA:193,0
DA:194,0
DA:195,0
DA:196,0
DA:197,0
DA:198,0
DA:199,0
DA:200,0
DA:201,0
DA:202,0
DA:203,0
DA:204,0
DA:205,0
DA:206,0
DA:207,0
DA:208,0
DA:209,0
DA:210,0
DA:211,0
DA:212,0
DA:213,0
DA:214,0
DA:215,0
DA:216,0
DA:217,0
DA:218,0
DA:219,0
DA:220,0
DA:221,0
DA:222,0
DA:223,0
DA:224,0
DA:225,0
DA:226,0
DA:227,0
DA:228,0
DA:229,0
DA:230,0
DA:231,0
DA:232,0
DA:233,0
DA:234,0
DA:235,0
DA:237,0
DA:239,0
DA:255,0
DA:256,0
DA:257,0
DA:258,0
DA:259,0
DA:260,0
DA:261,0
DA:262,0
DA:263,0
DA:264,0
DA:266,0
DA:267,0
DA:268,0
DA:269,0
DA:270,0
DA:271,0
DA:272,0
DA:274,0
DA:275,0
DA:276,0
DA:277,0
DA:278,0
DA:279,0
DA:280,0
DA:282,0
DA:283,0
DA:284,0
DA:285,0
DA:286,0
DA:287,0
DA:288,0
DA:291,0
DA:292,0
DA:293,0
DA:294,0
DA:295,0
DA:296,0
DA:297,0
DA:298,0
DA:299,0
DA:300,0
DA:301,0
DA:307,0
DA:308,0
DA:309,0
DA:310,0
DA:311,0
DA:312,0
DA:313,0
DA:314,0
DA:315,0
DA:316,0
DA:317,0
DA:318,0
DA:319,0
DA:321,0
DA:322,0
DA:323,0
DA:326,0
DA:327,0
DA:328,0
DA:329,0
DA:330,0
DA:331,0
DA:332,0
DA:333,0
DA:334,0
DA:335,0
DA:336,0
DA:337,0
DA:338,0
DA:339,0
DA:340,0
DA:341,0
DA:342,0
DA:343,0
BRF:0
BRH:0
LF:233
LH:0
end_of_record
SF:/Users/coach/Documents/Jito/restaking/clients/rust/restaking_client/src/generated/instructions/operator_set_fee.rs
FN:19,_RNvMNtNtNtCs7b1zZ6GD7vQ_21jito_restaking_client9generated12instructions16operator_set_feeNtB2_14OperatorSetFee11instruction
FN:26,_RNvMNtNtNtCs7b1zZ6GD7vQ_21jito_restaking_client9generated12instructions16operator_set_feeNtB2_14OperatorSetFee35instruction_with_remaining_accounts
FN:56,_RINvXs4_NtNtNtCs7b1zZ6GD7vQ_21jito_restaking_client9generated12instructions16operator_set_feeNtB6_29OperatorSetFeeInstructionDataNtNtCs7MwDlaQ6RmC_5borsh2de16BorshDeserialize18deserialize_readerpEBc_
FN:56,_RINvXs5_NtNtNtCs7b1zZ6GD7vQ_21jito_restaking_client9generated12instructions16operator_set_feeNtB6_29OperatorSetFeeInstructionDataNtNtCs7MwDlaQ6RmC_5borsh3ser14BorshSerialize9serializepEBc_
FN:62,_RNvMs_NtNtNtCs7b1zZ6GD7vQ_21jito_restaking_client9generated12instructions16operator_set_feeNtB4_29OperatorSetFeeInstructionData3new
FN:68,_RNvXs0_NtNtNtCs7b1zZ6GD7vQ_21jito_restaking_client9generated12instructions16operator_set_feeNtB5_29OperatorSetFeeInstructionDataNtNtCs2ke5FKHNm4X_4core7default7Default7default
FN:74,_RNvXNvXNvNtNtNtCs7b1zZ6GD7vQ_21jito_restaking_client9generated12instructions16operator_set_fees_1__NtB7_29OperatorSetFeeInstructionArgsNtNtCsdCf1W31ya0G_5serde2de11Deserialize11deserializeNtB2_14___FieldVisitorNtB2b_7Visitor9expecting
FN:74,_RINvXNvXNvNtNtNtCs7b1zZ6GD7vQ_21jito_restaking_client9generated12instructions16operator_set_fees_1__NtB8_29OperatorSetFeeInstructionArgsNtNtCsdCf1W31ya0G_5serde2de11Deserialize11deserializeNtB3_14___FieldVisitorNtB2c_7Visitor9visit_u64pEBe_
FN:74,_RINvXNvXNvNtNtNtCs7b1zZ6GD7vQ_21jito_restaking_client9generated12instructions16operator_set_fees_1__NtB8_29OperatorSetFeeInstructionArgsNtNtCsdCf1W31ya0G_5serde2de11Deserialize11deserializeNtB3_14___FieldVisitorNtB2c_7Visitor9visit_strpEBe_
FN:74,_RINvXNvXNvNtNtNtCs7b1zZ6GD7vQ_21jito_restaking_client9generated12instructions16operator_set_fees_1__NtB8_29OperatorSetFeeInstructionArgsNtNtCsdCf1W31ya0G_5serde2de11Deserialize11deserializeNtB3_14___FieldVisitorNtB2c_7Visitor11visit_bytespEBe_
FN:74,_RINvXs_NvXNvNtNtNtCs7b1zZ6GD7vQ_21jito_restaking_client9generated12instructions16operator_set_fees_1__NtBa_29OperatorSetFeeInstructionArgsNtNtCsdCf1W31ya0G_5serde2de11Deserialize11deserializeNtB5_7___FieldB2c_11deserializepEBg_
FN:74,_RNvXs0_NvXNvNtNtNtCs7b1zZ6GD7vQ_21jito_restaking_client9generated12instructions16operator_set_fees_1__NtBa_29OperatorSetFeeInstructionArgsNtNtCsdCf1W31ya0G_5serde2de11Deserialize11deserializeNtB5_9___VisitorNtB2e_7Visitor9expecting
FN:74,_RINvXs0_NvXNvNtNtNtCs7b1zZ6GD7vQ_21jito_restaking_client9generated12instructions16operator_set_fees_1__NtBb_29OperatorSetFeeInstructionArgsNtNtCsdCf1W31ya0G_5serde2de11Deserialize11deserializeNtB6_9___VisitorNtB2f_7Visitor9visit_seqpEBh_
FN:74,_RINvXs0_NvXNvNtNtNtCs7b1zZ6GD7vQ_21jito_restaking_client9generated12instructions16operator_set_fees_1__NtBb_29OperatorSetFeeInstructionArgsNtNtCsdCf1W31ya0G_5serde2de11Deserialize11deserializeNtB6_9___VisitorNtB2f_7Visitor9visit_mappEBh_
FN:73,_RINvXs6_NtNtNtCs7b1zZ6GD7vQ_21jito_restaking_client9generated12instructions16operator_set_feeNtB6_29OperatorSetFeeInstructionArgsNtNtCs7MwDlaQ6RmC_5borsh3ser14BorshSerialize9serializepEBc_
FN:73,_RINvXs7_NtNtNtCs7b1zZ6GD7vQ_21jito_restaking_client9generated12instructions16operator_set_feeNtB6_29OperatorSetFeeInstructionArgsNtNtCs7MwDlaQ6RmC_5borsh2de16BorshDeserialize18deserialize_readerpEBc_
FN:96,_RNvMs1_NtNtNtCs7b1zZ6GD7vQ_21jito_restaking_client9generated12instructions16operator_set_feeNtB5_21OperatorSetFeeBuilder3new
FN:100,_RNvMs1_NtNtNtCs7b1zZ6GD7vQ_21jito_restaking_client9generated12instructions16operator_set_feeNtB5_21OperatorSetFeeBuilder6config
FN:105,_RNvMs1_NtNtNtCs7b1zZ6GD7vQ_21jito_restaking_client9generated12instructions16operator_set_feeNtB5_21OperatorSetFeeBuilder8operator
FN:110,_RNvMs1_NtNtNtCs7b1zZ6GD7vQ_21jito_restaking_client9generated12instructions16operator_set_feeNtB5_21OperatorSetFeeBuilder5admin
FN:115,_RNvMs1_NtNtNtCs7b1zZ6GD7vQ_21jito_restaking_client9generated12instructions16operator_set_feeNtB5_21OperatorSetFeeBuilder11new_fee_bps
FN:121,_RNvMs1_NtNtNtCs7b1zZ6GD7vQ_21jito_restaking_client9generated12instructions16operator_set_feeNtB5_21OperatorSetFeeBuilder21add_remaining_account
FN:130,_RNvMs1_NtNtNtCs7b1zZ6GD7vQ_21jito_restaking_client9generated12instructions16operator_set_feeNtB5_21OperatorSetFeeBuilder22add_remaining_accounts
FN:138,_RNvMs1_NtNtNtCs7b1zZ6GD7vQ_21jito_restaking_client9generated12instructions16operator_set_feeNtB5_21OperatorSetFeeBuilder11instruction
FN:176,_RNvMs2_NtNtNtCs7b1zZ6GD7vQ_21jito_restaking_client9generated12instructions16operator_set_feeNtB5_17OperatorSetFeeCpi3new
FN:190,_RNvMs2_NtNtNtCs7b1zZ6GD7vQ_21jito_restaking_client9generated12instructions16operator_set_feeNtB5_17OperatorSetFeeCpi6invoke
FN:194,_RNvMs2_NtNtNtCs7b1zZ6GD7vQ_21jito_restaking_client9generated12instructions16operator_set_feeNtB5_17OperatorSetFeeCpi30invoke_with_remaining_accounts
FN:205,_RNvMs2_NtNtNtCs7b1zZ6GD7vQ_21jito_restaking_client9generated12instructions16operator_set_feeNtB5_17OperatorSetFeeCpi13invoke_signed
FN:213,_RNvMs2_NtNtNtCs7b1zZ6GD7vQ_21jito_restaking_client9generated12instructions16operator_set_feeNtB5_17OperatorSetFeeCpi37invoke_signed_with_remaining_accounts
FN:235,_RNCNvMs2_NtNtNtCs7b1zZ6GD7vQ_21jito_restaking_client9generated12instructions16operator_set_feeNtB7_17OperatorSetFeeCpi37invoke_signed_with_remaining_accounts0Bd_
FN:258,_RNCNvMs2_NtNtNtCs7b1zZ6GD7vQ_21jito_restaking_client9generated12instructions16operator_set_feeNtB7_17OperatorSetFeeCpi37invoke_signed_with_remaining_accountss_0Bd_
FN:281,_RNvMs3_NtNtNtCs7b1zZ6GD7vQ_21jito_restaking_client9generated12instructions16operator_set_feeNtB5_24OperatorSetFeeCpiBuilder3new
FN:293,_RNvMs3_NtNtNtCs7b1zZ6GD7vQ_21jito_restaking_client9generated12instructions16operator_set_feeNtB5_24OperatorSetFeeCpiBuilder6config
FN:301,_RNvMs3_NtNtNtCs7b1zZ6GD7vQ_21jito_restaking_client9generated12instructions16operator_set_feeNtB5_24OperatorSetFeeCpiBuilder8operator
FN:309,_RNvMs3_NtNtNtCs7b1zZ6GD7vQ_21jito_restaking_client9generated12instructions16operator_set_feeNtB5_24OperatorSetFeeCpiBuilder5admin
FN:314,_RNvMs3_NtNtNtCs7b1zZ6GD7vQ_21jito_restaking_client9generated12instructions16operator_set_feeNtB5_24OperatorSetFeeCpiBuilder11new_fee_bps
FN:320,_RNvMs3_NtNtNtCs7b1zZ6GD7vQ_21jito_restaking_client9generated12instructions16operator_set_feeNtB5_24OperatorSetFeeCpiBuilder21add_remaining_account
FN:336,_RNvMs3_NtNtNtCs7b1zZ6GD7vQ_21jito_restaking_client9generated12instructions16operator_set_feeNtB5_24OperatorSetFeeCpiBuilder22add_remaining_accounts
FN:350,_RNvMs3_NtNtNtCs7b1zZ6GD7vQ_21jito_restaking_client9generated12instructions16operator_set_feeNtB5_24OperatorSetFeeCpiBuilder6invoke
FN:355,_RNvMs3_NtNtNtCs7b1zZ6GD7vQ_21jito_restaking_client9generated12instructions16operator_set_feeNtB5_24OperatorSetFeeCpiBuilder13invoke_signed
FNDA:0,_RNvMNtNtNtCs7b1zZ6GD7vQ_21jito_restaking_client9generated12instructions16operator_set_feeNtB2_14OperatorSetFee11instruction
FNDA:0,_RNvMNtNtNtCs7b1zZ6GD7vQ_21jito_restaking_client9generated12instructions16operator_set_feeNtB2_14OperatorSetFee35instruction_with_remaining_accounts
FNDA:0,_RINvXs4_NtNtNtCs7b1zZ6GD7vQ_21jito_restaking_client9generated12instructions16operator_set_feeNtB6_29OperatorSetFeeInstructionDataNtNtCs7MwDlaQ6RmC_5borsh2de16BorshDeserialize18deserialize_readerpEBc_
FNDA:0,_RINvXs5_NtNtNtCs7b1zZ6GD7vQ_21jito_restaking_client9generated12instructions16operator_set_feeNtB6_29OperatorSetFeeInstructionDataNtNtCs7MwDlaQ6RmC_5borsh3ser14BorshSerialize9serializepEBc_
FNDA:0,_RNvMs_NtNtNtCs7b1zZ6GD7vQ_21jito_restaking_client9generated12instructions16operator_set_feeNtB4_29OperatorSetFeeInstructionData3new
FNDA:0,_RNvXs0_NtNtNtCs7b1zZ6GD7vQ_21jito_restaking_client9generated12instructions16operator_set_feeNtB5_29OperatorSetFeeInstructionDataNtNtCs2ke5FKHNm4X_4core7default7Default7default
FNDA:0,_RNvXNvXNvNtNtNtCs7b1zZ6GD7vQ_21jito_restaking_client9generated12instructions16operator_set_fees_1__NtB7_29OperatorSetFeeInstructionArgsNtNtCsdCf1W31ya0G_5serde2de11Deserialize11deserializeNtB2_14___FieldVisitorNtB2b_7Visitor9expecting
FNDA:0,_RINvXNvXNvNtNtNtCs7b1zZ6GD7vQ_21jito_restaking_client9generated12instructions16operator_set_fees_1__NtB8_29OperatorSetFeeInstructionArgsNtNtCsdCf1W31ya0G_5serde2de11Deserialize11deserializeNtB3_14___FieldVisitorNtB2c_7Visitor9visit_u64pEBe_
FNDA:0,_RINvXNvXNvNtNtNtCs7b1zZ6GD7vQ_21jito_restaking_client9generated12instructions16operator_set_fees_1__NtB8_29OperatorSetFeeInstructionArgsNtNtCsdCf1W31ya0G_5serde2de11Deserialize11deserializeNtB3_14___FieldVisitorNtB2c_7Visitor9visit_strpEBe_
FNDA:0,_RINvXNvXNvNtNtNtCs7b1zZ6GD7vQ_21jito_restaking_client9generated12instructions16operator_set_fees_1__NtB8_29OperatorSetFeeInstructionArgsNtNtCsdCf1W31ya0G_5serde2de11Deserialize11deserializeNtB3_14___FieldVisitorNtB2c_7Visitor11visit_bytespEBe_
FNDA:0,_RINvXs_NvXNvNtNtNtCs7b1zZ6GD7vQ_21jito_restaking_client9generated12instructions16operator_set_fees_1__NtBa_29OperatorSetFeeInstructionArgsNtNtCsdCf1W31ya0G_5serde2de11Deserialize11deserializeNtB5_7___FieldB2c_11deserializepEBg_
FNDA:0,_RNvXs0_NvXNvNtNtNtCs7b1zZ6GD7vQ_21jito_restaking_client9generated12instructions16operator_set_fees_1__NtBa_29OperatorSetFeeInstructionArgsNtNtCsdCf1W31ya0G_5serde2de11Deserialize11deserializeNtB5_9___VisitorNtB2e_7Visitor9expecting
FNDA:0,_RINvXs0_NvXNvNtNtNtCs7b1zZ6GD7vQ_21jito_restaking_client9generated12instructions16operator_set_fees_1__NtBb_29OperatorSetFeeInstructionArgsNtNtCsdCf1W31ya0G_5serde2de11Deserialize11deserializeNtB6_9___VisitorNtB2f_7Visitor9visit_seqpEBh_
FNDA:0,_RINvXs0_NvXNvNtNtNtCs7b1zZ6GD7vQ_21jito_restaking_client9generated12instructions16operator_set_fees_1__NtBb_29OperatorSetFeeInstructionArgsNtNtCsdCf1W31ya0G_5serde2de11Deserialize11deserializeNtB6_9___VisitorNtB2f_7Visitor9visit_mappEBh_
FNDA:0,_RINvXs6_NtNtNtCs7b1zZ6GD7vQ_21jito_restaking_client9generated12instructions16operator_set_feeNtB6_29OperatorSetFeeInstructionArgsNtNtCs7MwDlaQ6RmC_5borsh3ser14BorshSerialize9serializepEBc_
FNDA:0,_RINvXs7_NtNtNtCs7b1zZ6GD7vQ_21jito_restaking_client9generated12instructions16operator_set_feeNtB6_29OperatorSetFeeInstructionArgsNtNtCs7MwDlaQ6RmC_5borsh2de16BorshDeserialize18deserialize_readerpEBc_
FNDA:0,_RNvMs1_NtNtNtCs7b1zZ6GD7vQ_21jito_restaking_client9generated12instructions16operator_set_feeNtB5_21OperatorSetFeeBuilder3new
FNDA:0,_RNvMs1_NtNtNtCs7b1zZ6GD7vQ_21jito_restaking_client9generated12instructions16operator_set_feeNtB5_21OperatorSetFeeBuilder6config
FNDA:0,_RNvMs1_NtNtNtCs7b1zZ6GD7vQ_21jito_restaking_client9generated12instructions16operator_set_feeNtB5_21OperatorSetFeeBuilder8operator
FNDA:0,_RNvMs1_NtNtNtCs7b1zZ6GD7vQ_21jito_restaking_client9generated12instructions16operator_set_feeNtB5_21OperatorSetFeeBuilder5admin
FNDA:0,_RNvMs1_NtNtNtCs7b1zZ6GD7vQ_21jito_restaking_client9generated12instructions16operator_set_feeNtB5_21OperatorSetFeeBuilder11new_fee_bps
FNDA:0,_RNvMs1_NtNtNtCs7b1zZ6GD7vQ_21jito_restaking_client9generated12instructions16operator_set_feeNtB5_21OperatorSetFeeBuilder21add_remaining_account
FNDA:0,_RNvMs1_NtNtNtCs7b1zZ6GD7vQ_21jito_restaking_client9generated12instructions16operator_set_feeNtB5_21OperatorSetFeeBuilder22add_remaining_accounts
FNDA:0,_RNvMs1_NtNtNtCs7b1zZ6GD7vQ_21jito_restaking_client9generated12instructions16operator_set_feeNtB5_21OperatorSetFeeBuilder11instruction
FNDA:0,_RNvMs2_NtNtNtCs7b1zZ6GD7vQ_21jito_restaking_client9generated12instructions16operator_set_feeNtB5_17OperatorSetFeeCpi3new
FNDA:0,_RNvMs2_NtNtNtCs7b1zZ6GD7vQ_21jito_restaking_client9generated12instructions16operator_set_feeNtB5_17OperatorSetFeeCpi6invoke
FNDA:0,_RNvMs2_NtNtNtCs7b1zZ6GD7vQ_21jito_restaking_client9generated12instructions16operator_set_feeNtB5_17OperatorSetFeeCpi30invoke_with_remaining_accounts
FNDA:0,_RNvMs2_NtNtNtCs7b1zZ6GD7vQ_21jito_restaking_client9generated12instructions16operator_set_feeNtB5_17OperatorSetFeeCpi13invoke_signed
FNDA:0,_RNvMs2_NtNtNtCs7b1zZ6GD7vQ_21jito_restaking_client9generated12instructions16operator_set_feeNtB5_17OperatorSetFeeCpi37invoke_signed_with_remaining_accounts
FNDA:0,_RNCNvMs2_NtNtNtCs7b1zZ6GD7vQ_21jito_restaking_client9generated12instructions16operator_set_feeNtB7_17OperatorSetFeeCpi37invoke_signed_with_remaining_accounts0Bd_
FNDA:0,_RNCNvMs2_NtNtNtCs7b1zZ6GD7vQ_21jito_restaking_client9generated12instructions16operator_set_feeNtB7_17OperatorSetFeeCpi37invoke_signed_with_remaining_accountss_0Bd_
FNDA:0,_RNvMs3_NtNtNtCs7b1zZ6GD7vQ_21jito_restaking_client9generated12instructions16operator_set_feeNtB5_24OperatorSetFeeCpiBuilder3new
FNDA:0,_RNvMs3_NtNtNtCs7b1zZ6GD7vQ_21jito_restaking_client9generated12instructions16operator_set_feeNtB5_24OperatorSetFeeCpiBuilder6config
FNDA:0,_RNvMs3_NtNtNtCs7b1zZ6GD7vQ_21jito_restaking_client9generated12instructions16operator_set_feeNtB5_24OperatorSetFeeCpiBuilder8operator
FNDA:0,_RNvMs3_NtNtNtCs7b1zZ6GD7vQ_21jito_restaking_client9generated12instructions16operator_set_feeNtB5_24OperatorSetFeeCpiBuilder5admin
FNDA:0,_RNvMs3_NtNtNtCs7b1zZ6GD7vQ_21jito_restaking_client9generated12instructions16operator_set_feeNtB5_24OperatorSetFeeCpiBuilder11new_fee_bps
FNDA:0,_RNvMs3_NtNtNtCs7b1zZ6GD7vQ_21jito_restaking_client9generated12instructions16operator_set_feeNtB5_24OperatorSetFeeCpiBuilder21add_remaining_account
FNDA:0,_RNvMs3_NtNtNtCs7b1zZ6GD7vQ_21jito_restaking_client9generated12instructions16operator_set_feeNtB5_24OperatorSetFeeCpiBuilder22add_remaining_accounts
FNDA:0,_RNvMs3_NtNtNtCs7b1zZ6GD7vQ_21jito_restaking_client9generated12instructions16operator_set_feeNtB5_24OperatorSetFeeCpiBuilder6invoke
